libLLVM.so.11:LLVMABIAlignmentOfType
libLLVM.so.11:LLVMABISizeOfType
libLLVM.so.11:LLVMAddAddDiscriminatorsPass
libLLVM.so.11:LLVMAddAggressiveDCEPass
libLLVM.so.11:LLVMAddAggressiveInstCombinerPass
libLLVM.so.11:LLVMAddAlias
libLLVM.so.11:LLVMAddAlignmentFromAssumptionsPass
libLLVM.so.11:LLVMAddAlwaysInlinerPass
libLLVM.so.11:LLVMAddAnalysisPasses
libLLVM.so.11:LLVMAddArgumentPromotionPass
libLLVM.so.11:LLVMAddAttributeAtIndex
libLLVM.so.11:LLVMAddBasicAliasAnalysisPass
libLLVM.so.11:LLVMAddBitTrackingDCEPass
libLLVM.so.11:LLVMAddCFGSimplificationPass
libLLVM.so.11:LLVMAddCallSiteAttribute
libLLVM.so.11:LLVMAddCalledValuePropagationPass
libLLVM.so.11:LLVMAddCase
libLLVM.so.11:LLVMAddClause
libLLVM.so.11:LLVMAddConstantMergePass
libLLVM.so.11:LLVMAddConstantPropagationPass
libLLVM.so.11:LLVMAddCoroCleanupPass
libLLVM.so.11:LLVMAddCoroEarlyPass
libLLVM.so.11:LLVMAddCoroElidePass
libLLVM.so.11:LLVMAddCoroSplitPass
libLLVM.so.11:LLVMAddCorrelatedValuePropagationPass
libLLVM.so.11:LLVMAddDCEPass
libLLVM.so.11:LLVMAddDeadArgEliminationPass
libLLVM.so.11:LLVMAddDeadStoreEliminationPass
libLLVM.so.11:LLVMAddDemoteMemoryToRegisterPass
libLLVM.so.11:LLVMAddDestination
libLLVM.so.11:LLVMAddEarlyCSEMemSSAPass
libLLVM.so.11:LLVMAddEarlyCSEPass
libLLVM.so.11:LLVMAddFunction
libLLVM.so.11:LLVMAddFunctionAttrsPass
libLLVM.so.11:LLVMAddFunctionInliningPass
libLLVM.so.11:LLVMAddGVNPass
libLLVM.so.11:LLVMAddGlobal
libLLVM.so.11:LLVMAddGlobalDCEPass
libLLVM.so.11:LLVMAddGlobalIFunc
libLLVM.so.11:LLVMAddGlobalInAddressSpace
libLLVM.so.11:LLVMAddGlobalMapping
libLLVM.so.11:LLVMAddGlobalOptimizerPass
libLLVM.so.11:LLVMAddHandler
libLLVM.so.11:LLVMAddIPConstantPropagationPass
libLLVM.so.11:LLVMAddIPSCCPPass
libLLVM.so.11:LLVMAddIncoming
libLLVM.so.11:LLVMAddIndVarSimplifyPass
libLLVM.so.11:LLVMAddInstructionCombiningPass
libLLVM.so.11:LLVMAddInternalizePass
libLLVM.so.11:LLVMAddInternalizePassWithMustPreservePredicate
libLLVM.so.11:LLVMAddJumpThreadingPass
libLLVM.so.11:LLVMAddLICMPass
libLLVM.so.11:LLVMAddLoopDeletionPass
libLLVM.so.11:LLVMAddLoopIdiomPass
libLLVM.so.11:LLVMAddLoopRerollPass
libLLVM.so.11:LLVMAddLoopRotatePass
libLLVM.so.11:LLVMAddLoopUnrollAndJamPass
libLLVM.so.11:LLVMAddLoopUnrollPass
libLLVM.so.11:LLVMAddLoopUnswitchPass
libLLVM.so.11:LLVMAddLoopVectorizePass
libLLVM.so.11:LLVMAddLowerAtomicPass
libLLVM.so.11:LLVMAddLowerConstantIntrinsicsPass
libLLVM.so.11:LLVMAddLowerExpectIntrinsicPass
libLLVM.so.11:LLVMAddLowerSwitchPass
libLLVM.so.11:LLVMAddMemCpyOptPass
libLLVM.so.11:LLVMAddMergeFunctionsPass
libLLVM.so.11:LLVMAddMergedLoadStoreMotionPass
libLLVM.so.11:LLVMAddModule
libLLVM.so.11:LLVMAddModuleFlag
libLLVM.so.11:LLVMAddNamedMetadataOperand
libLLVM.so.11:LLVMAddNewGVNPass
libLLVM.so.11:LLVMAddPartiallyInlineLibCallsPass
libLLVM.so.11:LLVMAddPromoteMemoryToRegisterPass
libLLVM.so.11:LLVMAddPruneEHPass
libLLVM.so.11:LLVMAddReassociatePass
libLLVM.so.11:LLVMAddSCCPPass
libLLVM.so.11:LLVMAddSLPVectorizePass
libLLVM.so.11:LLVMAddScalarReplAggregatesPass
libLLVM.so.11:LLVMAddScalarReplAggregatesPassSSA
libLLVM.so.11:LLVMAddScalarReplAggregatesPassWithThreshold
libLLVM.so.11:LLVMAddScalarizerPass
libLLVM.so.11:LLVMAddScopedNoAliasAAPass
libLLVM.so.11:LLVMAddSimplifyLibCallsPass
libLLVM.so.11:LLVMAddStripDeadPrototypesPass
libLLVM.so.11:LLVMAddStripSymbolsPass
libLLVM.so.11:LLVMAddSymbol
libLLVM.so.11:LLVMAddTailCallEliminationPass
libLLVM.so.11:LLVMAddTargetDependentFunctionAttr
libLLVM.so.11:LLVMAddTargetLibraryInfo
libLLVM.so.11:LLVMAddTypeBasedAliasAnalysisPass
libLLVM.so.11:LLVMAddUnifyFunctionExitNodesPass
libLLVM.so.11:LLVMAddVerifierPass
libLLVM.so.11:LLVMAliasGetAliasee
libLLVM.so.11:LLVMAliasSetAliasee
libLLVM.so.11:LLVMAlignOf
libLLVM.so.11:LLVMAppendBasicBlock
libLLVM.so.11:LLVMAppendBasicBlockInContext
libLLVM.so.11:LLVMAppendExistingBasicBlock
libLLVM.so.11:LLVMAppendModuleInlineAsm
libLLVM.so.11:LLVMArrayType
libLLVM.so.11:LLVMBFloatType
libLLVM.so.11:LLVMBFloatTypeInContext
libLLVM.so.11:LLVMBasicBlockAsValue
libLLVM.so.11:LLVMBinaryCopyMemoryBuffer
libLLVM.so.11:LLVMBinaryGetType
libLLVM.so.11:LLVMBlockAddress
libLLVM.so.11:LLVMBuildAShr
libLLVM.so.11:LLVMBuildAdd
libLLVM.so.11:LLVMBuildAddrSpaceCast
libLLVM.so.11:LLVMBuildAggregateRet
libLLVM.so.11:LLVMBuildAlloca
libLLVM.so.11:LLVMBuildAnd
libLLVM.so.11:LLVMBuildArrayAlloca
libLLVM.so.11:LLVMBuildArrayMalloc
libLLVM.so.11:LLVMBuildAtomicCmpXchg
libLLVM.so.11:LLVMBuildAtomicRMW
libLLVM.so.11:LLVMBuildBinOp
libLLVM.so.11:LLVMBuildBitCast
libLLVM.so.11:LLVMBuildBr
libLLVM.so.11:LLVMBuildCall
libLLVM.so.11:LLVMBuildCall2
libLLVM.so.11:LLVMBuildCast
libLLVM.so.11:LLVMBuildCatchPad
libLLVM.so.11:LLVMBuildCatchRet
libLLVM.so.11:LLVMBuildCatchSwitch
libLLVM.so.11:LLVMBuildCleanupPad
libLLVM.so.11:LLVMBuildCleanupRet
libLLVM.so.11:LLVMBuildCondBr
libLLVM.so.11:LLVMBuildExactSDiv
libLLVM.so.11:LLVMBuildExactUDiv
libLLVM.so.11:LLVMBuildExtractElement
libLLVM.so.11:LLVMBuildExtractValue
libLLVM.so.11:LLVMBuildFAdd
libLLVM.so.11:LLVMBuildFCmp
libLLVM.so.11:LLVMBuildFDiv
libLLVM.so.11:LLVMBuildFMul
libLLVM.so.11:LLVMBuildFNeg
libLLVM.so.11:LLVMBuildFPCast
libLLVM.so.11:LLVMBuildFPExt
libLLVM.so.11:LLVMBuildFPToSI
libLLVM.so.11:LLVMBuildFPToUI
libLLVM.so.11:LLVMBuildFPTrunc
libLLVM.so.11:LLVMBuildFRem
libLLVM.so.11:LLVMBuildFSub
libLLVM.so.11:LLVMBuildFence
libLLVM.so.11:LLVMBuildFree
libLLVM.so.11:LLVMBuildFreeze
libLLVM.so.11:LLVMBuildGEP
libLLVM.so.11:LLVMBuildGEP2
libLLVM.so.11:LLVMBuildGlobalString
libLLVM.so.11:LLVMBuildGlobalStringPtr
libLLVM.so.11:LLVMBuildICmp
libLLVM.so.11:LLVMBuildInBoundsGEP
libLLVM.so.11:LLVMBuildInBoundsGEP2
libLLVM.so.11:LLVMBuildIndirectBr
libLLVM.so.11:LLVMBuildInsertElement
libLLVM.so.11:LLVMBuildInsertValue
libLLVM.so.11:LLVMBuildIntCast
libLLVM.so.11:LLVMBuildIntCast2
libLLVM.so.11:LLVMBuildIntToPtr
libLLVM.so.11:LLVMBuildInvoke
libLLVM.so.11:LLVMBuildInvoke2
libLLVM.so.11:LLVMBuildIsNotNull
libLLVM.so.11:LLVMBuildIsNull
libLLVM.so.11:LLVMBuildLShr
libLLVM.so.11:LLVMBuildLandingPad
libLLVM.so.11:LLVMBuildLoad
libLLVM.so.11:LLVMBuildLoad2
libLLVM.so.11:LLVMBuildMalloc
libLLVM.so.11:LLVMBuildMemCpy
libLLVM.so.11:LLVMBuildMemMove
libLLVM.so.11:LLVMBuildMemSet
libLLVM.so.11:LLVMBuildMul
libLLVM.so.11:LLVMBuildNSWAdd
libLLVM.so.11:LLVMBuildNSWMul
libLLVM.so.11:LLVMBuildNSWNeg
libLLVM.so.11:LLVMBuildNSWSub
libLLVM.so.11:LLVMBuildNUWAdd
libLLVM.so.11:LLVMBuildNUWMul
libLLVM.so.11:LLVMBuildNUWNeg
libLLVM.so.11:LLVMBuildNUWSub
libLLVM.so.11:LLVMBuildNeg
libLLVM.so.11:LLVMBuildNot
libLLVM.so.11:LLVMBuildOr
libLLVM.so.11:LLVMBuildPhi
libLLVM.so.11:LLVMBuildPointerCast
libLLVM.so.11:LLVMBuildPtrDiff
libLLVM.so.11:LLVMBuildPtrToInt
libLLVM.so.11:LLVMBuildResume
libLLVM.so.11:LLVMBuildRet
libLLVM.so.11:LLVMBuildRetVoid
libLLVM.so.11:LLVMBuildSDiv
libLLVM.so.11:LLVMBuildSExt
libLLVM.so.11:LLVMBuildSExtOrBitCast
libLLVM.so.11:LLVMBuildSIToFP
libLLVM.so.11:LLVMBuildSRem
libLLVM.so.11:LLVMBuildSelect
libLLVM.so.11:LLVMBuildShl
libLLVM.so.11:LLVMBuildShuffleVector
libLLVM.so.11:LLVMBuildStore
libLLVM.so.11:LLVMBuildStructGEP
libLLVM.so.11:LLVMBuildStructGEP2
libLLVM.so.11:LLVMBuildSub
libLLVM.so.11:LLVMBuildSwitch
libLLVM.so.11:LLVMBuildTrunc
libLLVM.so.11:LLVMBuildTruncOrBitCast
libLLVM.so.11:LLVMBuildUDiv
libLLVM.so.11:LLVMBuildUIToFP
libLLVM.so.11:LLVMBuildURem
libLLVM.so.11:LLVMBuildUnreachable
libLLVM.so.11:LLVMBuildVAArg
libLLVM.so.11:LLVMBuildXor
libLLVM.so.11:LLVMBuildZExt
libLLVM.so.11:LLVMBuildZExtOrBitCast
libLLVM.so.11:LLVMBuilderGetDefaultFPMathTag
libLLVM.so.11:LLVMBuilderSetDefaultFPMathTag
libLLVM.so.11:LLVMByteOrder
libLLVM.so.11:LLVMCallFrameAlignmentOfType
libLLVM.so.11:LLVMClearInsertionPosition
libLLVM.so.11:LLVMCloneModule
libLLVM.so.11:LLVMConstAShr
libLLVM.so.11:LLVMConstAdd
libLLVM.so.11:LLVMConstAddrSpaceCast
libLLVM.so.11:LLVMConstAllOnes
libLLVM.so.11:LLVMConstAnd
libLLVM.so.11:LLVMConstArray
libLLVM.so.11:LLVMConstBitCast
libLLVM.so.11:LLVMConstExactSDiv
libLLVM.so.11:LLVMConstExactUDiv
libLLVM.so.11:LLVMConstExtractElement
libLLVM.so.11:LLVMConstExtractValue
libLLVM.so.11:LLVMConstFAdd
libLLVM.so.11:LLVMConstFCmp
libLLVM.so.11:LLVMConstFDiv
libLLVM.so.11:LLVMConstFMul
libLLVM.so.11:LLVMConstFNeg
libLLVM.so.11:LLVMConstFPCast
libLLVM.so.11:LLVMConstFPExt
libLLVM.so.11:LLVMConstFPToSI
libLLVM.so.11:LLVMConstFPToUI
libLLVM.so.11:LLVMConstFPTrunc
libLLVM.so.11:LLVMConstFRem
libLLVM.so.11:LLVMConstFSub
libLLVM.so.11:LLVMConstGEP
libLLVM.so.11:LLVMConstICmp
libLLVM.so.11:LLVMConstInBoundsGEP
libLLVM.so.11:LLVMConstInlineAsm
libLLVM.so.11:LLVMConstInsertElement
libLLVM.so.11:LLVMConstInsertValue
libLLVM.so.11:LLVMConstInt
libLLVM.so.11:LLVMConstIntCast
libLLVM.so.11:LLVMConstIntGetSExtValue
libLLVM.so.11:LLVMConstIntGetZExtValue
libLLVM.so.11:LLVMConstIntOfArbitraryPrecision
libLLVM.so.11:LLVMConstIntOfString
libLLVM.so.11:LLVMConstIntOfStringAndSize
libLLVM.so.11:LLVMConstIntToPtr
libLLVM.so.11:LLVMConstLShr
libLLVM.so.11:LLVMConstMul
libLLVM.so.11:LLVMConstNSWAdd
libLLVM.so.11:LLVMConstNSWMul
libLLVM.so.11:LLVMConstNSWNeg
libLLVM.so.11:LLVMConstNSWSub
libLLVM.so.11:LLVMConstNUWAdd
libLLVM.so.11:LLVMConstNUWMul
libLLVM.so.11:LLVMConstNUWNeg
libLLVM.so.11:LLVMConstNUWSub
libLLVM.so.11:LLVMConstNamedStruct
libLLVM.so.11:LLVMConstNeg
libLLVM.so.11:LLVMConstNot
libLLVM.so.11:LLVMConstNull
libLLVM.so.11:LLVMConstOr
libLLVM.so.11:LLVMConstPointerCast
libLLVM.so.11:LLVMConstPointerNull
libLLVM.so.11:LLVMConstPtrToInt
libLLVM.so.11:LLVMConstReal
libLLVM.so.11:LLVMConstRealGetDouble
libLLVM.so.11:LLVMConstRealOfString
libLLVM.so.11:LLVMConstRealOfStringAndSize
libLLVM.so.11:LLVMConstSDiv
libLLVM.so.11:LLVMConstSExt
libLLVM.so.11:LLVMConstSExtOrBitCast
libLLVM.so.11:LLVMConstSIToFP
libLLVM.so.11:LLVMConstSRem
libLLVM.so.11:LLVMConstSelect
libLLVM.so.11:LLVMConstShl
libLLVM.so.11:LLVMConstShuffleVector
libLLVM.so.11:LLVMConstString
libLLVM.so.11:LLVMConstStringInContext
libLLVM.so.11:LLVMConstStruct
libLLVM.so.11:LLVMConstStructInContext
libLLVM.so.11:LLVMConstSub
libLLVM.so.11:LLVMConstTrunc
libLLVM.so.11:LLVMConstTruncOrBitCast
libLLVM.so.11:LLVMConstUDiv
libLLVM.so.11:LLVMConstUIToFP
libLLVM.so.11:LLVMConstURem
libLLVM.so.11:LLVMConstVector
libLLVM.so.11:LLVMConstXor
libLLVM.so.11:LLVMConstZExt
libLLVM.so.11:LLVMConstZExtOrBitCast
libLLVM.so.11:LLVMConsumeError
libLLVM.so.11:LLVMContextCreate
libLLVM.so.11:LLVMContextDispose
libLLVM.so.11:LLVMContextGetDiagnosticContext
libLLVM.so.11:LLVMContextGetDiagnosticHandler
libLLVM.so.11:LLVMContextSetDiagnosticHandler
libLLVM.so.11:LLVMContextSetDiscardValueNames
libLLVM.so.11:LLVMContextSetYieldCallback
libLLVM.so.11:LLVMContextShouldDiscardValueNames
libLLVM.so.11:LLVMCopyModuleFlagsMetadata
libLLVM.so.11:LLVMCopyStringRepOfTargetData
libLLVM.so.11:LLVMCountBasicBlocks
libLLVM.so.11:LLVMCountIncoming
libLLVM.so.11:LLVMCountParamTypes
libLLVM.so.11:LLVMCountParams
libLLVM.so.11:LLVMCountStructElementTypes
libLLVM.so.11:LLVMCreateBasicBlockInContext
libLLVM.so.11:LLVMCreateBinary
libLLVM.so.11:LLVMCreateBuilder
libLLVM.so.11:LLVMCreateBuilderInContext
libLLVM.so.11:LLVMCreateDIBuilder
libLLVM.so.11:LLVMCreateDIBuilderDisallowUnresolved
libLLVM.so.11:LLVMCreateDisasm
libLLVM.so.11:LLVMCreateDisasmCPU
libLLVM.so.11:LLVMCreateDisasmCPUFeatures
libLLVM.so.11:LLVMCreateEnumAttribute
libLLVM.so.11:LLVMCreateExecutionEngineForModule
libLLVM.so.11:LLVMCreateFunctionPassManager
libLLVM.so.11:LLVMCreateFunctionPassManagerForModule
libLLVM.so.11:LLVMCreateGDBRegistrationListener
libLLVM.so.11:LLVMCreateGenericValueOfFloat
libLLVM.so.11:LLVMCreateGenericValueOfInt
libLLVM.so.11:LLVMCreateGenericValueOfPointer
libLLVM.so.11:LLVMCreateIntelJITEventListener
libLLVM.so.11:LLVMCreateInterpreterForModule
libLLVM.so.11:LLVMCreateJITCompilerForModule
libLLVM.so.11:LLVMCreateMCJITCompilerForModule
libLLVM.so.11:LLVMCreateMemoryBufferWithContentsOfFile
libLLVM.so.11:LLVMCreateMemoryBufferWithMemoryRange
libLLVM.so.11:LLVMCreateMemoryBufferWithMemoryRangeCopy
libLLVM.so.11:LLVMCreateMemoryBufferWithSTDIN
libLLVM.so.11:LLVMCreateMessage
libLLVM.so.11:LLVMCreateModuleProviderForExistingModule
libLLVM.so.11:LLVMCreateOProfileJITEventListener
libLLVM.so.11:LLVMCreateObjectFile
libLLVM.so.11:LLVMCreatePassManager
libLLVM.so.11:LLVMCreatePerfJITEventListener
libLLVM.so.11:LLVMCreateSimpleMCJITMemoryManager
libLLVM.so.11:LLVMCreateStringAttribute
libLLVM.so.11:LLVMCreateTargetData
libLLVM.so.11:LLVMCreateTargetDataLayout
libLLVM.so.11:LLVMCreateTargetMachine
libLLVM.so.11:LLVMDIBuilderCreateArrayType
libLLVM.so.11:LLVMDIBuilderCreateArtificialType
libLLVM.so.11:LLVMDIBuilderCreateAutoVariable
libLLVM.so.11:LLVMDIBuilderCreateBasicType
libLLVM.so.11:LLVMDIBuilderCreateBitFieldMemberType
libLLVM.so.11:LLVMDIBuilderCreateClassType
libLLVM.so.11:LLVMDIBuilderCreateCompileUnit
libLLVM.so.11:LLVMDIBuilderCreateConstantValueExpression
libLLVM.so.11:LLVMDIBuilderCreateDebugLocation
libLLVM.so.11:LLVMDIBuilderCreateEnumerationType
libLLVM.so.11:LLVMDIBuilderCreateEnumerator
libLLVM.so.11:LLVMDIBuilderCreateExpression
libLLVM.so.11:LLVMDIBuilderCreateFile
libLLVM.so.11:LLVMDIBuilderCreateForwardDecl
libLLVM.so.11:LLVMDIBuilderCreateFunction
libLLVM.so.11:LLVMDIBuilderCreateGlobalVariableExpression
libLLVM.so.11:LLVMDIBuilderCreateImportedDeclaration
libLLVM.so.11:LLVMDIBuilderCreateImportedModuleFromAlias
libLLVM.so.11:LLVMDIBuilderCreateImportedModuleFromModule
libLLVM.so.11:LLVMDIBuilderCreateImportedModuleFromNamespace
libLLVM.so.11:LLVMDIBuilderCreateInheritance
libLLVM.so.11:LLVMDIBuilderCreateLexicalBlock
libLLVM.so.11:LLVMDIBuilderCreateLexicalBlockFile
libLLVM.so.11:LLVMDIBuilderCreateMacro
libLLVM.so.11:LLVMDIBuilderCreateMemberPointerType
libLLVM.so.11:LLVMDIBuilderCreateMemberType
libLLVM.so.11:LLVMDIBuilderCreateModule
libLLVM.so.11:LLVMDIBuilderCreateNameSpace
libLLVM.so.11:LLVMDIBuilderCreateNullPtrType
libLLVM.so.11:LLVMDIBuilderCreateObjCIVar
libLLVM.so.11:LLVMDIBuilderCreateObjCProperty
libLLVM.so.11:LLVMDIBuilderCreateObjectPointerType
libLLVM.so.11:LLVMDIBuilderCreateParameterVariable
libLLVM.so.11:LLVMDIBuilderCreatePointerType
libLLVM.so.11:LLVMDIBuilderCreateQualifiedType
libLLVM.so.11:LLVMDIBuilderCreateReferenceType
libLLVM.so.11:LLVMDIBuilderCreateReplaceableCompositeType
libLLVM.so.11:LLVMDIBuilderCreateStaticMemberType
libLLVM.so.11:LLVMDIBuilderCreateStructType
libLLVM.so.11:LLVMDIBuilderCreateSubroutineType
libLLVM.so.11:LLVMDIBuilderCreateTempGlobalVariableFwdDecl
libLLVM.so.11:LLVMDIBuilderCreateTempMacroFile
libLLVM.so.11:LLVMDIBuilderCreateTypedef
libLLVM.so.11:LLVMDIBuilderCreateUnionType
libLLVM.so.11:LLVMDIBuilderCreateUnspecifiedType
libLLVM.so.11:LLVMDIBuilderCreateVectorType
libLLVM.so.11:LLVMDIBuilderFinalize
libLLVM.so.11:LLVMDIBuilderGetOrCreateArray
libLLVM.so.11:LLVMDIBuilderGetOrCreateSubrange
libLLVM.so.11:LLVMDIBuilderGetOrCreateTypeArray
libLLVM.so.11:LLVMDIBuilderInsertDbgValueAtEnd
libLLVM.so.11:LLVMDIBuilderInsertDbgValueBefore
libLLVM.so.11:LLVMDIBuilderInsertDeclareAtEnd
libLLVM.so.11:LLVMDIBuilderInsertDeclareBefore
libLLVM.so.11:LLVMDIFileGetDirectory
libLLVM.so.11:LLVMDIFileGetFilename
libLLVM.so.11:LLVMDIFileGetSource
libLLVM.so.11:LLVMDIGlobalVariableExpressionGetExpression
libLLVM.so.11:LLVMDIGlobalVariableExpressionGetVariable
libLLVM.so.11:LLVMDILocationGetColumn
libLLVM.so.11:LLVMDILocationGetInlinedAt
libLLVM.so.11:LLVMDILocationGetLine
libLLVM.so.11:LLVMDILocationGetScope
libLLVM.so.11:LLVMDIScopeGetFile
libLLVM.so.11:LLVMDISubprogramGetLine
libLLVM.so.11:LLVMDITypeGetAlignInBits
libLLVM.so.11:LLVMDITypeGetFlags
libLLVM.so.11:LLVMDITypeGetLine
libLLVM.so.11:LLVMDITypeGetName
libLLVM.so.11:LLVMDITypeGetOffsetInBits
libLLVM.so.11:LLVMDITypeGetSizeInBits
libLLVM.so.11:LLVMDIVariableGetFile
libLLVM.so.11:LLVMDIVariableGetLine
libLLVM.so.11:LLVMDIVariableGetScope
libLLVM.so.11:LLVMDebugMetadataVersion
libLLVM.so.11:LLVMDeleteBasicBlock
libLLVM.so.11:LLVMDeleteFunction
libLLVM.so.11:LLVMDeleteGlobal
libLLVM.so.11:LLVMDisasmDispose
libLLVM.so.11:LLVMDisasmInstruction
libLLVM.so.11:LLVMDisposeBinary
libLLVM.so.11:LLVMDisposeBuilder
libLLVM.so.11:LLVMDisposeDIBuilder
libLLVM.so.11:LLVMDisposeErrorMessage
libLLVM.so.11:LLVMDisposeExecutionEngine
libLLVM.so.11:LLVMDisposeGenericValue
libLLVM.so.11:LLVMDisposeMCJITMemoryManager
libLLVM.so.11:LLVMDisposeMemoryBuffer
libLLVM.so.11:LLVMDisposeMessage
libLLVM.so.11:LLVMDisposeModule
libLLVM.so.11:LLVMDisposeModuleFlagsMetadata
libLLVM.so.11:LLVMDisposeModuleProvider
libLLVM.so.11:LLVMDisposeObjectFile
libLLVM.so.11:LLVMDisposePassManager
libLLVM.so.11:LLVMDisposeRelocationIterator
libLLVM.so.11:LLVMDisposeSectionIterator
libLLVM.so.11:LLVMDisposeSymbolIterator
libLLVM.so.11:LLVMDisposeTargetData
libLLVM.so.11:LLVMDisposeTargetMachine
libLLVM.so.11:LLVMDisposeTemporaryMDNode
libLLVM.so.11:LLVMDisposeValueMetadataEntries
libLLVM.so.11:LLVMDoubleType
libLLVM.so.11:LLVMDoubleTypeInContext
libLLVM.so.11:LLVMDumpModule
libLLVM.so.11:LLVMDumpType
libLLVM.so.11:LLVMDumpValue
libLLVM.so.11:LLVMElementAtOffset
libLLVM.so.11:LLVMEnablePrettyStackTrace
libLLVM.so.11:LLVMEraseGlobalIFunc
libLLVM.so.11:LLVMExecutionEngineGetErrMsg
libLLVM.so.11:LLVMFP128Type
libLLVM.so.11:LLVMFP128TypeInContext
libLLVM.so.11:LLVMFinalizeFunctionPassManager
libLLVM.so.11:LLVMFindFunction
libLLVM.so.11:LLVMFloatType
libLLVM.so.11:LLVMFloatTypeInContext
libLLVM.so.11:LLVMFreeMachineCodeForFunction
libLLVM.so.11:LLVMFunctionType
libLLVM.so.11:LLVMGenericValueIntWidth
libLLVM.so.11:LLVMGenericValueToFloat
libLLVM.so.11:LLVMGenericValueToInt
libLLVM.so.11:LLVMGenericValueToPointer
libLLVM.so.11:LLVMGetAlignment
libLLVM.so.11:LLVMGetAllocatedType
libLLVM.so.11:LLVMGetArgOperand
libLLVM.so.11:LLVMGetArrayLength
libLLVM.so.11:LLVMGetAsString
libLLVM.so.11:LLVMGetAtomicRMWBinOp
libLLVM.so.11:LLVMGetAttributeCountAtIndex
libLLVM.so.11:LLVMGetAttributesAtIndex
libLLVM.so.11:LLVMGetBasicBlockName
libLLVM.so.11:LLVMGetBasicBlockParent
libLLVM.so.11:LLVMGetBasicBlockTerminator
libLLVM.so.11:LLVMGetBasicBlocks
libLLVM.so.11:LLVMGetBitcodeModule
libLLVM.so.11:LLVMGetBitcodeModule2
libLLVM.so.11:LLVMGetBitcodeModuleInContext
libLLVM.so.11:LLVMGetBitcodeModuleInContext2
libLLVM.so.11:LLVMGetBufferSize
libLLVM.so.11:LLVMGetBufferStart
libLLVM.so.11:LLVMGetCallSiteAttributeCount
libLLVM.so.11:LLVMGetCallSiteAttributes
libLLVM.so.11:LLVMGetCallSiteEnumAttribute
libLLVM.so.11:LLVMGetCallSiteStringAttribute
libLLVM.so.11:LLVMGetCalledFunctionType
libLLVM.so.11:LLVMGetCalledValue
libLLVM.so.11:LLVMGetClause
libLLVM.so.11:LLVMGetCmpXchgFailureOrdering
libLLVM.so.11:LLVMGetCmpXchgSuccessOrdering
libLLVM.so.11:LLVMGetComdat
libLLVM.so.11:LLVMGetComdatSelectionKind
libLLVM.so.11:LLVMGetCondition
libLLVM.so.11:LLVMGetConstOpcode
libLLVM.so.11:LLVMGetCurrentDebugLocation
libLLVM.so.11:LLVMGetCurrentDebugLocation2
libLLVM.so.11:LLVMGetDLLStorageClass
libLLVM.so.11:LLVMGetDataLayout
libLLVM.so.11:LLVMGetDataLayoutStr
libLLVM.so.11:LLVMGetDebugLocColumn
libLLVM.so.11:LLVMGetDebugLocDirectory
libLLVM.so.11:LLVMGetDebugLocFilename
libLLVM.so.11:LLVMGetDebugLocLine
libLLVM.so.11:LLVMGetDefaultTargetTriple
libLLVM.so.11:LLVMGetDiagInfoDescription
libLLVM.so.11:LLVMGetDiagInfoSeverity
libLLVM.so.11:LLVMGetElementAsConstant
libLLVM.so.11:LLVMGetElementType
libLLVM.so.11:LLVMGetEntryBasicBlock
libLLVM.so.11:LLVMGetEnumAttributeAtIndex
libLLVM.so.11:LLVMGetEnumAttributeKind
libLLVM.so.11:LLVMGetEnumAttributeKindForName
libLLVM.so.11:LLVMGetEnumAttributeValue
libLLVM.so.11:LLVMGetErrorMessage
libLLVM.so.11:LLVMGetErrorTypeId
libLLVM.so.11:LLVMGetExecutionEngineTargetData
libLLVM.so.11:LLVMGetExecutionEngineTargetMachine
libLLVM.so.11:LLVMGetFCmpPredicate
libLLVM.so.11:LLVMGetFirstBasicBlock
libLLVM.so.11:LLVMGetFirstFunction
libLLVM.so.11:LLVMGetFirstGlobal
libLLVM.so.11:LLVMGetFirstGlobalAlias
libLLVM.so.11:LLVMGetFirstGlobalIFunc
libLLVM.so.11:LLVMGetFirstInstruction
libLLVM.so.11:LLVMGetFirstNamedMetadata
libLLVM.so.11:LLVMGetFirstParam
libLLVM.so.11:LLVMGetFirstTarget
libLLVM.so.11:LLVMGetFirstUse
libLLVM.so.11:LLVMGetFunctionAddress
libLLVM.so.11:LLVMGetFunctionCallConv
libLLVM.so.11:LLVMGetGC
libLLVM.so.11:LLVMGetGlobalContext
libLLVM.so.11:LLVMGetGlobalIFuncResolver
libLLVM.so.11:LLVMGetGlobalParent
libLLVM.so.11:LLVMGetGlobalPassRegistry
libLLVM.so.11:LLVMGetGlobalValueAddress
libLLVM.so.11:LLVMGetHandlers
libLLVM.so.11:LLVMGetHostCPUFeatures
libLLVM.so.11:LLVMGetHostCPUName
libLLVM.so.11:LLVMGetICmpPredicate
libLLVM.so.11:LLVMGetIncomingBlock
libLLVM.so.11:LLVMGetIncomingValue
libLLVM.so.11:LLVMGetIndices
libLLVM.so.11:LLVMGetInitializer
libLLVM.so.11:LLVMGetInlineAsm
libLLVM.so.11:LLVMGetInsertBlock
libLLVM.so.11:LLVMGetInstructionCallConv
libLLVM.so.11:LLVMGetInstructionOpcode
libLLVM.so.11:LLVMGetInstructionParent
libLLVM.so.11:LLVMGetIntTypeWidth
libLLVM.so.11:LLVMGetIntrinsicDeclaration
libLLVM.so.11:LLVMGetIntrinsicID
libLLVM.so.11:LLVMGetLastBasicBlock
libLLVM.so.11:LLVMGetLastEnumAttributeKind
libLLVM.so.11:LLVMGetLastFunction
libLLVM.so.11:LLVMGetLastGlobal
libLLVM.so.11:LLVMGetLastGlobalAlias
libLLVM.so.11:LLVMGetLastGlobalIFunc
libLLVM.so.11:LLVMGetLastInstruction
libLLVM.so.11:LLVMGetLastNamedMetadata
libLLVM.so.11:LLVMGetLastParam
libLLVM.so.11:LLVMGetLinkage
libLLVM.so.11:LLVMGetMDKindID
libLLVM.so.11:LLVMGetMDKindIDInContext
libLLVM.so.11:LLVMGetMDNodeNumOperands
libLLVM.so.11:LLVMGetMDNodeOperands
libLLVM.so.11:LLVMGetMDString
libLLVM.so.11:LLVMGetMaskValue
libLLVM.so.11:LLVMGetMetadata
libLLVM.so.11:LLVMGetMetadataKind
libLLVM.so.11:LLVMGetModuleContext
libLLVM.so.11:LLVMGetModuleDataLayout
libLLVM.so.11:LLVMGetModuleDebugMetadataVersion
libLLVM.so.11:LLVMGetModuleFlag
libLLVM.so.11:LLVMGetModuleIdentifier
libLLVM.so.11:LLVMGetModuleInlineAsm
libLLVM.so.11:LLVMGetNamedFunction
libLLVM.so.11:LLVMGetNamedGlobal
libLLVM.so.11:LLVMGetNamedGlobalAlias
libLLVM.so.11:LLVMGetNamedGlobalIFunc
libLLVM.so.11:LLVMGetNamedMetadata
libLLVM.so.11:LLVMGetNamedMetadataName
libLLVM.so.11:LLVMGetNamedMetadataNumOperands
libLLVM.so.11:LLVMGetNamedMetadataOperands
libLLVM.so.11:LLVMGetNextBasicBlock
libLLVM.so.11:LLVMGetNextFunction
libLLVM.so.11:LLVMGetNextGlobal
libLLVM.so.11:LLVMGetNextGlobalAlias
libLLVM.so.11:LLVMGetNextGlobalIFunc
libLLVM.so.11:LLVMGetNextInstruction
libLLVM.so.11:LLVMGetNextNamedMetadata
libLLVM.so.11:LLVMGetNextParam
libLLVM.so.11:LLVMGetNextTarget
libLLVM.so.11:LLVMGetNextUse
libLLVM.so.11:LLVMGetNormalDest
libLLVM.so.11:LLVMGetNumArgOperands
libLLVM.so.11:LLVMGetNumClauses
libLLVM.so.11:LLVMGetNumContainedTypes
libLLVM.so.11:LLVMGetNumHandlers
libLLVM.so.11:LLVMGetNumIndices
libLLVM.so.11:LLVMGetNumMaskElements
libLLVM.so.11:LLVMGetNumOperands
libLLVM.so.11:LLVMGetNumSuccessors
libLLVM.so.11:LLVMGetOperand
libLLVM.so.11:LLVMGetOperandUse
libLLVM.so.11:LLVMGetOrInsertComdat
libLLVM.so.11:LLVMGetOrInsertNamedMetadata
libLLVM.so.11:LLVMGetOrdering
libLLVM.so.11:LLVMGetParam
libLLVM.so.11:LLVMGetParamParent
libLLVM.so.11:LLVMGetParamTypes
libLLVM.so.11:LLVMGetParams
libLLVM.so.11:LLVMGetParentCatchSwitch
libLLVM.so.11:LLVMGetPersonalityFn
libLLVM.so.11:LLVMGetPointerAddressSpace
libLLVM.so.11:LLVMGetPointerToGlobal
libLLVM.so.11:LLVMGetPreviousBasicBlock
libLLVM.so.11:LLVMGetPreviousFunction
libLLVM.so.11:LLVMGetPreviousGlobal
libLLVM.so.11:LLVMGetPreviousGlobalAlias
libLLVM.so.11:LLVMGetPreviousGlobalIFunc
libLLVM.so.11:LLVMGetPreviousInstruction
libLLVM.so.11:LLVMGetPreviousNamedMetadata
libLLVM.so.11:LLVMGetPreviousParam
libLLVM.so.11:LLVMGetRelocationOffset
libLLVM.so.11:LLVMGetRelocationSymbol
libLLVM.so.11:LLVMGetRelocationType
libLLVM.so.11:LLVMGetRelocationTypeName
libLLVM.so.11:LLVMGetRelocationValueString
libLLVM.so.11:LLVMGetRelocations
libLLVM.so.11:LLVMGetReturnType
libLLVM.so.11:LLVMGetSection
libLLVM.so.11:LLVMGetSectionAddress
libLLVM.so.11:LLVMGetSectionContainsSymbol
libLLVM.so.11:LLVMGetSectionContents
libLLVM.so.11:LLVMGetSectionName
libLLVM.so.11:LLVMGetSectionSize
libLLVM.so.11:LLVMGetSections
libLLVM.so.11:LLVMGetSourceFileName
libLLVM.so.11:LLVMGetStringAttributeAtIndex
libLLVM.so.11:LLVMGetStringAttributeKind
libLLVM.so.11:LLVMGetStringAttributeValue
libLLVM.so.11:LLVMGetStringErrorTypeId
libLLVM.so.11:LLVMGetStructElementTypes
libLLVM.so.11:LLVMGetStructName
libLLVM.so.11:LLVMGetSubprogram
libLLVM.so.11:LLVMGetSubtypes
libLLVM.so.11:LLVMGetSuccessor
libLLVM.so.11:LLVMGetSwitchDefaultDest
libLLVM.so.11:LLVMGetSymbolAddress
libLLVM.so.11:LLVMGetSymbolName
libLLVM.so.11:LLVMGetSymbolSize
libLLVM.so.11:LLVMGetSymbols
libLLVM.so.11:LLVMGetTarget
libLLVM.so.11:LLVMGetTargetDescription
libLLVM.so.11:LLVMGetTargetFromName
libLLVM.so.11:LLVMGetTargetFromTriple
libLLVM.so.11:LLVMGetTargetMachineCPU
libLLVM.so.11:LLVMGetTargetMachineFeatureString
libLLVM.so.11:LLVMGetTargetMachineTarget
libLLVM.so.11:LLVMGetTargetMachineTriple
libLLVM.so.11:LLVMGetTargetName
libLLVM.so.11:LLVMGetThreadLocalMode
libLLVM.so.11:LLVMGetTypeByName
libLLVM.so.11:LLVMGetTypeContext
libLLVM.so.11:LLVMGetTypeKind
libLLVM.so.11:LLVMGetUndef
libLLVM.so.11:LLVMGetUndefMaskElem
libLLVM.so.11:LLVMGetUnnamedAddress
libLLVM.so.11:LLVMGetUnwindDest
libLLVM.so.11:LLVMGetUsedValue
libLLVM.so.11:LLVMGetUser
libLLVM.so.11:LLVMGetValueKind
libLLVM.so.11:LLVMGetValueName
libLLVM.so.11:LLVMGetValueName2
libLLVM.so.11:LLVMGetVectorSize
libLLVM.so.11:LLVMGetVisibility
libLLVM.so.11:LLVMGetVolatile
libLLVM.so.11:LLVMGetWeak
libLLVM.so.11:LLVMGlobalClearMetadata
libLLVM.so.11:LLVMGlobalCopyAllMetadata
libLLVM.so.11:LLVMGlobalEraseMetadata
libLLVM.so.11:LLVMGlobalGetValueType
libLLVM.so.11:LLVMGlobalSetMetadata
libLLVM.so.11:LLVMHalfType
libLLVM.so.11:LLVMHalfTypeInContext
libLLVM.so.11:LLVMHasMetadata
libLLVM.so.11:LLVMHasPersonalityFn
libLLVM.so.11:LLVMHasUnnamedAddr
libLLVM.so.11:LLVMInitializeAArch64AsmParser
libLLVM.so.11:LLVMInitializeAArch64AsmPrinter
libLLVM.so.11:LLVMInitializeAArch64Disassembler
libLLVM.so.11:LLVMInitializeAArch64Target
libLLVM.so.11:LLVMInitializeAArch64TargetInfo
libLLVM.so.11:LLVMInitializeAArch64TargetMC
libLLVM.so.11:LLVMInitializeAMDGPUAsmParser
libLLVM.so.11:LLVMInitializeAMDGPUAsmPrinter
libLLVM.so.11:LLVMInitializeAMDGPUDisassembler
libLLVM.so.11:LLVMInitializeAMDGPUTarget
libLLVM.so.11:LLVMInitializeAMDGPUTargetInfo
libLLVM.so.11:LLVMInitializeAMDGPUTargetMC
libLLVM.so.11:LLVMInitializeARMAsmParser
libLLVM.so.11:LLVMInitializeARMAsmPrinter
libLLVM.so.11:LLVMInitializeARMDisassembler
libLLVM.so.11:LLVMInitializeARMTarget
libLLVM.so.11:LLVMInitializeARMTargetInfo
libLLVM.so.11:LLVMInitializeARMTargetMC
libLLVM.so.11:LLVMInitializeAVRAsmParser
libLLVM.so.11:LLVMInitializeAVRAsmPrinter
libLLVM.so.11:LLVMInitializeAVRDisassembler
libLLVM.so.11:LLVMInitializeAVRTarget
libLLVM.so.11:LLVMInitializeAVRTargetInfo
libLLVM.so.11:LLVMInitializeAVRTargetMC
libLLVM.so.11:LLVMInitializeAggressiveInstCombiner
libLLVM.so.11:LLVMInitializeAnalysis
libLLVM.so.11:LLVMInitializeBPFAsmParser
libLLVM.so.11:LLVMInitializeBPFAsmPrinter
libLLVM.so.11:LLVMInitializeBPFDisassembler
libLLVM.so.11:LLVMInitializeBPFTarget
libLLVM.so.11:LLVMInitializeBPFTargetInfo
libLLVM.so.11:LLVMInitializeBPFTargetMC
libLLVM.so.11:LLVMInitializeCodeGen
libLLVM.so.11:LLVMInitializeCore
libLLVM.so.11:LLVMInitializeFunctionPassManager
libLLVM.so.11:LLVMInitializeHexagonAsmParser
libLLVM.so.11:LLVMInitializeHexagonAsmPrinter
libLLVM.so.11:LLVMInitializeHexagonDisassembler
libLLVM.so.11:LLVMInitializeHexagonTarget
libLLVM.so.11:LLVMInitializeHexagonTargetInfo
libLLVM.so.11:LLVMInitializeHexagonTargetMC
libLLVM.so.11:LLVMInitializeIPA
libLLVM.so.11:LLVMInitializeIPO
libLLVM.so.11:LLVMInitializeInstCombine
libLLVM.so.11:LLVMInitializeInstrumentation
libLLVM.so.11:LLVMInitializeLanaiAsmParser
libLLVM.so.11:LLVMInitializeLanaiAsmPrinter
libLLVM.so.11:LLVMInitializeLanaiDisassembler
libLLVM.so.11:LLVMInitializeLanaiTarget
libLLVM.so.11:LLVMInitializeLanaiTargetInfo
libLLVM.so.11:LLVMInitializeLanaiTargetMC
libLLVM.so.11:LLVMInitializeMCJITCompilerOptions
libLLVM.so.11:LLVMInitializeMSP430AsmParser
libLLVM.so.11:LLVMInitializeMSP430AsmPrinter
libLLVM.so.11:LLVMInitializeMSP430Disassembler
libLLVM.so.11:LLVMInitializeMSP430Target
libLLVM.so.11:LLVMInitializeMSP430TargetInfo
libLLVM.so.11:LLVMInitializeMSP430TargetMC
libLLVM.so.11:LLVMInitializeMipsAsmParser
libLLVM.so.11:LLVMInitializeMipsAsmPrinter
libLLVM.so.11:LLVMInitializeMipsDisassembler
libLLVM.so.11:LLVMInitializeMipsTarget
libLLVM.so.11:LLVMInitializeMipsTargetInfo
libLLVM.so.11:LLVMInitializeMipsTargetMC
libLLVM.so.11:LLVMInitializeNVPTXAsmPrinter
libLLVM.so.11:LLVMInitializeNVPTXTarget
libLLVM.so.11:LLVMInitializeNVPTXTargetInfo
libLLVM.so.11:LLVMInitializeNVPTXTargetMC
libLLVM.so.11:LLVMInitializeObjCARCOpts
libLLVM.so.11:LLVMInitializePowerPCAsmParser
libLLVM.so.11:LLVMInitializePowerPCAsmPrinter
libLLVM.so.11:LLVMInitializePowerPCDisassembler
libLLVM.so.11:LLVMInitializePowerPCTarget
libLLVM.so.11:LLVMInitializePowerPCTargetInfo
libLLVM.so.11:LLVMInitializePowerPCTargetMC
libLLVM.so.11:LLVMInitializeRISCVAsmParser
libLLVM.so.11:LLVMInitializeRISCVAsmPrinter
libLLVM.so.11:LLVMInitializeRISCVDisassembler
libLLVM.so.11:LLVMInitializeRISCVTarget
libLLVM.so.11:LLVMInitializeRISCVTargetInfo
libLLVM.so.11:LLVMInitializeRISCVTargetMC
libLLVM.so.11:LLVMInitializeScalarOpts
libLLVM.so.11:LLVMInitializeSparcAsmParser
libLLVM.so.11:LLVMInitializeSparcAsmPrinter
libLLVM.so.11:LLVMInitializeSparcDisassembler
libLLVM.so.11:LLVMInitializeSparcTarget
libLLVM.so.11:LLVMInitializeSparcTargetInfo
libLLVM.so.11:LLVMInitializeSparcTargetMC
libLLVM.so.11:LLVMInitializeSystemZAsmParser
libLLVM.so.11:LLVMInitializeSystemZAsmPrinter
libLLVM.so.11:LLVMInitializeSystemZDisassembler
libLLVM.so.11:LLVMInitializeSystemZTarget
libLLVM.so.11:LLVMInitializeSystemZTargetInfo
libLLVM.so.11:LLVMInitializeSystemZTargetMC
libLLVM.so.11:LLVMInitializeTarget
libLLVM.so.11:LLVMInitializeTransformUtils
libLLVM.so.11:LLVMInitializeVectorization
libLLVM.so.11:LLVMInitializeWebAssemblyAsmParser
libLLVM.so.11:LLVMInitializeWebAssemblyAsmPrinter
libLLVM.so.11:LLVMInitializeWebAssemblyDisassembler
libLLVM.so.11:LLVMInitializeWebAssemblyTarget
libLLVM.so.11:LLVMInitializeWebAssemblyTargetInfo
libLLVM.so.11:LLVMInitializeWebAssemblyTargetMC
libLLVM.so.11:LLVMInitializeX86AsmParser
libLLVM.so.11:LLVMInitializeX86AsmPrinter
libLLVM.so.11:LLVMInitializeX86Disassembler
libLLVM.so.11:LLVMInitializeX86Target
libLLVM.so.11:LLVMInitializeX86TargetInfo
libLLVM.so.11:LLVMInitializeX86TargetMC
libLLVM.so.11:LLVMInitializeXCoreAsmPrinter
libLLVM.so.11:LLVMInitializeXCoreDisassembler
libLLVM.so.11:LLVMInitializeXCoreTarget
libLLVM.so.11:LLVMInitializeXCoreTargetInfo
libLLVM.so.11:LLVMInitializeXCoreTargetMC
libLLVM.so.11:LLVMInsertBasicBlock
libLLVM.so.11:LLVMInsertBasicBlockInContext
libLLVM.so.11:LLVMInsertExistingBasicBlockAfterInsertBlock
libLLVM.so.11:LLVMInsertIntoBuilder
libLLVM.so.11:LLVMInsertIntoBuilderWithName
libLLVM.so.11:LLVMInstallFatalErrorHandler
libLLVM.so.11:LLVMInstructionClone
libLLVM.so.11:LLVMInstructionEraseFromParent
libLLVM.so.11:LLVMInstructionGetAllMetadataOtherThanDebugLoc
libLLVM.so.11:LLVMInstructionGetDebugLoc
libLLVM.so.11:LLVMInstructionRemoveFromParent
libLLVM.so.11:LLVMInstructionSetDebugLoc
libLLVM.so.11:LLVMInt128Type
libLLVM.so.11:LLVMInt128TypeInContext
libLLVM.so.11:LLVMInt16Type
libLLVM.so.11:LLVMInt16TypeInContext
libLLVM.so.11:LLVMInt1Type
libLLVM.so.11:LLVMInt1TypeInContext
libLLVM.so.11:LLVMInt32Type
libLLVM.so.11:LLVMInt32TypeInContext
libLLVM.so.11:LLVMInt64Type
libLLVM.so.11:LLVMInt64TypeInContext
libLLVM.so.11:LLVMInt8Type
libLLVM.so.11:LLVMInt8TypeInContext
libLLVM.so.11:LLVMIntPtrType
libLLVM.so.11:LLVMIntPtrTypeForAS
libLLVM.so.11:LLVMIntPtrTypeForASInContext
libLLVM.so.11:LLVMIntPtrTypeInContext
libLLVM.so.11:LLVMIntType
libLLVM.so.11:LLVMIntTypeInContext
libLLVM.so.11:LLVMIntrinsicCopyOverloadedName
libLLVM.so.11:LLVMIntrinsicGetName
libLLVM.so.11:LLVMIntrinsicGetType
libLLVM.so.11:LLVMIntrinsicIsOverloaded
libLLVM.so.11:LLVMIsAAddrSpaceCastInst
libLLVM.so.11:LLVMIsAAllocaInst
libLLVM.so.11:LLVMIsAArgument
libLLVM.so.11:LLVMIsAAtomicCmpXchgInst
libLLVM.so.11:LLVMIsAAtomicRMWInst
libLLVM.so.11:LLVMIsABasicBlock
libLLVM.so.11:LLVMIsABinaryOperator
libLLVM.so.11:LLVMIsABitCastInst
libLLVM.so.11:LLVMIsABlockAddress
libLLVM.so.11:LLVMIsABranchInst
libLLVM.so.11:LLVMIsACallBrInst
libLLVM.so.11:LLVMIsACallInst
libLLVM.so.11:LLVMIsACastInst
libLLVM.so.11:LLVMIsACatchPadInst
libLLVM.so.11:LLVMIsACatchReturnInst
libLLVM.so.11:LLVMIsACatchSwitchInst
libLLVM.so.11:LLVMIsACleanupPadInst
libLLVM.so.11:LLVMIsACleanupReturnInst
libLLVM.so.11:LLVMIsACmpInst
libLLVM.so.11:LLVMIsAConstant
libLLVM.so.11:LLVMIsAConstantAggregateZero
libLLVM.so.11:LLVMIsAConstantArray
libLLVM.so.11:LLVMIsAConstantDataArray
libLLVM.so.11:LLVMIsAConstantDataSequential
libLLVM.so.11:LLVMIsAConstantDataVector
libLLVM.so.11:LLVMIsAConstantExpr
libLLVM.so.11:LLVMIsAConstantFP
libLLVM.so.11:LLVMIsAConstantInt
libLLVM.so.11:LLVMIsAConstantPointerNull
libLLVM.so.11:LLVMIsAConstantStruct
libLLVM.so.11:LLVMIsAConstantTokenNone
libLLVM.so.11:LLVMIsAConstantVector
libLLVM.so.11:LLVMIsADbgDeclareInst
libLLVM.so.11:LLVMIsADbgInfoIntrinsic
libLLVM.so.11:LLVMIsADbgLabelInst
libLLVM.so.11:LLVMIsADbgVariableIntrinsic
libLLVM.so.11:LLVMIsAExtractElementInst
libLLVM.so.11:LLVMIsAExtractValueInst
libLLVM.so.11:LLVMIsAFCmpInst
libLLVM.so.11:LLVMIsAFPExtInst
libLLVM.so.11:LLVMIsAFPToSIInst
libLLVM.so.11:LLVMIsAFPToUIInst
libLLVM.so.11:LLVMIsAFPTruncInst
libLLVM.so.11:LLVMIsAFenceInst
libLLVM.so.11:LLVMIsAFreezeInst
libLLVM.so.11:LLVMIsAFuncletPadInst
libLLVM.so.11:LLVMIsAFunction
libLLVM.so.11:LLVMIsAGetElementPtrInst
libLLVM.so.11:LLVMIsAGlobalAlias
libLLVM.so.11:LLVMIsAGlobalIFunc
libLLVM.so.11:LLVMIsAGlobalObject
libLLVM.so.11:LLVMIsAGlobalValue
libLLVM.so.11:LLVMIsAGlobalVariable
libLLVM.so.11:LLVMIsAICmpInst
libLLVM.so.11:LLVMIsAIndirectBrInst
libLLVM.so.11:LLVMIsAInlineAsm
libLLVM.so.11:LLVMIsAInsertElementInst
libLLVM.so.11:LLVMIsAInsertValueInst
libLLVM.so.11:LLVMIsAInstruction
libLLVM.so.11:LLVMIsAIntToPtrInst
libLLVM.so.11:LLVMIsAIntrinsicInst
libLLVM.so.11:LLVMIsAInvokeInst
libLLVM.so.11:LLVMIsALandingPadInst
libLLVM.so.11:LLVMIsALoadInst
libLLVM.so.11:LLVMIsAMDNode
libLLVM.so.11:LLVMIsAMDString
libLLVM.so.11:LLVMIsAMemCpyInst
libLLVM.so.11:LLVMIsAMemIntrinsic
libLLVM.so.11:LLVMIsAMemMoveInst
libLLVM.so.11:LLVMIsAMemSetInst
libLLVM.so.11:LLVMIsAPHINode
libLLVM.so.11:LLVMIsAPtrToIntInst
libLLVM.so.11:LLVMIsAResumeInst
libLLVM.so.11:LLVMIsAReturnInst
libLLVM.so.11:LLVMIsASExtInst
libLLVM.so.11:LLVMIsASIToFPInst
libLLVM.so.11:LLVMIsASelectInst
libLLVM.so.11:LLVMIsAShuffleVectorInst
libLLVM.so.11:LLVMIsAStoreInst
libLLVM.so.11:LLVMIsASwitchInst
libLLVM.so.11:LLVMIsATerminatorInst
libLLVM.so.11:LLVMIsATruncInst
libLLVM.so.11:LLVMIsAUIToFPInst
libLLVM.so.11:LLVMIsAUnaryInstruction
libLLVM.so.11:LLVMIsAUnaryOperator
libLLVM.so.11:LLVMIsAUndefValue
libLLVM.so.11:LLVMIsAUnreachableInst
libLLVM.so.11:LLVMIsAUser
libLLVM.so.11:LLVMIsAVAArgInst
libLLVM.so.11:LLVMIsAZExtInst
libLLVM.so.11:LLVMIsAtomicSingleThread
libLLVM.so.11:LLVMIsCleanup
libLLVM.so.11:LLVMIsConditional
libLLVM.so.11:LLVMIsConstant
libLLVM.so.11:LLVMIsConstantString
libLLVM.so.11:LLVMIsDeclaration
libLLVM.so.11:LLVMIsEnumAttribute
libLLVM.so.11:LLVMIsExternallyInitialized
libLLVM.so.11:LLVMIsFunctionVarArg
libLLVM.so.11:LLVMIsGlobalConstant
libLLVM.so.11:LLVMIsInBounds
libLLVM.so.11:LLVMIsLiteralStruct
libLLVM.so.11:LLVMIsMultithreaded
libLLVM.so.11:LLVMIsNull
libLLVM.so.11:LLVMIsOpaqueStruct
libLLVM.so.11:LLVMIsPackedStruct
libLLVM.so.11:LLVMIsRelocationIteratorAtEnd
libLLVM.so.11:LLVMIsSectionIteratorAtEnd
libLLVM.so.11:LLVMIsStringAttribute
libLLVM.so.11:LLVMIsSymbolIteratorAtEnd
libLLVM.so.11:LLVMIsTailCall
libLLVM.so.11:LLVMIsThreadLocal
libLLVM.so.11:LLVMIsUndef
libLLVM.so.11:LLVMLabelType
libLLVM.so.11:LLVMLabelTypeInContext
libLLVM.so.11:LLVMLinkInInterpreter
libLLVM.so.11:LLVMLinkInMCJIT
libLLVM.so.11:LLVMLinkInOrcMCJITReplacement
libLLVM.so.11:LLVMLinkModules2
libLLVM.so.11:LLVMLoadLibraryPermanently
libLLVM.so.11:LLVMLookupIntrinsicID
libLLVM.so.11:LLVMMDNode
libLLVM.so.11:LLVMMDNodeInContext
libLLVM.so.11:LLVMMDNodeInContext2
libLLVM.so.11:LLVMMDString
libLLVM.so.11:LLVMMDStringInContext
libLLVM.so.11:LLVMMDStringInContext2
libLLVM.so.11:LLVMMachOUniversalBinaryCopyObjectForArch
libLLVM.so.11:LLVMMetadataAsValue
libLLVM.so.11:LLVMMetadataReplaceAllUsesWith
libLLVM.so.11:LLVMMetadataTypeInContext
libLLVM.so.11:LLVMModuleCreateWithName
libLLVM.so.11:LLVMModuleCreateWithNameInContext
libLLVM.so.11:LLVMModuleFlagEntriesGetFlagBehavior
libLLVM.so.11:LLVMModuleFlagEntriesGetKey
libLLVM.so.11:LLVMModuleFlagEntriesGetMetadata
libLLVM.so.11:LLVMMoveBasicBlockAfter
libLLVM.so.11:LLVMMoveBasicBlockBefore
libLLVM.so.11:LLVMMoveToContainingSection
libLLVM.so.11:LLVMMoveToNextRelocation
libLLVM.so.11:LLVMMoveToNextSection
libLLVM.so.11:LLVMMoveToNextSymbol
libLLVM.so.11:LLVMNormalizeTargetTriple
libLLVM.so.11:LLVMObjectFileCopySectionIterator
libLLVM.so.11:LLVMObjectFileCopySymbolIterator
libLLVM.so.11:LLVMObjectFileIsSectionIteratorAtEnd
libLLVM.so.11:LLVMObjectFileIsSymbolIteratorAtEnd
libLLVM.so.11:LLVMOffsetOfElement
libLLVM.so.11:LLVMOrcAddEagerlyCompiledIR
libLLVM.so.11:LLVMOrcAddLazilyCompiledIR
libLLVM.so.11:LLVMOrcAddObjectFile
libLLVM.so.11:LLVMOrcCreateDynamicLibrarySearchGeneratorForProcess
libLLVM.so.11:LLVMOrcCreateIndirectStub
libLLVM.so.11:LLVMOrcCreateInstance
libLLVM.so.11:LLVMOrcCreateLLJIT
libLLVM.so.11:LLVMOrcCreateLLJITBuilder
libLLVM.so.11:LLVMOrcCreateLazyCompileCallback
libLLVM.so.11:LLVMOrcCreateNewThreadSafeContext
libLLVM.so.11:LLVMOrcCreateNewThreadSafeModule
libLLVM.so.11:LLVMOrcDisposeInstance
libLLVM.so.11:LLVMOrcDisposeJITDylibDefinitionGenerator
libLLVM.so.11:LLVMOrcDisposeJITTargetMachineBuilder
libLLVM.so.11:LLVMOrcDisposeLLJIT
libLLVM.so.11:LLVMOrcDisposeLLJITBuilder
libLLVM.so.11:LLVMOrcDisposeMangledSymbol
libLLVM.so.11:LLVMOrcDisposeThreadSafeContext
libLLVM.so.11:LLVMOrcDisposeThreadSafeModule
libLLVM.so.11:LLVMOrcExecutionSessionIntern
libLLVM.so.11:LLVMOrcGetErrorMsg
libLLVM.so.11:LLVMOrcGetMangledSymbol
libLLVM.so.11:LLVMOrcGetSymbolAddress
libLLVM.so.11:LLVMOrcGetSymbolAddressIn
libLLVM.so.11:LLVMOrcJITDylibAddGenerator
libLLVM.so.11:LLVMOrcJITTargetMachineBuilderDetectHost
libLLVM.so.11:LLVMOrcLLJITAddLLVMIRModule
libLLVM.so.11:LLVMOrcLLJITAddObjectFile
libLLVM.so.11:LLVMOrcLLJITBuilderSetJITTargetMachineBuilder
libLLVM.so.11:LLVMOrcLLJITGetExecutionSession
libLLVM.so.11:LLVMOrcLLJITGetGlobalPrefix
libLLVM.so.11:LLVMOrcLLJITGetMainJITDylib
libLLVM.so.11:LLVMOrcLLJITGetTripleString
libLLVM.so.11:LLVMOrcLLJITLookup
libLLVM.so.11:LLVMOrcLLJITMangleAndIntern
libLLVM.so.11:LLVMOrcRegisterJITEventListener
libLLVM.so.11:LLVMOrcReleaseSymbolStringPoolEntry
libLLVM.so.11:LLVMOrcRemoveModule
libLLVM.so.11:LLVMOrcSetIndirectStubPointer
libLLVM.so.11:LLVMOrcThreadSafeContextGetContext
libLLVM.so.11:LLVMOrcUnregisterJITEventListener
libLLVM.so.11:LLVMPPCFP128Type
libLLVM.so.11:LLVMPPCFP128TypeInContext
libLLVM.so.11:LLVMParseBitcode
libLLVM.so.11:LLVMParseBitcode2
libLLVM.so.11:LLVMParseBitcodeInContext
libLLVM.so.11:LLVMParseBitcodeInContext2
libLLVM.so.11:LLVMParseCommandLineOptions
libLLVM.so.11:LLVMParseIRInContext
libLLVM.so.11:LLVMPassManagerBuilderAddCoroutinePassesToExtensionPoints
libLLVM.so.11:LLVMPassManagerBuilderCreate
libLLVM.so.11:LLVMPassManagerBuilderDispose
libLLVM.so.11:LLVMPassManagerBuilderPopulateFunctionPassManager
libLLVM.so.11:LLVMPassManagerBuilderPopulateLTOPassManager
libLLVM.so.11:LLVMPassManagerBuilderPopulateModulePassManager
libLLVM.so.11:LLVMPassManagerBuilderSetDisableSimplifyLibCalls
libLLVM.so.11:LLVMPassManagerBuilderSetDisableUnitAtATime
libLLVM.so.11:LLVMPassManagerBuilderSetDisableUnrollLoops
libLLVM.so.11:LLVMPassManagerBuilderSetOptLevel
libLLVM.so.11:LLVMPassManagerBuilderSetSizeLevel
libLLVM.so.11:LLVMPassManagerBuilderUseInlinerWithThreshold
libLLVM.so.11:LLVMPointerSize
libLLVM.so.11:LLVMPointerSizeForAS
libLLVM.so.11:LLVMPointerType
libLLVM.so.11:LLVMPositionBuilder
libLLVM.so.11:LLVMPositionBuilderAtEnd
libLLVM.so.11:LLVMPositionBuilderBefore
libLLVM.so.11:LLVMPreferredAlignmentOfGlobal
libLLVM.so.11:LLVMPreferredAlignmentOfType
libLLVM.so.11:LLVMPrintModuleToFile
libLLVM.so.11:LLVMPrintModuleToString
libLLVM.so.11:LLVMPrintTypeToString
libLLVM.so.11:LLVMPrintValueToString
libLLVM.so.11:LLVMRecompileAndRelinkFunction
libLLVM.so.11:LLVMRemarkArgGetDebugLoc
libLLVM.so.11:LLVMRemarkArgGetKey
libLLVM.so.11:LLVMRemarkArgGetValue
libLLVM.so.11:LLVMRemarkDebugLocGetSourceColumn
libLLVM.so.11:LLVMRemarkDebugLocGetSourceFilePath
libLLVM.so.11:LLVMRemarkDebugLocGetSourceLine
libLLVM.so.11:LLVMRemarkEntryDispose
libLLVM.so.11:LLVMRemarkEntryGetDebugLoc
libLLVM.so.11:LLVMRemarkEntryGetFirstArg
libLLVM.so.11:LLVMRemarkEntryGetFunctionName
libLLVM.so.11:LLVMRemarkEntryGetHotness
libLLVM.so.11:LLVMRemarkEntryGetNextArg
libLLVM.so.11:LLVMRemarkEntryGetNumArgs
libLLVM.so.11:LLVMRemarkEntryGetPassName
libLLVM.so.11:LLVMRemarkEntryGetRemarkName
libLLVM.so.11:LLVMRemarkEntryGetType
libLLVM.so.11:LLVMRemarkParserCreateBitstream
libLLVM.so.11:LLVMRemarkParserCreateYAML
libLLVM.so.11:LLVMRemarkParserDispose
libLLVM.so.11:LLVMRemarkParserGetErrorMessage
libLLVM.so.11:LLVMRemarkParserGetNext
libLLVM.so.11:LLVMRemarkParserHasError
libLLVM.so.11:LLVMRemarkStringGetData
libLLVM.so.11:LLVMRemarkStringGetLen
libLLVM.so.11:LLVMRemoveBasicBlockFromParent
libLLVM.so.11:LLVMRemoveCallSiteEnumAttribute
libLLVM.so.11:LLVMRemoveCallSiteStringAttribute
libLLVM.so.11:LLVMRemoveEnumAttributeAtIndex
libLLVM.so.11:LLVMRemoveGlobalIFunc
libLLVM.so.11:LLVMRemoveModule
libLLVM.so.11:LLVMRemoveStringAttributeAtIndex
libLLVM.so.11:LLVMReplaceAllUsesWith
libLLVM.so.11:LLVMResetFatalErrorHandler
libLLVM.so.11:LLVMRunFunction
libLLVM.so.11:LLVMRunFunctionAsMain
libLLVM.so.11:LLVMRunFunctionPassManager
libLLVM.so.11:LLVMRunPassManager
libLLVM.so.11:LLVMRunStaticConstructors
libLLVM.so.11:LLVMRunStaticDestructors
libLLVM.so.11:LLVMSearchForAddressOfSymbol
libLLVM.so.11:LLVMSetAlignment
libLLVM.so.11:LLVMSetArgOperand
libLLVM.so.11:LLVMSetAtomicRMWBinOp
libLLVM.so.11:LLVMSetAtomicSingleThread
libLLVM.so.11:LLVMSetCleanup
libLLVM.so.11:LLVMSetCmpXchgFailureOrdering
libLLVM.so.11:LLVMSetCmpXchgSuccessOrdering
libLLVM.so.11:LLVMSetComdat
libLLVM.so.11:LLVMSetComdatSelectionKind
libLLVM.so.11:LLVMSetCondition
libLLVM.so.11:LLVMSetCurrentDebugLocation
libLLVM.so.11:LLVMSetCurrentDebugLocation2
libLLVM.so.11:LLVMSetDLLStorageClass
libLLVM.so.11:LLVMSetDataLayout
libLLVM.so.11:LLVMSetDisasmOptions
libLLVM.so.11:LLVMSetExternallyInitialized
libLLVM.so.11:LLVMSetFunctionCallConv
libLLVM.so.11:LLVMSetGC
libLLVM.so.11:LLVMSetGlobalConstant
libLLVM.so.11:LLVMSetGlobalIFuncResolver
libLLVM.so.11:LLVMSetInitializer
libLLVM.so.11:LLVMSetInstDebugLocation
libLLVM.so.11:LLVMSetInstrParamAlignment
libLLVM.so.11:LLVMSetInstructionCallConv
libLLVM.so.11:LLVMSetIsInBounds
libLLVM.so.11:LLVMSetLinkage
libLLVM.so.11:LLVMSetMetadata
libLLVM.so.11:LLVMSetModuleDataLayout
libLLVM.so.11:LLVMSetModuleIdentifier
libLLVM.so.11:LLVMSetModuleInlineAsm
libLLVM.so.11:LLVMSetModuleInlineAsm2
libLLVM.so.11:LLVMSetNormalDest
libLLVM.so.11:LLVMSetOperand
libLLVM.so.11:LLVMSetOrdering
libLLVM.so.11:LLVMSetParamAlignment
libLLVM.so.11:LLVMSetParentCatchSwitch
libLLVM.so.11:LLVMSetPersonalityFn
libLLVM.so.11:LLVMSetSection
libLLVM.so.11:LLVMSetSourceFileName
libLLVM.so.11:LLVMSetSubprogram
libLLVM.so.11:LLVMSetSuccessor
libLLVM.so.11:LLVMSetTailCall
libLLVM.so.11:LLVMSetTarget
libLLVM.so.11:LLVMSetTargetMachineAsmVerbosity
libLLVM.so.11:LLVMSetThreadLocal
libLLVM.so.11:LLVMSetThreadLocalMode
libLLVM.so.11:LLVMSetUnnamedAddr
libLLVM.so.11:LLVMSetUnnamedAddress
libLLVM.so.11:LLVMSetUnwindDest
libLLVM.so.11:LLVMSetValueName
libLLVM.so.11:LLVMSetValueName2
libLLVM.so.11:LLVMSetVisibility
libLLVM.so.11:LLVMSetVolatile
libLLVM.so.11:LLVMSetWeak
libLLVM.so.11:LLVMShutdown
libLLVM.so.11:LLVMSizeOf
libLLVM.so.11:LLVMSizeOfTypeInBits
libLLVM.so.11:LLVMStartMultithreaded
libLLVM.so.11:LLVMStopMultithreaded
libLLVM.so.11:LLVMStoreSizeOfType
libLLVM.so.11:LLVMStripModuleDebugInfo
libLLVM.so.11:LLVMStructCreateNamed
libLLVM.so.11:LLVMStructGetTypeAtIndex
libLLVM.so.11:LLVMStructSetBody
libLLVM.so.11:LLVMStructType
libLLVM.so.11:LLVMStructTypeInContext
libLLVM.so.11:LLVMTargetHasAsmBackend
libLLVM.so.11:LLVMTargetHasJIT
libLLVM.so.11:LLVMTargetHasTargetMachine
libLLVM.so.11:LLVMTargetMachineEmitToFile
libLLVM.so.11:LLVMTargetMachineEmitToMemoryBuffer
libLLVM.so.11:LLVMTemporaryMDNode
libLLVM.so.11:LLVMTokenTypeInContext
libLLVM.so.11:LLVMTypeIsSized
libLLVM.so.11:LLVMTypeOf
libLLVM.so.11:LLVMValueAsBasicBlock
libLLVM.so.11:LLVMValueAsMetadata
libLLVM.so.11:LLVMValueIsBasicBlock
libLLVM.so.11:LLVMValueMetadataEntriesGetKind
libLLVM.so.11:LLVMValueMetadataEntriesGetMetadata
libLLVM.so.11:LLVMVectorType
libLLVM.so.11:LLVMVerifyFunction
libLLVM.so.11:LLVMVerifyModule
libLLVM.so.11:LLVMViewFunctionCFG
libLLVM.so.11:LLVMViewFunctionCFGOnly
libLLVM.so.11:LLVMVoidType
libLLVM.so.11:LLVMVoidTypeInContext
libLLVM.so.11:LLVMWriteBitcodeToFD
libLLVM.so.11:LLVMWriteBitcodeToFile
libLLVM.so.11:LLVMWriteBitcodeToFileHandle
libLLVM.so.11:LLVMWriteBitcodeToMemoryBuffer
libLLVM.so.11:LLVMX86FP80Type
libLLVM.so.11:LLVMX86FP80TypeInContext
libLLVM.so.11:LLVMX86MMXType
libLLVM.so.11:LLVMX86MMXTypeInContext
libLLVM.so.11:LLVM_11
libLLVM.so.11:_Z19LLVMAddLoopSinkPassP21LLVMOpaquePassManager
libLLVM.so.11:_Z22getDefaultInlineAdviceRN4llvm8CallBaseERNS_15AnalysisManagerINS_8FunctionEJEEERKNS_12InlineParamsE
libLLVM.so.11:_Z24createDebugifyModulePassv
libLLVM.so.11:_Z25LLVMAddGVNHoistLegacyPassP21LLVMOpaquePassManager
libLLVM.so.11:_Z26LLVMAddLoopSimplifyCFGPassP21LLVMOpaquePassManager
libLLVM.so.11:_Z26createDebugifyFunctionPassv
libLLVM.so.11:_Z27computeHostNumPhysicalCoresv
libLLVM.so.11:_Z29computeHostNumHardwareThreadsv
libLLVM.so.11:_Z29createCheckDebugifyModulePassbN4llvm9StringRefEPNS_9MapVectorIS0_18DebugifyStatisticsNS_8DenseMapIS0_jNS_12DenseMapInfoIS0_EENS_6detail12DenseMapPairIS0_jEEEESt6vectorISt4pairIS0_S2_ESaISC_EEEE
libLLVM.so.11:_Z31createCheckDebugifyFunctionPassbN4llvm9StringRefEPNS_9MapVectorIS0_18DebugifyStatisticsNS_8DenseMapIS0_jNS_12DenseMapInfoIS0_EENS_6detail12DenseMapPairIS0_jEEEESt6vectorISt4pairIS0_S2_ESaISC_EEEE
libLLVM.so.11:_Z47LLVMOrcJITTargetMachineBuilderFromTargetMachineP23LLVMOpaqueTargetMachine
libLLVM.so.11:_ZN17NewPMDebugifyPass3runERN4llvm6ModuleERNS0_15AnalysisManagerIS1_JEEE
libLLVM.so.11:_ZN22NewPMCheckDebugifyPass3runERN4llvm6ModuleERNS0_15AnalysisManagerIS1_JEEE
libLLVM.so.11:_ZN4llvm10AANoReturn17createForPositionERKNS_10IRPositionERNS_10AttributorE
libLLVM.so.11:_ZN4llvm10AANoUnwind17createForPositionERKNS_10IRPositionERNS_10AttributorE
libLLVM.so.11:_ZN4llvm10AllocaInstC1EPNS_4TypeEjPNS_5ValueENS_5AlignERKNS_5TwineEPNS_10BasicBlockE
libLLVM.so.11:_ZN4llvm10AllocaInstC1EPNS_4TypeEjPNS_5ValueENS_5AlignERKNS_5TwineEPNS_11InstructionE
libLLVM.so.11:_ZN4llvm10AllocaInstC1EPNS_4TypeEjPNS_5ValueERKNS_5TwineEPNS_10BasicBlockE
libLLVM.so.11:_ZN4llvm10AllocaInstC1EPNS_4TypeEjPNS_5ValueERKNS_5TwineEPNS_11InstructionE
libLLVM.so.11:_ZN4llvm10AllocaInstC1EPNS_4TypeEjRKNS_5TwineEPNS_10BasicBlockE
libLLVM.so.11:_ZN4llvm10AllocaInstC1EPNS_4TypeEjRKNS_5TwineEPNS_11InstructionE
libLLVM.so.11:_ZN4llvm10AllocaInstC2EPNS_4TypeEjPNS_5ValueENS_5AlignERKNS_5TwineEPNS_10BasicBlockE
libLLVM.so.11:_ZN4llvm10AllocaInstC2EPNS_4TypeEjPNS_5ValueENS_5AlignERKNS_5TwineEPNS_11InstructionE
libLLVM.so.11:_ZN4llvm10AllocaInstC2EPNS_4TypeEjPNS_5ValueERKNS_5TwineEPNS_10BasicBlockE
libLLVM.so.11:_ZN4llvm10AllocaInstC2EPNS_4TypeEjPNS_5ValueERKNS_5TwineEPNS_11InstructionE
libLLVM.so.11:_ZN4llvm10AllocaInstC2EPNS_4TypeEjRKNS_5TwineEPNS_10BasicBlockE
libLLVM.so.11:_ZN4llvm10AllocaInstC2EPNS_4TypeEjRKNS_5TwineEPNS_11InstructionE
libLLVM.so.11:_ZN4llvm10AsmPrinter10recordSledEPNS_8MCSymbolERKNS_12MachineInstrENS0_8SledKindEh
libLLVM.so.11:_ZN4llvm10AsmPrinter13emitStackMapsERNS_9StackMapsE
libLLVM.so.11:_ZN4llvm10AsmPrinter13emitXRayTableEv
libLLVM.so.11:_ZN4llvm10AsmPrinter13lowerConstantEPKNS_8ConstantE
libLLVM.so.11:_ZN4llvm10AsmPrinter13needsSEHMovesEv
libLLVM.so.11:_ZN4llvm10AsmPrinter14EmitToStreamerERNS_10MCStreamerERKNS_6MCInstE
libLLVM.so.11:_ZN4llvm10AsmPrinter14doFinalizationERNS_6ModuleE
libLLVM.so.11:_ZN4llvm10AsmPrinter14emitFrameAllocERKNS_12MachineInstrE
libLLVM.so.11:_ZN4llvm10AsmPrinter14getGVAlignmentEPKNS_12GlobalObjectERKNS_10DataLayoutENS_5AlignE
libLLVM.so.11:_ZN4llvm10AsmPrinter15PrintAsmOperandEPKNS_12MachineInstrEjPKcRNS_11raw_ostreamE
libLLVM.so.11:_ZN4llvm10AsmPrinter15setDwarfVersionEt
libLLVM.so.11:_ZN4llvm10AsmPrinter16doInitializationERNS_6ModuleE
libLLVM.so.11:_ZN4llvm10AsmPrinter16emitConstantPoolEv
libLLVM.so.11:_ZN4llvm10AsmPrinter16emitFunctionBodyEv
libLLVM.so.11:_ZN4llvm10AsmPrinter16emitLLVMUsedListEPKNS_13ConstantArrayE
libLLVM.so.11:_ZN4llvm10AsmPrinter16emitModuleIdentsERNS_6ModuleE
libLLVM.so.11:_ZN4llvm10AsmPrinter17emitBasicBlockEndERKNS_17MachineBasicBlockE
libLLVM.so.11:_ZN4llvm10AsmPrinter17emitJumpTableInfoEv
libLLVM.so.11:_ZN4llvm10AsmPrinter18PrintSymbolOperandERKNS_14MachineOperandERNS_11raw_ostreamE
libLLVM.so.11:_ZN4llvm10AsmPrinter18emitCFIInstructionERKNS_12MachineInstrE
libLLVM.so.11:_ZN4llvm10AsmPrinter18emitFunctionHeaderEv
libLLVM.so.11:_ZN4llvm10AsmPrinter18emitGlobalConstantERKNS_10DataLayoutEPKNS_8ConstantE
libLLVM.so.11:_ZN4llvm10AsmPrinter18emitGlobalVariableEPKNS_14GlobalVariableE
libLLVM.so.11:_ZN4llvm10AsmPrinter18emitRemarksSectionERNS_7remarks14RemarkStreamerE
libLLVM.so.11:_ZN4llvm10AsmPrinter18emitXXStructorListERKNS_10DataLayoutEPKNS_8ConstantEb
libLLVM.so.11:_ZN4llvm10AsmPrinter18getCurExceptionSymEv
libLLVM.so.11:_ZN4llvm10AsmPrinter19emitBasicBlockStartERKNS_17MachineBasicBlockE
libLLVM.so.11:_ZN4llvm10AsmPrinter19emitGlobalGOTEquivsEv
libLLVM.so.11:_ZN4llvm10AsmPrinter20GetOrCreateGCPrinterERNS_10GCStrategyE
libLLVM.so.11:_ZN4llvm10AsmPrinter20SetupMachineFunctionERNS_15MachineFunctionE
libLLVM.so.11:_ZN4llvm10AsmPrinter20emitStackSizeSectionERKNS_15MachineFunctionE
libLLVM.so.11:_ZN4llvm10AsmPrinter21PrintAsmMemoryOperandEPKNS_12MachineInstrEjPKcRNS_11raw_ostreamE
libLLVM.so.11:_ZN4llvm10AsmPrinter21emitSpecialLLVMGlobalEPKNS_14GlobalVariableE
libLLVM.so.11:_ZN4llvm10AsmPrinter22computeGlobalGOTEquivsERNS_6ModuleE
libLLVM.so.11:_ZN4llvm10AsmPrinter22emitFunctionEntryLabelEv
libLLVM.so.11:_ZN4llvm10AsmPrinter22emitModuleCommandLinesERNS_6ModuleE
libLLVM.so.11:_ZN4llvm10AsmPrinter24emitGlobalIndirectSymbolERNS_6ModuleERKNS_20GlobalIndirectSymbolE
libLLVM.so.11:_ZN4llvm10AsmPrinter25emitFunctionHeaderCommentEv
libLLVM.so.11:_ZN4llvm10AsmPrinter28emitMachineConstantPoolValueEPNS_24MachineConstantPoolValueE
libLLVM.so.11:_ZN4llvm10AsmPrinter28emitPatchableFunctionEntriesEv
libLLVM.so.11:_ZN4llvm10AsmPrinter31emitInitialRawDwarfLocDirectiveERKNS_15MachineFunctionE
libLLVM.so.11:_ZN4llvm10AsmPrinter8emitNopsEj
libLLVM.so.11:_ZN4llvm10AsmPrinterC1ERNS_13TargetMachineESt10unique_ptrINS_10MCStreamerESt14default_deleteIS4_EE
libLLVM.so.11:_ZN4llvm10AsmPrinterC2ERNS_13TargetMachineESt10unique_ptrINS_10MCStreamerESt14default_deleteIS4_EE
libLLVM.so.11:_ZN4llvm10AsmPrinterD0Ev
libLLVM.so.11:_ZN4llvm10AsmPrinterD1Ev
libLLVM.so.11:_ZN4llvm10AsmPrinterD2Ev
libLLVM.so.11:_ZN4llvm10Attributor13isAssumedDeadERKNS_10IRPositionEPKNS_17AbstractAttributeEPKNS_8AAIsDeadEbNS_10DepClassTyE
libLLVM.so.11:_ZN4llvm10Attributor13isAssumedDeadERKNS_11InstructionEPKNS_17AbstractAttributeEPKNS_8AAIsDeadEbNS_10DepClassTyE
libLLVM.so.11:_ZN4llvm10Attributor13isAssumedDeadERKNS_17AbstractAttributeEPKNS_8AAIsDeadEbNS_10DepClassTyE
libLLVM.so.11:_ZN4llvm10Attributor13isAssumedDeadERKNS_3UseEPKNS_17AbstractAttributeEPKNS_8AAIsDeadEbNS_10DepClassTyE
libLLVM.so.11:_ZN4llvm10Attributor15checkForAllUsesENS_12function_refIFbRKNS_3UseERbEEERKNS_17AbstractAttributeERKNS_5ValueENS_10DepClassTyE
libLLVM.so.11:_ZN4llvm10Attributor15runTillFixpointEv
libLLVM.so.11:_ZN4llvm10Attributor16recordDependenceERKNS_17AbstractAttributeES3_NS_10DepClassTyE
libLLVM.so.11:_ZN4llvm10Attributor18getAssumedConstantERKNS_5ValueERKNS_17AbstractAttributeERb
libLLVM.so.11:_ZN4llvm10Attributor18manifestAttributesEv
libLLVM.so.11:_ZN4llvm10Attributor19rememberDependencesEv
libLLVM.so.11:_ZN4llvm10Attributor19shouldSeedAttributeERNS_17AbstractAttributeE
libLLVM.so.11:_ZN4llvm10Attributor20checkForAllCallSitesENS_12function_refIFbNS_16AbstractCallSiteEEEERKNS_17AbstractAttributeEbRb
libLLVM.so.11:_ZN4llvm10Attributor20checkForAllCallSitesENS_12function_refIFbNS_16AbstractCallSiteEEEERKNS_8FunctionEbPKNS_17AbstractAttributeERb
libLLVM.so.11:_ZN4llvm10Attributor23checkForAllInstructionsENS_12function_refIFbRNS_11InstructionEEEERKNS_17AbstractAttributeERKNS_8ArrayRefIjEEb
libLLVM.so.11:_ZN4llvm10Attributor25checkForAllReturnedValuesENS_12function_refIFbRNS_5ValueEEEERKNS_17AbstractAttributeE
libLLVM.so.11:_ZN4llvm10Attributor25rewriteFunctionSignaturesERNS_15SmallPtrSetImplIPNS_8FunctionEEE
libLLVM.so.11:_ZN4llvm10Attributor31isValidFunctionSignatureRewriteERNS_8ArgumentENS_8ArrayRefIPNS_4TypeEEE
libLLVM.so.11:_ZN4llvm10Attributor32checkForAllReadWriteInstructionsENS_12function_refIFbRNS_11InstructionEEEERNS_17AbstractAttributeE
libLLVM.so.11:_ZN4llvm10Attributor32registerFunctionSignatureRewriteERNS_8ArgumentENS_8ArrayRefIPNS_4TypeEEEOSt8functionIFvRKNS0_23ArgumentReplacementInfoERNS_8FunctionEPS1_EEOS7_IFvSA_NS_16AbstractCallSiteERNS_15SmallVectorImplIPNS_5ValueEEEEE
libLLVM.so.11:_ZN4llvm10Attributor33identifyDefaultAbstractAttributesERNS_8FunctionE
libLLVM.so.11:_ZN4llvm10Attributor39checkForAllReturnedValuesAndReturnInstsENS_12function_refIFbRNS_5ValueERKNS_14SmallSetVectorIPNS_10ReturnInstELj4EEEEEERKNS_17AbstractAttributeE
libLLVM.so.11:_ZN4llvm10Attributor3runEv
libLLVM.so.11:_ZN4llvm10Attributor8updateAAERNS_17AbstractAttributeE
libLLVM.so.11:_ZN4llvm10Attributor9cleanupIREv
libLLVM.so.11:_ZN4llvm10AttributorD1Ev
libLLVM.so.11:_ZN4llvm10AttributorD2Ev
libLLVM.so.11:_ZN4llvm10BasicBlock10insertIntoEPNS_8FunctionEPS0_
libLLVM.so.11:_ZN4llvm10BasicBlock10moveBeforeEPS0_
libLLVM.so.11:_ZN4llvm10BasicBlock15eraseFromParentEv
libLLVM.so.11:_ZN4llvm10BasicBlock15splitBasicBlockENS_14ilist_iteratorINS_12ilist_detail12node_optionsINS_11InstructionELb0ELb0EvEELb0ELb0EEERKNS_5TwineE
libLLVM.so.11:_ZN4llvm10BasicBlock16removeFromParentEv
libLLVM.so.11:_ZN4llvm10BasicBlock17dropAllReferencesEv
libLLVM.so.11:_ZN4llvm10BasicBlock17removePredecessorEPS0_b
libLLVM.so.11:_ZN4llvm10BasicBlock18replacePhiUsesWithEPS0_S1_
libLLVM.so.11:_ZN4llvm10BasicBlock19getValueSymbolTableEv
libLLVM.so.11:_ZN4llvm10BasicBlock20renumberInstructionsEv
libLLVM.so.11:_ZN4llvm10BasicBlock24instructionsWithoutDebugEv
libLLVM.so.11:_ZN4llvm10BasicBlock28replaceSuccessorsPhiUsesWithEPS0_
libLLVM.so.11:_ZN4llvm10BasicBlock28replaceSuccessorsPhiUsesWithEPS0_S1_
libLLVM.so.11:_ZN4llvm10BasicBlock4phisEv
libLLVM.so.11:_ZN4llvm10BasicBlock9moveAfterEPS0_
libLLVM.so.11:_ZN4llvm10BasicBlock9setParentEPNS_8FunctionE
libLLVM.so.11:_ZN4llvm10BasicBlockC1ERNS_11LLVMContextERKNS_5TwineEPNS_8FunctionEPS0_
libLLVM.so.11:_ZN4llvm10BasicBlockC2ERNS_11LLVMContextERKNS_5TwineEPNS_8FunctionEPS0_
libLLVM.so.11:_ZN4llvm10BasicBlockD1Ev
libLLVM.so.11:_ZN4llvm10BasicBlockD2Ev
libLLVM.so.11:_ZN4llvm10BranchInst14swapSuccessorsEv
libLLVM.so.11:_ZN4llvm10BranchInst8AssertOKEv
libLLVM.so.11:_ZN4llvm10BranchInstC1EPNS_10BasicBlockEPNS_11InstructionE
libLLVM.so.11:_ZN4llvm10BranchInstC1EPNS_10BasicBlockES2_
libLLVM.so.11:_ZN4llvm10BranchInstC1EPNS_10BasicBlockES2_PNS_5ValueEPNS_11InstructionE
libLLVM.so.11:_ZN4llvm10BranchInstC1EPNS_10BasicBlockES2_PNS_5ValueES2_
libLLVM.so.11:_ZN4llvm10BranchInstC1ERKS0_
libLLVM.so.11:_ZN4llvm10BranchInstC2EPNS_10BasicBlockEPNS_11InstructionE
libLLVM.so.11:_ZN4llvm10BranchInstC2EPNS_10BasicBlockES2_
libLLVM.so.11:_ZN4llvm10BranchInstC2EPNS_10BasicBlockES2_PNS_5ValueEPNS_11InstructionE
libLLVM.so.11:_ZN4llvm10BranchInstC2EPNS_10BasicBlockES2_PNS_5ValueES2_
libLLVM.so.11:_ZN4llvm10BranchInstC2ERKS0_
libLLVM.so.11:_ZN4llvm10CallBrInst23updateArgBlockAddressesEjPNS_10BasicBlockE
libLLVM.so.11:_ZN4llvm10CallBrInst4initEPNS_12FunctionTypeEPNS_5ValueEPNS_10BasicBlockENS_8ArrayRefIS6_EENS7_IS4_EENS7_INS_17OperandBundleDefTIS4_EEEERKNS_5TwineE
libLLVM.so.11:_ZN4llvm10CallBrInst6CreateEPS0_NS_8ArrayRefINS_17OperandBundleDefTIPNS_5ValueEEEEEPNS_11InstructionE
libLLVM.so.11:_ZN4llvm10CallBrInstC1ERKS0_
libLLVM.so.11:_ZN4llvm10CallBrInstC2ERKS0_
libLLVM.so.11:_ZN4llvm10CallbackVH6anchorEv
libLLVM.so.11:_ZN4llvm10ConstantFP11getInfinityEPNS_4TypeEb
libLLVM.so.11:_ZN4llvm10ConstantFP15getNegativeZeroEPNS_4TypeE
libLLVM.so.11:_ZN4llvm10ConstantFP19destroyConstantImplEv
libLLVM.so.11:_ZN4llvm10ConstantFP19isValueValidForTypeEPNS_4TypeERKNS_7APFloatE
libLLVM.so.11:_ZN4llvm10ConstantFP23getZeroValueForNegationEPNS_4TypeE
libLLVM.so.11:_ZN4llvm10ConstantFP3getEPNS_4TypeENS_9StringRefE
libLLVM.so.11:_ZN4llvm10ConstantFP3getEPNS_4TypeERKNS_7APFloatE
libLLVM.so.11:_ZN4llvm10ConstantFP3getEPNS_4TypeEd
libLLVM.so.11:_ZN4llvm10ConstantFP3getERNS_11LLVMContextERKNS_7APFloatE
libLLVM.so.11:_ZN4llvm10ConstantFP6getNaNEPNS_4TypeEby
libLLVM.so.11:_ZN4llvm10ConstantFP7getQNaNEPNS_4TypeEbPNS_5APIntE
libLLVM.so.11:_ZN4llvm10ConstantFP7getSNaNEPNS_4TypeEbPNS_5APIntE
libLLVM.so.11:_ZN4llvm10ConstantFPC1EPNS_4TypeERKNS_7APFloatE
libLLVM.so.11:_ZN4llvm10ConstantFPC2EPNS_4TypeERKNS_7APFloatE
libLLVM.so.11:_ZN4llvm10DDGBuilder10mergeNodesERNS_7DDGNodeES2_
libLLVM.so.11:_ZN4llvm10DILocation17getMergedLocationEPKS0_S2_
libLLVM.so.11:_ZN4llvm10DILocation18getMergedLocationsENS_8ArrayRefIPKS0_EE
libLLVM.so.11:_ZN4llvm10DILocation19decodeDiscriminatorEjRjS1_S1_
libLLVM.so.11:_ZN4llvm10DILocation19encodeDiscriminatorEjjj
libLLVM.so.11:_ZN4llvm10DILocation7getImplERNS_11LLVMContextEjjPNS_8MetadataES4_bNS3_11StorageTypeEb
libLLVM.so.11:_ZN4llvm10DILocationC1ERNS_11LLVMContextENS_8Metadata11StorageTypeEjjNS_8ArrayRefIPS3_EEb
libLLVM.so.11:_ZN4llvm10DILocationC2ERNS_11LLVMContextENS_8Metadata11StorageTypeEjjNS_8ArrayRefIPS3_EEb
libLLVM.so.11:_ZN4llvm10DISubrange7getImplERNS_11LLVMContextEPNS_8MetadataES4_S4_S4_NS3_11StorageTypeEb
libLLVM.so.11:_ZN4llvm10DISubrange7getImplERNS_11LLVMContextEPNS_8MetadataExNS3_11StorageTypeEb
libLLVM.so.11:_ZN4llvm10DISubrange7getImplERNS_11LLVMContextExxNS_8Metadata11StorageTypeEb
libLLVM.so.11:_ZN4llvm10DataLayout12setAlignmentENS_13AlignTypeEnumENS_5AlignES2_j
libLLVM.so.11:_ZN4llvm10DataLayout14parseSpecifierENS_9StringRefE
libLLVM.so.11:_ZN4llvm10DataLayout19setPointerAlignmentEjNS_5AlignES1_jj
libLLVM.so.11:_ZN4llvm10DataLayout20getManglingComponentERKNS_6TripleE
libLLVM.so.11:_ZN4llvm10DataLayout21findPointerLowerBoundEj
libLLVM.so.11:_ZN4llvm10DataLayout23findAlignmentLowerBoundENS_13AlignTypeEnumEj
libLLVM.so.11:_ZN4llvm10DataLayout4initEPKNS_6ModuleE
libLLVM.so.11:_ZN4llvm10DataLayout5clearEv
libLLVM.so.11:_ZN4llvm10DataLayout5resetENS_9StringRefE
libLLVM.so.11:_ZN4llvm10DataLayoutC1EPKNS_6ModuleE
libLLVM.so.11:_ZN4llvm10DataLayoutC2EPKNS_6ModuleE
libLLVM.so.11:_ZN4llvm10DataLayoutD1Ev
libLLVM.so.11:_ZN4llvm10DataLayoutD2Ev
libLLVM.so.11:_ZN4llvm10DwarfDebug11beginModuleEv
libLLVM.so.11:_ZN4llvm10DwarfDebug12addAccelNameERKNS_13DICompileUnitENS_9StringRefERKNS_3DIEE
libLLVM.so.11:_ZN4llvm10DwarfDebug12addAccelObjCERKNS_13DICompileUnitENS_9StringRefERKNS_3DIEE
libLLVM.so.11:_ZN4llvm10DwarfDebug12addAccelTypeERKNS_13DICompileUnitENS_9StringRefERKNS_3DIEEc
libLLVM.so.11:_ZN4llvm10DwarfDebug12emitDebugLocEv
libLLVM.so.11:_ZN4llvm10DwarfDebug12emitDebugStrEv
libLLVM.so.11:_ZN4llvm10DwarfDebug13emitAccelObjCEv
libLLVM.so.11:_ZN4llvm10DwarfDebug13emitDebugAddrEv
libLLVM.so.11:_ZN4llvm10DwarfDebug13emitDebugInfoEv
libLLVM.so.11:_ZN4llvm10DwarfDebug13emitMacroFileERNS_11DIMacroFileERNS_16DwarfCompileUnitE
libLLVM.so.11:_ZN4llvm10DwarfDebug14emitAccelNamesEv
libLLVM.so.11:_ZN4llvm10DwarfDebug14emitAccelTypesEv
libLLVM.so.11:_ZN4llvm10DwarfDebug15emitDebugLocDWOEv
libLLVM.so.11:_ZN4llvm10DwarfDebug15emitDebugRangesEv
libLLVM.so.11:_ZN4llvm10DwarfDebug15emitDebugStrDWOEv
libLLVM.so.11:_ZN4llvm10DwarfDebug15endFunctionImplEPKNS_15MachineFunctionE
libLLVM.so.11:_ZN4llvm10DwarfDebug15getDwoLineTableERKNS_16DwarfCompileUnitE
libLLVM.so.11:_ZN4llvm10DwarfDebug15getSectionLabelEPKNS_9MCSectionE
libLLVM.so.11:_ZN4llvm10DwarfDebug16beginInstructionEPKNS_12MachineInstrE
libLLVM.so.11:_ZN4llvm10DwarfDebug16emitDebugARangesEv
libLLVM.so.11:_ZN4llvm10DwarfDebug16emitDebugInfoDWOEv
libLLVM.so.11:_ZN4llvm10DwarfDebug16emitDebugLineDWOEv
libLLVM.so.11:_ZN4llvm10DwarfDebug16emitDebugLocImplEPNS_9MCSectionE
libLLVM.so.11:_ZN4llvm10DwarfDebug16emitDebugMacinfoEv
libLLVM.so.11:_ZN4llvm10DwarfDebug16handleMacroNodesENS_24MDTupleTypedArrayWrapperINS_11DIMacroNodeEEERNS_16DwarfCompileUnitE
libLLVM.so.11:_ZN4llvm10DwarfDebug16initSkeletonUnitERKNS_9DwarfUnitERNS_3DIEESt10unique_ptrINS_16DwarfCompileUnitESt14default_deleteIS7_EE
libLLVM.so.11:_ZN4llvm10DwarfDebug16recordSourceLineEjjPKNS_6MDNodeEj
libLLVM.so.11:_ZN4llvm10DwarfDebug17addAccelNamespaceERKNS_13DICompileUnitENS_9StringRefERKNS_3DIEE
libLLVM.so.11:_ZN4llvm10DwarfDebug17beginFunctionImplEPKNS_15MachineFunctionE
libLLVM.so.11:_ZN4llvm10DwarfDebug17buildLocationListERNS_15SmallVectorImplINS_13DebugLocEntryEEERKNS_11SmallVectorINS_18DbgValueHistoryMap5EntryELj4EEERNS_8DenseSetIPKNS_17MachineBasicBlockENS_12DenseMapInfoISE_EEEE
libLLVM.so.11:_ZN4llvm10DwarfDebug17collectEntityInfoERNS_16DwarfCompileUnitEPKNS_12DISubprogramERNS_8DenseSetISt4pairIPKNS_6DINodeEPKNS_10DILocationEENS_12DenseMapInfoISE_EEEE
libLLVM.so.11:_ZN4llvm10DwarfDebug17emitAbbreviationsEv
libLLVM.so.11:_ZN4llvm10DwarfDebug17emitDebugLocEntryERNS_12ByteStreamerERKNS_14DebugLocStream5EntryEPKNS_16DwarfCompileUnitE
libLLVM.so.11:_ZN4llvm10DwarfDebug17emitDebugLocValueERKNS_10AsmPrinterEPKNS_11DIBasicTypeERKNS_11DbgValueLocERNS_15DwarfExpressionE
libLLVM.so.11:_ZN4llvm10DwarfDebug17emitMacroFileImplERNS_11DIMacroFileERNS_16DwarfCompileUnitEjjPFNS_9StringRefEjE
libLLVM.so.11:_ZN4llvm10DwarfDebug17makeTypeSignatureENS_9StringRefE
libLLVM.so.11:_ZN4llvm10DwarfDebug18NonTypeUnitContextC1EPS0_
libLLVM.so.11:_ZN4llvm10DwarfDebug18NonTypeUnitContextC2EPS0_
libLLVM.so.11:_ZN4llvm10DwarfDebug18NonTypeUnitContextD1Ev
libLLVM.so.11:_ZN4llvm10DwarfDebug18NonTypeUnitContextD2Ev
libLLVM.so.11:_ZN4llvm10DwarfDebug18addSubprogramNamesERKNS_13DICompileUnitEPKNS_12DISubprogramERNS_3DIEE
libLLVM.so.11:_ZN4llvm10DwarfDebug18emitDebugAbbrevDWOEv
libLLVM.so.11:_ZN4llvm10DwarfDebug18emitDebugRangesDWOEv
libLLVM.so.11:_ZN4llvm10DwarfDebug18finalizeModuleInfoEv
libLLVM.so.11:_ZN4llvm10DwarfDebug18insertSectionLabelEPKNS_8MCSymbolE
libLLVM.so.11:_ZN4llvm10DwarfDebug19constructSkeletonCUERKNS_16DwarfCompileUnitE
libLLVM.so.11:_ZN4llvm10DwarfDebug19emitAccelDebugNamesEv
libLLVM.so.11:_ZN4llvm10DwarfDebug19emitAccelNamespacesEv
libLLVM.so.11:_ZN4llvm10DwarfDebug19emitDebugMacinfoDWOEv
libLLVM.so.11:_ZN4llvm10DwarfDebug19emitDebugPubSectionEbNS_9StringRefEPNS_16DwarfCompileUnitERKNS_9StringMapIPKNS_3DIEENS_15MallocAllocatorEEE
libLLVM.so.11:_ZN4llvm10DwarfDebug19emitDebugRangesImplERKNS_9DwarfFileEPNS_9MCSectionE
libLLVM.so.11:_ZN4llvm10DwarfDebug20addDwarfTypeUnitTypeERNS_16DwarfCompileUnitENS_9StringRefERNS_3DIEEPKNS_15DICompositeTypeE
libLLVM.so.11:_ZN4llvm10DwarfDebug20createConcreteEntityERNS_16DwarfCompileUnitERNS_12LexicalScopeEPKNS_6DINodeEPKNS_10DILocationEPKNS_8MCSymbolE
libLLVM.so.11:_ZN4llvm10DwarfDebug20emitDebugMacinfoImplEPNS_9MCSectionE
libLLVM.so.11:_ZN4llvm10DwarfDebug20emitDebugPubSectionsEv
libLLVM.so.11:_ZN4llvm10DwarfDebug20emitSectionReferenceERKNS_16DwarfCompileUnitE
libLLVM.so.11:_ZN4llvm10DwarfDebug20finishUnitAttributesEPKNS_13DICompileUnitERNS_16DwarfCompileUnitE
libLLVM.so.11:_ZN4llvm10DwarfDebug21isLexicalScopeDIENullEPNS_12LexicalScopeE
libLLVM.so.11:_ZN4llvm10DwarfDebug23emitInitialLocDirectiveERKNS_15MachineFunctionEj
libLLVM.so.11:_ZN4llvm10DwarfDebug23enterNonTypeUnitContextEv
libLLVM.so.11:_ZN4llvm10DwarfDebug23finishEntityDefinitionsEv
libLLVM.so.11:_ZN4llvm10DwarfDebug23skippedNonDebugFunctionEv
libLLVM.so.11:_ZN4llvm10DwarfDebug25emitDebugLocEntryLocationERKNS_14DebugLocStream5EntryEPKNS_16DwarfCompileUnitE
libLLVM.so.11:_ZN4llvm10DwarfDebug26constructCallSiteEntryDIEsERKNS_12DISubprogramERNS_16DwarfCompileUnitERNS_3DIEERKNS_15MachineFunctionE
libLLVM.so.11:_ZN4llvm10DwarfDebug27finishSubprogramDefinitionsEv
libLLVM.so.11:_ZN4llvm10DwarfDebug27getOrCreateDwarfCompileUnitEPKNS_13DICompileUnitE
libLLVM.so.11:_ZN4llvm10DwarfDebug28emitStringOffsetsTableHeaderEv
libLLVM.so.11:_ZN4llvm10DwarfDebug29ensureAbstractEntityIsCreatedERNS_16DwarfCompileUnitEPKNS_6DINodeEPKNS_6MDNodeE
libLLVM.so.11:_ZN4llvm10DwarfDebug30collectVariableInfoFromMFTableERNS_16DwarfCompileUnitERNS_8DenseSetISt4pairIPKNS_6DINodeEPKNS_10DILocationEENS_12DenseMapInfoISB_EEEE
libLLVM.so.11:_ZN4llvm10DwarfDebug31emitStringOffsetsTableHeaderDWOEv
libLLVM.so.11:_ZN4llvm10DwarfDebug32constructAndAddImportedEntityDIEERNS_16DwarfCompileUnitEPKNS_16DIImportedEntityE
libLLVM.so.11:_ZN4llvm10DwarfDebug32constructSubprogramDefinitionDIEEPKNS_12DISubprogramE
libLLVM.so.11:_ZN4llvm10DwarfDebug35constructAbstractSubprogramScopeDIEERNS_16DwarfCompileUnitEPNS_12LexicalScopeE
libLLVM.so.11:_ZN4llvm10DwarfDebug37ensureAbstractEntityIsCreatedIfScopedERNS_16DwarfCompileUnitEPKNS_6DINodeEPKNS_6MDNodeE
libLLVM.so.11:_ZN4llvm10DwarfDebug9emitMacroERNS_7DIMacroE
libLLVM.so.11:_ZN4llvm10DwarfDebug9endModuleEv
libLLVM.so.11:_ZN4llvm10DwarfDebugC1EPNS_10AsmPrinterEPNS_6ModuleE
libLLVM.so.11:_ZN4llvm10DwarfDebugC2EPNS_10AsmPrinterEPNS_6ModuleE
libLLVM.so.11:_ZN4llvm10DwarfDebugD0Ev
libLLVM.so.11:_ZN4llvm10DwarfDebugD1Ev
libLLVM.so.11:_ZN4llvm10DwarfDebugD2Ev
libLLVM.so.11:_ZN4llvm10FPToSIInstC1EPNS_5ValueEPNS_4TypeERKNS_5TwineEPNS_10BasicBlockE
libLLVM.so.11:_ZN4llvm10FPToSIInstC1EPNS_5ValueEPNS_4TypeERKNS_5TwineEPNS_11InstructionE
libLLVM.so.11:_ZN4llvm10FPToSIInstC2EPNS_5ValueEPNS_4TypeERKNS_5TwineEPNS_10BasicBlockE
libLLVM.so.11:_ZN4llvm10FPToSIInstC2EPNS_5ValueEPNS_4TypeERKNS_5TwineEPNS_11InstructionE
libLLVM.so.11:_ZN4llvm10FPToUIInstC1EPNS_5ValueEPNS_4TypeERKNS_5TwineEPNS_10BasicBlockE
libLLVM.so.11:_ZN4llvm10FPToUIInstC1EPNS_5ValueEPNS_4TypeERKNS_5TwineEPNS_11InstructionE
libLLVM.so.11:_ZN4llvm10FPToUIInstC2EPNS_5ValueEPNS_4TypeERKNS_5TwineEPNS_10BasicBlockE
libLLVM.so.11:_ZN4llvm10FPToUIInstC2EPNS_5ValueEPNS_4TypeERKNS_5TwineEPNS_11InstructionE
libLLVM.so.11:_ZN4llvm10FlattenCFGEPNS_10BasicBlockEPNS_9AAResultsE
libLLVM.so.11:_ZN4llvm10FreezeInstC1EPNS_5ValueERKNS_5TwineEPNS_10BasicBlockE
libLLVM.so.11:_ZN4llvm10FreezeInstC1EPNS_5ValueERKNS_5TwineEPNS_11InstructionE
libLLVM.so.11:_ZN4llvm10FreezeInstC2EPNS_5ValueERKNS_5TwineEPNS_10BasicBlockE
libLLVM.so.11:_ZN4llvm10FreezeInstC2EPNS_5ValueERKNS_5TwineEPNS_11InstructionE
libLLVM.so.11:_ZN4llvm10GCStrategyC1Ev
libLLVM.so.11:_ZN4llvm10GCStrategyC2Ev
libLLVM.so.11:_ZN4llvm10IPSCCPPass3runERNS_6ModuleERNS_15AnalysisManagerIS1_JEEE
libLLVM.so.11:_ZN4llvm10IRPosition6verifyEv
libLLVM.so.11:_ZN4llvm10InvokeInst4initEPNS_12FunctionTypeEPNS_5ValueEPNS_10BasicBlockES6_NS_8ArrayRefIS4_EENS7_INS_17OperandBundleDefTIS4_EEEERKNS_5TwineE
libLLVM.so.11:_ZN4llvm10InvokeInst6CreateEPS0_NS_8ArrayRefINS_17OperandBundleDefTIPNS_5ValueEEEEEPNS_11InstructionE
libLLVM.so.11:_ZN4llvm10InvokeInstC1ERKS0_
libLLVM.so.11:_ZN4llvm10InvokeInstC2ERKS0_
libLLVM.so.11:_ZN4llvm10LineEditor11loadHistoryEv
libLLVM.so.11:_ZN4llvm10LineEditor11saveHistoryEv
libLLVM.so.11:_ZN4llvm10LineEditor16CompleterConceptD0Ev
libLLVM.so.11:_ZN4llvm10LineEditor16CompleterConceptD1Ev
libLLVM.so.11:_ZN4llvm10LineEditor16CompleterConceptD2Ev
libLLVM.so.11:_ZN4llvm10LineEditor20ListCompleterConcept15getCommonPrefixB5cxx11ERKSt6vectorINS0_10CompletionESaIS3_EE
libLLVM.so.11:_ZN4llvm10LineEditor20ListCompleterConceptD0Ev
libLLVM.so.11:_ZN4llvm10LineEditor20ListCompleterConceptD1Ev
libLLVM.so.11:_ZN4llvm10LineEditor20ListCompleterConceptD2Ev
libLLVM.so.11:_ZN4llvm10LineEditor21getDefaultHistoryPathB5cxx11ENS_9StringRefE
libLLVM.so.11:_ZN4llvm10LineEditorC1ENS_9StringRefES1_P8_IO_FILES3_S3_
libLLVM.so.11:_ZN4llvm10LineEditorC2ENS_9StringRefES1_P8_IO_FILES3_S3_
libLLVM.so.11:_ZN4llvm10LineEditorD1Ev
libLLVM.so.11:_ZN4llvm10LineEditorD2Ev
libLLVM.so.11:_ZN4llvm10LiveRegSet4initERKNS_19MachineRegisterInfoE
libLLVM.so.11:_ZN4llvm10LiveRegSet5clearEv
libLLVM.so.11:_ZN4llvm10LiveStacks13releaseMemoryEv
libLLVM.so.11:_ZN4llvm10LiveStacks19getOrCreateIntervalEiPKNS_19TargetRegisterClassE
libLLVM.so.11:_ZN4llvm10LiveStacks20runOnMachineFunctionERNS_15MachineFunctionE
libLLVM.so.11:_ZN4llvm10MCAsmLexerC2Ev
libLLVM.so.11:_ZN4llvm10MCAsmLexerD0Ev
libLLVM.so.11:_ZN4llvm10MCAsmLexerD1Ev
libLLVM.so.11:_ZN4llvm10MCAsmLexerD2Ev
libLLVM.so.11:_ZN4llvm10MCFragment7destroyEv
libLLVM.so.11:_ZN4llvm10MCFragmentC1ENS0_12FragmentTypeEbPNS_9MCSectionE
libLLVM.so.11:_ZN4llvm10MCFragmentC2ENS0_12FragmentTypeEbPNS_9MCSectionE
libLLVM.so.11:_ZN4llvm10MCStreamer10endSectionEPNS_9MCSectionE
libLLVM.so.11:_ZN4llvm10MCStreamer10finishImplEv
libLLVM.so.11:_ZN4llvm10MCStreamer11emitCFILsdaEPKNS_8MCSymbolEj
libLLVM.so.11:_ZN4llvm10MCStreamer11emitELFSizeEPNS_8MCSymbolEPKNS_6MCExprE
libLLVM.so.11:_ZN4llvm10MCStreamer11emitRawTextERKNS_5TwineE
libLLVM.so.11:_ZN4llvm10MCStreamer12GetCommentOSEv
libLLVM.so.11:_ZN4llvm10MCStreamer12InitSectionsEb
libLLVM.so.11:_ZN4llvm10MCStreamer12emitCFILabelEv
libLLVM.so.11:_ZN4llvm10MCStreamer12emitIntValueEyj
libLLVM.so.11:_ZN4llvm10MCStreamer13SwitchSectionEPNS_9MCSectionEPKNS_6MCExprE
libLLVM.so.11:_ZN4llvm10MCStreamer13changeSectionEPNS_9MCSectionEPKNS_6MCExprE
libLLVM.so.11:_ZN4llvm10MCStreamer13emitCFIDefCfaExx
libLLVM.so.11:_ZN4llvm10MCStreamer13emitCFIEscapeENS_9StringRefE
libLLVM.so.11:_ZN4llvm10MCStreamer13emitCFIOffsetExx
libLLVM.so.11:_ZN4llvm10MCStreamer13emitThumbFuncEPNS_8MCSymbolE
libLLVM.so.11:_ZN4llvm10MCStreamer13emitValueImplEPKNS_6MCExprEjNS_5SMLocE
libLLVM.so.11:_ZN4llvm10MCStreamer13visitUsedExprERKNS_6MCExprE
libLLVM.so.11:_ZN4llvm10MCStreamer14AssignFragmentEPNS_8MCSymbolEPNS_10MCFragmentE
libLLVM.so.11:_ZN4llvm10MCStreamer14emitAssignmentEPNS_8MCSymbolEPKNS_6MCExprE
libLLVM.so.11:_ZN4llvm10MCStreamer14emitBinaryDataENS_9StringRefE
libLLVM.so.11:_ZN4llvm10MCStreamer14emitBundleLockEb
libLLVM.so.11:_ZN4llvm10MCStreamer14emitCFIEndProcEv
libLLVM.so.11:_ZN4llvm10MCStreamer14emitCFIRestoreEx
libLLVM.so.11:_ZN4llvm10MCStreamer14emitRawCommentERKNS_5TwineEb
libLLVM.so.11:_ZN4llvm10MCStreamer14emitSymbolDescEPNS_8MCSymbolEj
libLLVM.so.11:_ZN4llvm10MCStreamer14emitTBSSSymbolEPNS_9MCSectionEPNS_8MCSymbolEyj
libLLVM.so.11:_ZN4llvm10MCStreamer15EmitCOFFSafeSEHEPKNS_8MCSymbolE
libLLVM.so.11:_ZN4llvm10MCStreamer15emitCFIRegisterExx
libLLVM.so.11:_ZN4llvm10MCStreamer15emitCFISectionsEbb
libLLVM.so.11:_ZN4llvm10MCStreamer15emitInstructionERKNS_6MCInstERKNS_15MCSubtargetInfoE
libLLVM.so.11:_ZN4llvm10MCStreamer15emitRawTextImplENS_9StringRefE
libLLVM.so.11:_ZN4llvm10MCStreamer15emitSymbolValueEPKNS_8MCSymbolEjb
libLLVM.so.11:_ZN4llvm10MCStreamer15visitUsedSymbolERKNS_8MCSymbolE
libLLVM.so.11:_ZN4llvm10MCStreamer16EmitCOFFImgRel32EPKNS_8MCSymbolEx
libLLVM.so.11:_ZN4llvm10MCStreamer16EmitCOFFSecRel32EPKNS_8MCSymbolEy
libLLVM.so.11:_ZN4llvm10MCStreamer16EmitWinEHHandlerEPKNS_8MCSymbolEbbNS_5SMLocE
libLLVM.so.11:_ZN4llvm10MCStreamer16EndCOFFSymbolDefEv
libLLVM.so.11:_ZN4llvm10MCStreamer16emitBundleUnlockEv
libLLVM.so.11:_ZN4llvm10MCStreamer16emitCFIBKeyFrameEv
libLLVM.so.11:_ZN4llvm10MCStreamer16emitCFIRelOffsetExx
libLLVM.so.11:_ZN4llvm10MCStreamer16emitCFISameValueEx
libLLVM.so.11:_ZN4llvm10MCStreamer16emitCFIStartProcEbNS_5SMLocE
libLLVM.so.11:_ZN4llvm10MCStreamer16emitCFIUndefinedEx
libLLVM.so.11:_ZN4llvm10MCStreamer16emitGPRel32ValueEPKNS_6MCExprE
libLLVM.so.11:_ZN4llvm10MCStreamer16emitGPRel64ValueEPKNS_6MCExprE
libLLVM.so.11:_ZN4llvm10MCStreamer16emitSLEB128ValueEPKNS_6MCExprE
libLLVM.so.11:_ZN4llvm10MCStreamer16emitTPRel32ValueEPKNS_6MCExprE
libLLVM.so.11:_ZN4llvm10MCStreamer16emitTPRel64ValueEPKNS_6MCExprE
libLLVM.so.11:_ZN4llvm10MCStreamer16emitULEB128ValueEPKNS_6MCExprE
libLLVM.so.11:_ZN4llvm10MCStreamer16getNumFrameInfosEv
libLLVM.so.11:_ZN4llvm10MCStreamer17EmitWinCFIEndProcENS_5SMLocE
libLLVM.so.11:_ZN4llvm10MCStreamer17EmitWinCFIPushRegENS_10MCRegisterENS_5SMLocE
libLLVM.so.11:_ZN4llvm10MCStreamer17EmitWinCFISaveRegENS_10MCRegisterEjNS_5SMLocE
libLLVM.so.11:_ZN4llvm10MCStreamer17EmitWinCFISaveXMMENS_10MCRegisterEjNS_5SMLocE
libLLVM.so.11:_ZN4llvm10MCStreamer17checkCVLocSectionEjjNS_5SMLocE
libLLVM.so.11:_ZN4llvm10MCStreamer17emitAssemblerFlagENS_15MCAssemblerFlagE
libLLVM.so.11:_ZN4llvm10MCStreamer17emitCFIWindowSaveEv
libLLVM.so.11:_ZN4llvm10MCStreamer17emitCodeAlignmentEjj
libLLVM.so.11:_ZN4llvm10MCStreamer17emitDTPRel32ValueEPKNS_6MCExprE
libLLVM.so.11:_ZN4llvm10MCStreamer17emitDTPRel64ValueEPKNS_6MCExprE
libLLVM.so.11:_ZN4llvm10MCStreamer17emitFileDirectiveENS_9StringRefE
libLLVM.so.11:_ZN4llvm10MCStreamer17emitValueToOffsetEPKNS_6MCExprEhNS_5SMLocE
libLLVM.so.11:_ZN4llvm10MCStreamer17emitWeakReferenceEPNS_8MCSymbolEPKS1_
libLLVM.so.11:_ZN4llvm10MCStreamer18BeginCOFFSymbolDefEPKNS_8MCSymbolE
libLLVM.so.11:_ZN4llvm10MCStreamer18EmitCOFFSymbolTypeEi
libLLVM.so.11:_ZN4llvm10MCStreamer18EmitWinCFISetFrameENS_10MCRegisterEjNS_5SMLocE
libLLVM.so.11:_ZN4llvm10MCStreamer18addExplicitCommentERKNS_5TwineE
libLLVM.so.11:_ZN4llvm10MCStreamer18emitCFIEndProcImplERNS_16MCDwarfFrameInfoE
libLLVM.so.11:_ZN4llvm10MCStreamer18emitCFIGnuArgsSizeEx
libLLVM.so.11:_ZN4llvm10MCStreamer18emitCFIPersonalityEPKNS_8MCSymbolEj
libLLVM.so.11:_ZN4llvm10MCStreamer18emitCFISignalFrameEv
libLLVM.so.11:_ZN4llvm10MCStreamer18emitCGProfileEntryEPKNS_15MCSymbolRefExprES3_y
libLLVM.so.11:_ZN4llvm10MCStreamer18emitCVLocDirectiveEjjjjbbNS_9StringRefENS_5SMLocE
libLLVM.so.11:_ZN4llvm10MCStreamer19EmitCOFFSymbolIndexEPKNS_8MCSymbolE
libLLVM.so.11:_ZN4llvm10MCStreamer19EmitCVFileDirectiveEjNS_9StringRefENS_8ArrayRefIhEEj
libLLVM.so.11:_ZN4llvm10MCStreamer19EmitWinCFIEndPrologENS_5SMLocE
libLLVM.so.11:_ZN4llvm10MCStreamer19EmitWinCFIPushFrameEbNS_5SMLocE
libLLVM.so.11:_ZN4llvm10MCStreamer19EmitWinCFIStartProcEPKNS_8MCSymbolENS_5SMLocE
libLLVM.so.11:_ZN4llvm10MCStreamer19emitBundleAlignModeEj
libLLVM.so.11:_ZN4llvm10MCStreamer19emitCFIDefCfaOffsetEx
libLLVM.so.11:_ZN4llvm10MCStreamer19emitCFIRestoreStateEv
libLLVM.so.11:_ZN4llvm10MCStreamer19emitCFIReturnColumnEx
libLLVM.so.11:_ZN4llvm10MCStreamer19emitEHSymAttributesEPKNS_8MCSymbolEPS1_
libLLVM.so.11:_ZN4llvm10MCStreamer19emitSLEB128IntValueEx
libLLVM.so.11:_ZN4llvm10MCStreamer19emitSyntaxDirectiveEv
libLLVM.so.11:_ZN4llvm10MCStreamer19emitULEB128IntValueEyj
libLLVM.so.11:_ZN4llvm10MCStreamer20EmitCOFFSectionIndexEPKNS_8MCSymbolE
libLLVM.so.11:_ZN4llvm10MCStreamer20EmitWinCFIAllocStackEjNS_5SMLocE
libLLVM.so.11:_ZN4llvm10MCStreamer20EmitWinCFIEndChainedENS_5SMLocE
libLLVM.so.11:_ZN4llvm10MCStreamer20EmitWinEHHandlerDataENS_5SMLocE
libLLVM.so.11:_ZN4llvm10MCStreamer20emitCFINegateRAStateEv
libLLVM.so.11:_ZN4llvm10MCStreamer20emitCFIRememberStateEv
libLLVM.so.11:_ZN4llvm10MCStreamer20emitCFIStartProcImplERNS_16MCDwarfFrameInfoE
libLLVM.so.11:_ZN4llvm10MCStreamer20emitExplicitCommentsEv
libLLVM.so.11:_ZN4llvm10MCStreamer20emitValueToAlignmentEjxjj
libLLVM.so.11:_ZN4llvm10MCStreamer20emitVersionForTargetERKNS_6TripleERKNS_12VersionTupleE
libLLVM.so.11:_ZN4llvm10MCStreamer21EmitCVFuncIdDirectiveEj
libLLVM.so.11:_ZN4llvm10MCStreamer21emitCFIDefCfaRegisterEx
libLLVM.so.11:_ZN4llvm10MCStreamer21emitDwarfLocDirectiveEjjjjjjNS_9StringRefE
libLLVM.so.11:_ZN4llvm10MCStreamer21emitLocalCommonSymbolEPNS_8MCSymbolEyj
libLLVM.so.11:_ZN4llvm10MCStreamer22EmitWinCFIStartChainedENS_5SMLocE
libLLVM.so.11:_ZN4llvm10MCStreamer22emitAbsoluteSymbolDiffEPKNS_8MCSymbolES3_j
libLLVM.so.11:_ZN4llvm10MCStreamer22emitCFIAdjustCfaOffsetEx
libLLVM.so.11:_ZN4llvm10MCStreamer22emitELFSymverDirectiveENS_9StringRefEPKNS_8MCSymbolE
libLLVM.so.11:_ZN4llvm10MCStreamer23EmitWindowsUnwindTablesEv
libLLVM.so.11:_ZN4llvm10MCStreamer23EnsureValidWinFrameInfoENS_5SMLocE
libLLVM.so.11:_ZN4llvm10MCStreamer23emitCVDefRangeDirectiveENS_8ArrayRefISt4pairIPKNS_8MCSymbolES5_EEENS_8codeview22DefRangeRegisterHeaderE
libLLVM.so.11:_ZN4llvm10MCStreamer23emitCVDefRangeDirectiveENS_8ArrayRefISt4pairIPKNS_8MCSymbolES5_EEENS_8codeview25DefRangeRegisterRelHeaderE
libLLVM.so.11:_ZN4llvm10MCStreamer23emitCVDefRangeDirectiveENS_8ArrayRefISt4pairIPKNS_8MCSymbolES5_EEENS_8codeview29DefRangeFramePointerRelHeaderE
libLLVM.so.11:_ZN4llvm10MCStreamer23emitCVDefRangeDirectiveENS_8ArrayRefISt4pairIPKNS_8MCSymbolES5_EEENS_8codeview30DefRangeSubfieldRegisterHeaderE
libLLVM.so.11:_ZN4llvm10MCStreamer23emitCVDefRangeDirectiveENS_8ArrayRefISt4pairIPKNS_8MCSymbolES5_EEENS_9StringRefE
libLLVM.so.11:_ZN4llvm10MCStreamer23emitDwarfFile0DirectiveENS_9StringRefES1_NS_8OptionalINS_3MD59MD5ResultEEENS2_IS1_EEj
libLLVM.so.11:_ZN4llvm10MCStreamer23getDwarfLineTableSymbolEj
libLLVM.so.11:_ZN4llvm10MCStreamer24emitCVLinetableDirectiveEjPKNS_8MCSymbolES3_
libLLVM.so.11:_ZN4llvm10MCStreamer24emitXCOFFRenameDirectiveEPKNS_8MCSymbolENS_9StringRefE
libLLVM.so.11:_ZN4llvm10MCStreamer24getCurrentDwarfFrameInfoEv
libLLVM.so.11:_ZN4llvm10MCStreamer25getAssociatedPDataSectionEPKNS_9MCSectionE
libLLVM.so.11:_ZN4llvm10MCStreamer25getAssociatedXDataSectionEPKNS_9MCSectionE
libLLVM.so.11:_ZN4llvm10MCStreamer25tryEmitDwarfFileDirectiveEjNS_9StringRefES1_NS_8OptionalINS_3MD59MD5ResultEEENS2_IS1_EEj
libLLVM.so.11:_ZN4llvm10MCStreamer26EmitCOFFSymbolStorageClassEi
libLLVM.so.11:_ZN4llvm10MCStreamer26EmitWinCFIFuncletOrFuncEndENS_5SMLocE
libLLVM.so.11:_ZN4llvm10MCStreamer26emitXCOFFLocalCommonSymbolEPNS_8MCSymbolEyS2_j
libLLVM.so.11:_ZN4llvm10MCStreamer27EmitCVInlineSiteIdDirectiveEjjjjjNS_5SMLocE
libLLVM.so.11:_ZN4llvm10MCStreamer27hasUnfinishedDwarfFrameInfoEv
libLLVM.so.11:_ZN4llvm10MCStreamer30emitCVInlineLinetableDirectiveEjjjPKNS_8MCSymbolES3_
libLLVM.so.11:_ZN4llvm10MCStreamer30generateCompactUnwindEncodingsEPNS_12MCAsmBackendE
libLLVM.so.11:_ZN4llvm10MCStreamer31emitAbsoluteSymbolDiffAsULEB128EPKNS_8MCSymbolES3_
libLLVM.so.11:_ZN4llvm10MCStreamer36emitXCOFFSymbolLinkageWithVisibilityEPNS_8MCSymbolENS_12MCSymbolAttrES3_
libLLVM.so.11:_ZN4llvm10MCStreamer5resetEv
libLLVM.so.11:_ZN4llvm10MCStreamer6FinishEv
libLLVM.so.11:_ZN4llvm10MCStreamer8emitFillERKNS_6MCExprExxNS_5SMLocE
libLLVM.so.11:_ZN4llvm10MCStreamer8emitFillERKNS_6MCExprEyNS_5SMLocE
libLLVM.so.11:_ZN4llvm10MCStreamer8emitFillEyh
libLLVM.so.11:_ZN4llvm10MCStreamer9emitBytesENS_9StringRefE
libLLVM.so.11:_ZN4llvm10MCStreamer9emitLabelEPNS_8MCSymbolENS_5SMLocE
libLLVM.so.11:_ZN4llvm10MCStreamer9emitValueEPKNS_6MCExprEjNS_5SMLocE
libLLVM.so.11:_ZN4llvm10MCStreamer9emitZerosEy
libLLVM.so.11:_ZN4llvm10MCStreamerC2ERNS_9MCContextE
libLLVM.so.11:_ZN4llvm10MCStreamerD0Ev
libLLVM.so.11:_ZN4llvm10MCStreamerD1Ev
libLLVM.so.11:_ZN4llvm10MCStreamerD2Ev
libLLVM.so.11:_ZN4llvm10MIRPrinter19convertStackObjectsERNS_4yaml15MachineFunctionERKNS_15MachineFunctionERNS_17ModuleSlotTrackerE
libLLVM.so.11:_ZN4llvm10MIRPrinter19initRegisterMaskIdsERKNS_15MachineFunctionE
libLLVM.so.11:_ZN4llvm10MIRPrinter22convertCallSiteObjectsERNS_4yaml15MachineFunctionERKNS_15MachineFunctionERNS_17ModuleSlotTrackerE
libLLVM.so.11:_ZN4llvm10MIRPrinter5printERKNS_15MachineFunctionE
libLLVM.so.11:_ZN4llvm10MIRPrinter7convertERNS_17ModuleSlotTrackerERNS_4yaml16MachineFrameInfoERKNS_16MachineFrameInfoE
libLLVM.so.11:_ZN4llvm10MIRPrinter7convertERNS_17ModuleSlotTrackerERNS_4yaml16MachineJumpTableERKNS_20MachineJumpTableInfoE
libLLVM.so.11:_ZN4llvm10MIRPrinter7convertERNS_4yaml15MachineFunctionERKNS_19MachineConstantPoolE
libLLVM.so.11:_ZN4llvm10MIRPrinter7convertERNS_4yaml15MachineFunctionERKNS_19MachineRegisterInfoEPKNS_18TargetRegisterInfoE
libLLVM.so.11:_ZN4llvm10ModulePass17assignPassManagerERNS_7PMStackENS_15PassManagerTypeE
libLLVM.so.11:_ZN4llvm10ModulePassD0Ev
libLLVM.so.11:_ZN4llvm10ModulePassD1Ev
libLLVM.so.11:_ZN4llvm10ModulePassD2Ev
libLLVM.so.11:_ZN4llvm10NewGVNPass3runERNS_8FunctionERNS_15AnalysisManagerIS1_JEEE
libLLVM.so.11:_ZN4llvm10PassPlugin4LoadERKNSt7__cxx1112basic_stringIcSt11char_traitsIcESaIcEEE
libLLVM.so.11:_ZN4llvm10RegionInfo10invalidateERNS_8FunctionERKNS_17PreservedAnalysesERNS_15AnalysisManagerIS1_JEE11InvalidatorE
libLLVM.so.11:_ZN4llvm10RegionInfo11recalculateERNS_8FunctionEPNS_13DominatorTreeEPNS_17PostDominatorTreeEPNS_17DominanceFrontierE
libLLVM.so.11:_ZN4llvm10RegionInfo16updateStatisticsEPNS_6RegionE
libLLVM.so.11:_ZN4llvm10RegionInfoC1Ev
libLLVM.so.11:_ZN4llvm10RegionInfoC2Ev
libLLVM.so.11:_ZN4llvm10RegionInfoD0Ev
libLLVM.so.11:_ZN4llvm10RegionInfoD1Ev
libLLVM.so.11:_ZN4llvm10RegionInfoD2Ev
libLLVM.so.11:_ZN4llvm10RegionPass17assignPassManagerERNS_7PMStackENS_15PassManagerTypeE
libLLVM.so.11:_ZN4llvm10RegionPass18preparePassManagerERNS_7PMStackE
libLLVM.so.11:_ZN4llvm10ResumeInstC1EPNS_5ValueEPNS_10BasicBlockE
libLLVM.so.11:_ZN4llvm10ResumeInstC1EPNS_5ValueEPNS_11InstructionE
libLLVM.so.11:_ZN4llvm10ResumeInstC1ERKS0_
libLLVM.so.11:_ZN4llvm10ResumeInstC2EPNS_5ValueEPNS_10BasicBlockE
libLLVM.so.11:_ZN4llvm10ResumeInstC2EPNS_5ValueEPNS_11InstructionE
libLLVM.so.11:_ZN4llvm10ResumeInstC2ERKS0_
libLLVM.so.11:_ZN4llvm10ReturnInstC1ERKS0_
libLLVM.so.11:_ZN4llvm10ReturnInstC1ERNS_11LLVMContextEPNS_10BasicBlockE
libLLVM.so.11:_ZN4llvm10ReturnInstC1ERNS_11LLVMContextEPNS_5ValueEPNS_10BasicBlockE
libLLVM.so.11:_ZN4llvm10ReturnInstC1ERNS_11LLVMContextEPNS_5ValueEPNS_11InstructionE
libLLVM.so.11:_ZN4llvm10ReturnInstC2ERKS0_
libLLVM.so.11:_ZN4llvm10ReturnInstC2ERNS_11LLVMContextEPNS_10BasicBlockE
libLLVM.so.11:_ZN4llvm10ReturnInstC2ERNS_11LLVMContextEPNS_5ValueEPNS_10BasicBlockE
libLLVM.so.11:_ZN4llvm10ReturnInstC2ERNS_11LLVMContextEPNS_5ValueEPNS_11InstructionE
libLLVM.so.11:_ZN4llvm10SIToFPInstC1EPNS_5ValueEPNS_4TypeERKNS_5TwineEPNS_10BasicBlockE
libLLVM.so.11:_ZN4llvm10SIToFPInstC1EPNS_5ValueEPNS_4TypeERKNS_5TwineEPNS_11InstructionE
libLLVM.so.11:_ZN4llvm10SIToFPInstC2EPNS_5ValueEPNS_4TypeERKNS_5TwineEPNS_10BasicBlockE
libLLVM.so.11:_ZN4llvm10SIToFPInstC2EPNS_5ValueEPNS_4TypeERKNS_5TwineEPNS_11InstructionE
libLLVM.so.11:_ZN4llvm10SMSchedule12computeStartEPNS_5SUnitEPiS3_S3_S3_iPNS_17SwingSchedulerDAGE
libLLVM.so.11:_ZN4llvm10SMSchedule13isLoopCarriedEPNS_17SwingSchedulerDAGERNS_12MachineInstrE
libLLVM.so.11:_ZN4llvm10SMSchedule15isValidScheduleEPNS_17SwingSchedulerDAGE
libLLVM.so.11:_ZN4llvm10SMSchedule15orderDependenceEPNS_17SwingSchedulerDAGEPNS_5SUnitERSt5dequeIS4_SaIS4_EE
libLLVM.so.11:_ZN4llvm10SMSchedule16finalizeScheduleEPNS_17SwingSchedulerDAGE
libLLVM.so.11:_ZN4llvm10SMSchedule18latestCycleInChainERKNS_4SDepE
libLLVM.so.11:_ZN4llvm10SMSchedule20earliestCycleInChainERKNS_4SDepE
libLLVM.so.11:_ZN4llvm10SMSchedule21isLoopCarriedDefOfUseEPNS_17SwingSchedulerDAGEPNS_12MachineInstrERNS_14MachineOperandE
libLLVM.so.11:_ZN4llvm10SMSchedule6insertEPNS_5SUnitEiii
libLLVM.so.11:_ZN4llvm10SSAUpdater10InitializeEPNS_4TypeENS_9StringRefE
libLLVM.so.11:_ZN4llvm10SSAUpdater10RewriteUseERNS_3UseE
libLLVM.so.11:_ZN4llvm10SSAUpdater17AddAvailableValueEPNS_10BasicBlockEPNS_5ValueE
libLLVM.so.11:_ZN4llvm10SSAUpdater20GetValueAtEndOfBlockEPNS_10BasicBlockE
libLLVM.so.11:_ZN4llvm10SSAUpdater23GetValueInMiddleOfBlockEPNS_10BasicBlockE
libLLVM.so.11:_ZN4llvm10SSAUpdater25RewriteUseAfterInsertionsERNS_3UseE
libLLVM.so.11:_ZN4llvm10SSAUpdater28GetValueAtEndOfBlockInternalEPNS_10BasicBlockE
libLLVM.so.11:_ZN4llvm10SSAUpdaterC1EPNS_15SmallVectorImplIPNS_7PHINodeEEE
libLLVM.so.11:_ZN4llvm10SSAUpdaterC2EPNS_15SmallVectorImplIPNS_7PHINodeEEE
libLLVM.so.11:_ZN4llvm10SSAUpdaterD1Ev
libLLVM.so.11:_ZN4llvm10SSAUpdaterD2Ev
libLLVM.so.11:_ZN4llvm10SelectInst18areInvalidOperandsEPNS_5ValueES2_S2_
libLLVM.so.11:_ZN4llvm10SplitBlockEPNS_10BasicBlockEPNS_11InstructionEPNS_13DominatorTreeEPNS_8LoopInfoEPNS_16MemorySSAUpdaterERKNS_5TwineE
libLLVM.so.11:_ZN4llvm10StructType18isValidElementTypeEPNS_4TypeE
libLLVM.so.11:_ZN4llvm10StructType3getERNS_11LLVMContextENS_8ArrayRefIPNS_4TypeEEEb
libLLVM.so.11:_ZN4llvm10StructType3getERNS_11LLVMContextEb
libLLVM.so.11:_ZN4llvm10StructType6createENS_8ArrayRefIPNS_4TypeEEE
libLLVM.so.11:_ZN4llvm10StructType6createENS_8ArrayRefIPNS_4TypeEEENS_9StringRefEb
libLLVM.so.11:_ZN4llvm10StructType6createERNS_11LLVMContextE
libLLVM.so.11:_ZN4llvm10StructType6createERNS_11LLVMContextENS_8ArrayRefIPNS_4TypeEEE
libLLVM.so.11:_ZN4llvm10StructType6createERNS_11LLVMContextENS_8ArrayRefIPNS_4TypeEEENS_9StringRefEb
libLLVM.so.11:_ZN4llvm10StructType6createERNS_11LLVMContextENS_9StringRefE
libLLVM.so.11:_ZN4llvm10StructType7setBodyENS_8ArrayRefIPNS_4TypeEEEb
libLLVM.so.11:_ZN4llvm10StructType7setNameENS_9StringRefE
libLLVM.so.11:_ZN4llvm10SuffixTree10insertLeafERNS_14SuffixTreeNodeEjj
libLLVM.so.11:_ZN4llvm10SuffixTree16setSuffixIndicesEv
libLLVM.so.11:_ZN4llvm10SuffixTree18insertInternalNodeEPNS_14SuffixTreeNodeEjjj
libLLVM.so.11:_ZN4llvm10SuffixTree6extendEjj
libLLVM.so.11:_ZN4llvm10SuffixTreeC1ERKSt6vectorIjSaIjEE
libLLVM.so.11:_ZN4llvm10SuffixTreeC2ERKSt6vectorIjSaIjEE
libLLVM.so.11:_ZN4llvm10SwitchInst10removeCaseENS0_16CaseIteratorImplINS0_10CaseHandleEEE
libLLVM.so.11:_ZN4llvm10SwitchInst12growOperandsEv
libLLVM.so.11:_ZN4llvm10SwitchInst4initEPNS_5ValueEPNS_10BasicBlockEj
libLLVM.so.11:_ZN4llvm10SwitchInst7addCaseEPNS_11ConstantIntEPNS_10BasicBlockE
libLLVM.so.11:_ZN4llvm10SwitchInstC1EPNS_5ValueEPNS_10BasicBlockEjPNS_11InstructionE
libLLVM.so.11:_ZN4llvm10SwitchInstC1EPNS_5ValueEPNS_10BasicBlockEjS4_
libLLVM.so.11:_ZN4llvm10SwitchInstC1ERKS0_
libLLVM.so.11:_ZN4llvm10SwitchInstC2EPNS_5ValueEPNS_10BasicBlockEjPNS_11InstructionE
libLLVM.so.11:_ZN4llvm10SwitchInstC2EPNS_5ValueEPNS_10BasicBlockEjS4_
libLLVM.so.11:_ZN4llvm10SwitchInstC2ERKS0_
libLLVM.so.11:_ZN4llvm10ThreadPool4waitEv
libLLVM.so.11:_ZN4llvm10ThreadPool9asyncImplESt8functionIFvvEE
libLLVM.so.11:_ZN4llvm10ThreadPoolC1ENS_18ThreadPoolStrategyE
libLLVM.so.11:_ZN4llvm10ThreadPoolC2ENS_18ThreadPoolStrategyE
libLLVM.so.11:_ZN4llvm10ThreadPoolD1Ev
libLLVM.so.11:_ZN4llvm10ThreadPoolD2Ev
libLLVM.so.11:_ZN4llvm10TimeRecord14getCurrentTimeEb
libLLVM.so.11:_ZN4llvm10TimerGroup11removeTimerERNS_5TimerE
libLLVM.so.11:_ZN4llvm10TimerGroup14printJSONValueERNS_11raw_ostreamERKNS0_11PrintRecordEPKcd
libLLVM.so.11:_ZN4llvm10TimerGroup15printJSONValuesERNS_11raw_ostreamEPKc
libLLVM.so.11:_ZN4llvm10TimerGroup17PrintQueuedTimersERNS_11raw_ostreamE
libLLVM.so.11:_ZN4llvm10TimerGroup18aquireDefaultGroupEv
libLLVM.so.11:_ZN4llvm10TimerGroup18prepareToPrintListEb
libLLVM.so.11:_ZN4llvm10TimerGroup18printAllJSONValuesERNS_11raw_ostreamEPKc
libLLVM.so.11:_ZN4llvm10TimerGroup19ConstructTimerListsEv
libLLVM.so.11:_ZN4llvm10TimerGroup5clearEv
libLLVM.so.11:_ZN4llvm10TimerGroup5printERNS_11raw_ostreamEb
libLLVM.so.11:_ZN4llvm10TimerGroup8addTimerERNS_5TimerE
libLLVM.so.11:_ZN4llvm10TimerGroup8clearAllEv
libLLVM.so.11:_ZN4llvm10TimerGroup8printAllERNS_11raw_ostreamE
libLLVM.so.11:_ZN4llvm10TimerGroupC1ENS_9StringRefES1_
libLLVM.so.11:_ZN4llvm10TimerGroupC1ENS_9StringRefES1_RKNS_9StringMapINS_10TimeRecordENS_15MallocAllocatorEEE
libLLVM.so.11:_ZN4llvm10TimerGroupC2ENS_9StringRefES1_
libLLVM.so.11:_ZN4llvm10TimerGroupC2ENS_9StringRefES1_RKNS_9StringMapINS_10TimeRecordENS_15MallocAllocatorEEE
libLLVM.so.11:_ZN4llvm10TimerGroupD1Ev
libLLVM.so.11:_ZN4llvm10TimerGroupD2Ev
libLLVM.so.11:_ZN4llvm10TypeFinder15incorporateTypeEPNS_4TypeE
libLLVM.so.11:_ZN4llvm10TypeFinder16incorporateValueEPKNS_5ValueE
libLLVM.so.11:_ZN4llvm10TypeFinder17incorporateMDNodeEPKNS_6MDNodeE
libLLVM.so.11:_ZN4llvm10TypeFinder3runERKNS_6ModuleEb
libLLVM.so.11:_ZN4llvm10TypeFinder5clearEv
libLLVM.so.11:_ZN4llvm10UIToFPInstC1EPNS_5ValueEPNS_4TypeERKNS_5TwineEPNS_10BasicBlockE
libLLVM.so.11:_ZN4llvm10UIToFPInstC1EPNS_5ValueEPNS_4TypeERKNS_5TwineEPNS_11InstructionE
libLLVM.so.11:_ZN4llvm10UIToFPInstC2EPNS_5ValueEPNS_4TypeERKNS_5TwineEPNS_10BasicBlockE
libLLVM.so.11:_ZN4llvm10UIToFPInstC2EPNS_5ValueEPNS_4TypeERKNS_5TwineEPNS_11InstructionE
libLLVM.so.11:_ZN4llvm10UndefValue19destroyConstantImplEv
libLLVM.so.11:_ZN4llvm10UndefValue3getEPNS_4TypeE
libLLVM.so.11:_ZN4llvm10UnrollLoopEPNS_4LoopENS_17UnrollLoopOptionsEPNS_8LoopInfoEPNS_15ScalarEvolutionEPNS_13DominatorTreeEPNS_15AssumptionCacheEPKNS_19TargetTransformInfoEPNS_25OptimizationRemarkEmitterEbPS1_
libLLVM.so.11:_ZN4llvm10VNCoercion19getLoadValueForLoadEPNS_8LoadInstEjPNS_4TypeEPNS_11InstructionERKNS_10DataLayoutE
libLLVM.so.11:_ZN4llvm10VNCoercion20getStoreValueForLoadEPNS_5ValueEjPNS_4TypeEPNS_11InstructionERKNS_10DataLayoutE
libLLVM.so.11:_ZN4llvm10VNCoercion22getMemInstValueForLoadEPNS_12MemIntrinsicEjPNS_4TypeEPNS_11InstructionERKNS_10DataLayoutE
libLLVM.so.11:_ZN4llvm10VNCoercion27getConstantLoadValueForLoadEPNS_8ConstantEjPNS_4TypeERKNS_10DataLayoutE
libLLVM.so.11:_ZN4llvm10VNCoercion28getConstantStoreValueForLoadEPNS_8ConstantEjPNS_4TypeERKNS_10DataLayoutE
libLLVM.so.11:_ZN4llvm10VNCoercion29analyzeLoadFromClobberingLoadEPNS_4TypeEPNS_5ValueEPNS_8LoadInstERKNS_10DataLayoutE
libLLVM.so.11:_ZN4llvm10VNCoercion30analyzeLoadFromClobberingStoreEPNS_4TypeEPNS_5ValueEPNS_9StoreInstERKNS_10DataLayoutE
libLLVM.so.11:_ZN4llvm10VNCoercion30coerceAvailableValueToLoadTypeEPNS_5ValueEPNS_4TypeERNS_13IRBuilderBaseERKNS_10DataLayoutE
libLLVM.so.11:_ZN4llvm10VNCoercion30getConstantMemInstValueForLoadEPNS_12MemIntrinsicEjPNS_4TypeERKNS_10DataLayoutE
libLLVM.so.11:_ZN4llvm10VNCoercion31canCoerceMustAliasedValueToLoadEPNS_5ValueEPNS_4TypeERKNS_10DataLayoutE
libLLVM.so.11:_ZN4llvm10VNCoercion32analyzeLoadFromClobberingMemInstEPNS_4TypeEPNS_5ValueEPNS_12MemIntrinsicERKNS_10DataLayoutE
libLLVM.so.11:_ZN4llvm10VectorType18isValidElementTypeEPNS_4TypeE
libLLVM.so.11:_ZN4llvm10VectorType3getEPNS_4TypeENS_12ElementCountE
libLLVM.so.11:_ZN4llvm10VectorTypeC1EPNS_4TypeEjNS1_6TypeIDE
libLLVM.so.11:_ZN4llvm10VectorTypeC2EPNS_4TypeEjNS1_6TypeIDE
libLLVM.so.11:_ZN4llvm10VirtRegMap15assignVirt2PhysENS_8RegisterEt
libLLVM.so.11:_ZN4llvm10VirtRegMap15createSpillSlotEPKNS_19TargetRegisterClassE
libLLVM.so.11:_ZN4llvm10VirtRegMap16hasPreferredPhysENS_8RegisterE
libLLVM.so.11:_ZN4llvm10VirtRegMap18hasKnownPreferenceENS_8RegisterE
libLLVM.so.11:_ZN4llvm10VirtRegMap20assignVirt2StackSlotENS_8RegisterE
libLLVM.so.11:_ZN4llvm10VirtRegMap20assignVirt2StackSlotENS_8RegisterEi
libLLVM.so.11:_ZN4llvm10VirtRegMap20runOnMachineFunctionERNS_15MachineFunctionE
libLLVM.so.11:_ZN4llvm10VirtRegMap4growEv
libLLVM.so.11:_ZN4llvm10WriteGraphINS_11EdgeBundlesEEERNS_11raw_ostreamES3_RKT_bRKNS_5TwineE
libLLVM.so.11:_ZN4llvm10addLiveInsERNS_17MachineBasicBlockERKNS_12LivePhysRegsE
libLLVM.so.11:_ZN4llvm10bfi_detail16IrreducibleGraph10indexNodesEv
libLLVM.so.11:_ZN4llvm10bfi_detail16IrreducibleGraph14addNodesInLoopERKNS_26BlockFrequencyInfoImplBase8LoopDataE
libLLVM.so.11:_ZN4llvm10bfi_detail16IrreducibleGraph18addNodesInFunctionEv
libLLVM.so.11:_ZN4llvm10bfi_detail16IrreducibleGraph7addEdgeERNS1_7IrrNodeERKNS_26BlockFrequencyInfoImplBase9BlockNodeEPKNS4_8LoopDataE
libLLVM.so.11:_ZN4llvm10castToCStrEPNS_5ValueERNS_13IRBuilderBaseE
libLLVM.so.11:_ZN4llvm10emitCallocEPNS_5ValueES1_RKNS_13AttributeListERNS_13IRBuilderBaseERKNS_17TargetLibraryInfoE
libLLVM.so.11:_ZN4llvm10emitFWriteEPNS_5ValueES1_S1_RNS_13IRBuilderBaseERKNS_10DataLayoutEPKNS_17TargetLibraryInfoE
libLLVM.so.11:_ZN4llvm10emitMallocEPNS_5ValueERNS_13IRBuilderBaseERKNS_10DataLayoutEPKNS_17TargetLibraryInfoE
libLLVM.so.11:_ZN4llvm10emitMemChrEPNS_5ValueES1_S1_RNS_13IRBuilderBaseERKNS_10DataLayoutEPKNS_17TargetLibraryInfoE
libLLVM.so.11:_ZN4llvm10emitMemCmpEPNS_5ValueES1_S1_RNS_13IRBuilderBaseERKNS_10DataLayoutEPKNS_17TargetLibraryInfoE
libLLVM.so.11:_ZN4llvm10emitStpCpyEPNS_5ValueES1_RNS_13IRBuilderBaseEPKNS_17TargetLibraryInfoE
libLLVM.so.11:_ZN4llvm10emitStrCatEPNS_5ValueES1_RNS_13IRBuilderBaseEPKNS_17TargetLibraryInfoE
libLLVM.so.11:_ZN4llvm10emitStrChrEPNS_5ValueEcRNS_13IRBuilderBaseEPKNS_17TargetLibraryInfoE
libLLVM.so.11:_ZN4llvm10emitStrCpyEPNS_5ValueES1_RNS_13IRBuilderBaseEPKNS_17TargetLibraryInfoE
libLLVM.so.11:_ZN4llvm10emitStrDupEPNS_5ValueERNS_13IRBuilderBaseEPKNS_17TargetLibraryInfoE
libLLVM.so.11:_ZN4llvm10emitStrLenEPNS_5ValueERNS_13IRBuilderBaseERKNS_10DataLayoutEPKNS_17TargetLibraryInfoE
libLLVM.so.11:_ZN4llvm10getGCDTypeENS_3LLTES0_
libLLVM.so.11:_ZN4llvm10getLCMTypeENS_3LLTES0_
libLLVM.so.11:_ZN4llvm10getMaxFreqERKNS_8FunctionEPKNS_18BlockFrequencyInfoE
libLLVM.so.11:_ZN4llvm10hasFloatFnEPKNS_17TargetLibraryInfoEPNS_4TypeENS_7LibFuncES5_S5_
libLLVM.so.11:_ZN4llvm10hash_valueENS_9StringRefE
libLLVM.so.11:_ZN4llvm10hash_valueERKNS_14MachineOperandE
libLLVM.so.11:_ZN4llvm10hash_valueERKNS_16RegisterBankInfo14PartialMappingE
libLLVM.so.11:_ZN4llvm10hash_valueERKNS_5APIntE
libLLVM.so.11:_ZN4llvm10hash_valueERKNS_7APFloatE
libLLVM.so.11:_ZN4llvm10isFreeCallEPKNS_5ValueEPKNS_17TargetLibraryInfoE
libLLVM.so.11:_ZN4llvm10lexMITokenENS_9StringRefERNS_7MITokenENS_12function_refIFvPKcRKNS_5TwineEEEE
libLLVM.so.11:_ZN4llvm10lintModuleERKNS_6ModuleE
libLLVM.so.11:_ZN4llvm10pruneCacheENS_9StringRefENS_18CachePruningPolicyE
libLLVM.so.11:_ZN4llvm10sampleprof15FunctionSamples9getOffsetEPKNS_10DILocationE
libLLVM.so.11:_ZN4llvm10sampleprof17ProfileSymbolList4readEPKhy
libLLVM.so.11:_ZN4llvm10sampleprof17ProfileSymbolList5writeERNS_11raw_ostreamE
libLLVM.so.11:_ZN4llvm10sampleprof19SampleProfileReader14computeSummaryEv
libLLVM.so.11:_ZN4llvm10sampleprof19SampleProfileReader19dumpFunctionProfileENS_9StringRefERNS_11raw_ostreamE
libLLVM.so.11:_ZN4llvm10sampleprof19SampleProfileReader4dumpERNS_11raw_ostreamE
libLLVM.so.11:_ZN4llvm10sampleprof19SampleProfileReader6createENSt7__cxx1112basic_stringIcSt11char_traitsIcESaIcEEERNS_11LLVMContextES7_
libLLVM.so.11:_ZN4llvm10sampleprof19SampleProfileReader6createERSt10unique_ptrINS_12MemoryBufferESt14default_deleteIS3_EERNS_11LLVMContextENSt7__cxx1112basic_stringIcSt11char_traitsIcESaIcEEE
libLLVM.so.11:_ZN4llvm10sampleprof19SampleProfileWriter14computeSummaryERKNS_9StringMapINS0_15FunctionSamplesENS_15MallocAllocatorEEE
libLLVM.so.11:_ZN4llvm10sampleprof19SampleProfileWriter17writeFuncProfilesERKNS_9StringMapINS0_15FunctionSamplesENS_15MallocAllocatorEEE
libLLVM.so.11:_ZN4llvm10sampleprof19SampleProfileWriter5writeERKNS_9StringMapINS0_15FunctionSamplesENS_15MallocAllocatorEEE
libLLVM.so.11:_ZN4llvm10sampleprof19SampleProfileWriter6createENS_9StringRefENS0_19SampleProfileFormatE
libLLVM.so.11:_ZN4llvm10sampleprof19SampleProfileWriter6createERSt10unique_ptrINS_11raw_ostreamESt14default_deleteIS3_EENS0_19SampleProfileFormatE
libLLVM.so.11:_ZN4llvm10sampleprof22SampleProfileReaderGCC10readHeaderEv
libLLVM.so.11:_ZN4llvm10sampleprof22SampleProfileReaderGCC10readStringEv
libLLVM.so.11:_ZN4llvm10sampleprof22SampleProfileReaderGCC12skipNextWordEv
libLLVM.so.11:_ZN4llvm10sampleprof22SampleProfileReaderGCC13readNameTableEv
libLLVM.so.11:_ZN4llvm10sampleprof22SampleProfileReaderGCC14readSectionTagEj
libLLVM.so.11:_ZN4llvm10sampleprof22SampleProfileReaderGCC20readFunctionProfilesEv
libLLVM.so.11:_ZN4llvm10sampleprof22SampleProfileReaderGCC22readOneFunctionProfileERKNS_11SmallVectorIPNS0_15FunctionSamplesELj10EEEbj
libLLVM.so.11:_ZN4llvm10sampleprof22SampleProfileReaderGCC8readImplEv
libLLVM.so.11:_ZN4llvm10sampleprof22SampleProfileReaderGCC9hasFormatERKNS_12MemoryBufferE
libLLVM.so.11:_ZN4llvm10sampleprof23SampleProfileReaderText8readImplEv
libLLVM.so.11:_ZN4llvm10sampleprof23SampleProfileReaderText9hasFormatERKNS_12MemoryBufferE
libLLVM.so.11:_ZN4llvm10sampleprof23SampleProfileWriterText11writeSampleERKNS0_15FunctionSamplesE
libLLVM.so.11:_ZN4llvm10sampleprof25SampleProfileReaderBinary10readHeaderEv
libLLVM.so.11:_ZN4llvm10sampleprof25SampleProfileReaderBinary10readStringEv
libLLVM.so.11:_ZN4llvm10sampleprof25SampleProfileReaderBinary11readProfileERNS0_15FunctionSamplesE
libLLVM.so.11:_ZN4llvm10sampleprof25SampleProfileReaderBinary11readSummaryEv
libLLVM.so.11:_ZN4llvm10sampleprof25SampleProfileReaderBinary13readNameTableEv
libLLVM.so.11:_ZN4llvm10sampleprof25SampleProfileReaderBinary14readMagicIdentEv
libLLVM.so.11:_ZN4llvm10sampleprof25SampleProfileReaderBinary15readFuncProfileEPKh
libLLVM.so.11:_ZN4llvm10sampleprof25SampleProfileReaderBinary16readSummaryEntryERSt6vectorINS_19ProfileSummaryEntryESaIS3_EE
libLLVM.so.11:_ZN4llvm10sampleprof25SampleProfileReaderBinary19readStringFromTableEv
libLLVM.so.11:_ZN4llvm10sampleprof25SampleProfileReaderBinary8readImplEv
libLLVM.so.11:_ZN4llvm10sampleprof25SampleProfileWriterBinary11writeHeaderERKNS_9StringMapINS0_15FunctionSamplesENS_15MallocAllocatorEEE
libLLVM.so.11:_ZN4llvm10sampleprof25SampleProfileWriterBinary11writeSampleERKNS0_15FunctionSamplesE
libLLVM.so.11:_ZN4llvm10sampleprof25SampleProfileWriterBinary12writeNameIdxENS_9StringRefE
libLLVM.so.11:_ZN4llvm10sampleprof25SampleProfileWriterBinary12writeSummaryEv
libLLVM.so.11:_ZN4llvm10sampleprof25SampleProfileWriterBinary14writeNameTableEv
libLLVM.so.11:_ZN4llvm10sampleprof25SampleProfileWriterBinary15writeMagicIdentENS0_19SampleProfileFormatE
libLLVM.so.11:_ZN4llvm10sampleprof25SampleProfileWriterBinary7addNameENS_9StringRefE
libLLVM.so.11:_ZN4llvm10sampleprof25SampleProfileWriterBinary8addNamesERKNS0_15FunctionSamplesE
libLLVM.so.11:_ZN4llvm10sampleprof25SampleProfileWriterBinary9writeBodyERKNS0_15FunctionSamplesE
libLLVM.so.11:_ZN4llvm10sampleprof28SampleProfileReaderExtBinary13verifySPMagicEy
libLLVM.so.11:_ZN4llvm10sampleprof28SampleProfileReaderExtBinary14readOneSectionEPKhyRKNS0_16SecHdrTableEntryE
libLLVM.so.11:_ZN4llvm10sampleprof28SampleProfileReaderExtBinary16collectFuncsFromERKNS_6ModuleE
libLLVM.so.11:_ZN4llvm10sampleprof28SampleProfileReaderExtBinary16readFuncProfilesEv
libLLVM.so.11:_ZN4llvm10sampleprof28SampleProfileReaderExtBinary16readMD5NameTableEv
libLLVM.so.11:_ZN4llvm10sampleprof28SampleProfileReaderExtBinary16readNameTableSecEb
libLLVM.so.11:_ZN4llvm10sampleprof28SampleProfileReaderExtBinary19readFuncOffsetTableEv
libLLVM.so.11:_ZN4llvm10sampleprof28SampleProfileReaderExtBinary21readProfileSymbolListEv
libLLVM.so.11:_ZN4llvm10sampleprof28SampleProfileReaderExtBinary9hasFormatERKNS_12MemoryBufferE
libLLVM.so.11:_ZN4llvm10sampleprof28SampleProfileReaderRawBinary13verifySPMagicEy
libLLVM.so.11:_ZN4llvm10sampleprof28SampleProfileReaderRawBinary9hasFormatERKNS_12MemoryBufferE
libLLVM.so.11:_ZN4llvm10sampleprof28SampleProfileWriterExtBinary11writeSampleERKNS0_15FunctionSamplesE
libLLVM.so.11:_ZN4llvm10sampleprof28SampleProfileWriterExtBinary13writeSectionsERKNS_9StringMapINS0_15FunctionSamplesENS_15MallocAllocatorEEE
libLLVM.so.11:_ZN4llvm10sampleprof28SampleProfileWriterExtBinary14writeNameTableEv
libLLVM.so.11:_ZN4llvm10sampleprof28SampleProfileWriterExtBinary20writeFuncOffsetTableEv
libLLVM.so.11:_ZN4llvm10sampleprof32SampleProfileReaderCompactBinary10readHeaderEv
libLLVM.so.11:_ZN4llvm10sampleprof32SampleProfileReaderCompactBinary13readNameTableEv
libLLVM.so.11:_ZN4llvm10sampleprof32SampleProfileReaderCompactBinary13verifySPMagicEy
libLLVM.so.11:_ZN4llvm10sampleprof32SampleProfileReaderCompactBinary16collectFuncsFromERKNS_6ModuleE
libLLVM.so.11:_ZN4llvm10sampleprof32SampleProfileReaderCompactBinary19readFuncOffsetTableEv
libLLVM.so.11:_ZN4llvm10sampleprof32SampleProfileReaderCompactBinary19readStringFromTableEv
libLLVM.so.11:_ZN4llvm10sampleprof32SampleProfileReaderCompactBinary8readImplEv
libLLVM.so.11:_ZN4llvm10sampleprof32SampleProfileReaderCompactBinary9hasFormatERKNS_12MemoryBufferE
libLLVM.so.11:_ZN4llvm10sampleprof32SampleProfileReaderExtBinaryBase10readHeaderEv
libLLVM.so.11:_ZN4llvm10sampleprof32SampleProfileReaderExtBinaryBase11getFileSizeEv
libLLVM.so.11:_ZN4llvm10sampleprof32SampleProfileReaderExtBinaryBase14getSectionSizeENS0_7SecTypeE
libLLVM.so.11:_ZN4llvm10sampleprof32SampleProfileReaderExtBinaryBase15dumpSectionInfoERNS_11raw_ostreamE
libLLVM.so.11:_ZN4llvm10sampleprof32SampleProfileReaderExtBinaryBase15readSecHdrTableEv
libLLVM.so.11:_ZN4llvm10sampleprof32SampleProfileReaderExtBinaryBase17decompressSectionEPKhyRS3_Ry
libLLVM.so.11:_ZN4llvm10sampleprof32SampleProfileReaderExtBinaryBase20readSecHdrTableEntryEv
libLLVM.so.11:_ZN4llvm10sampleprof32SampleProfileReaderExtBinaryBase8readImplEv
libLLVM.so.11:_ZN4llvm10sampleprof32SampleProfileWriterCompactBinary11writeHeaderERKNS_9StringMapINS0_15FunctionSamplesENS_15MallocAllocatorEEE
libLLVM.so.11:_ZN4llvm10sampleprof32SampleProfileWriterCompactBinary11writeSampleERKNS0_15FunctionSamplesE
libLLVM.so.11:_ZN4llvm10sampleprof32SampleProfileWriterCompactBinary14writeNameTableEv
libLLVM.so.11:_ZN4llvm10sampleprof32SampleProfileWriterCompactBinary20writeFuncOffsetTableEv
libLLVM.so.11:_ZN4llvm10sampleprof32SampleProfileWriterCompactBinary5writeERKNS_9StringMapINS0_15FunctionSamplesENS_15MallocAllocatorEEE
libLLVM.so.11:_ZN4llvm10sampleprof32SampleProfileWriterExtBinaryBase11writeHeaderERKNS_9StringMapINS0_15FunctionSamplesENS_15MallocAllocatorEEE
libLLVM.so.11:_ZN4llvm10sampleprof32SampleProfileWriterExtBinaryBase13addNewSectionENS0_7SecTypeEy
libLLVM.so.11:_ZN4llvm10sampleprof32SampleProfileWriterExtBinaryBase16allocSecHdrTableEv
libLLVM.so.11:_ZN4llvm10sampleprof32SampleProfileWriterExtBinaryBase16getEntryInLayoutENS0_7SecTypeE
libLLVM.so.11:_ZN4llvm10sampleprof32SampleProfileWriterExtBinaryBase16markSectionStartENS0_7SecTypeE
libLLVM.so.11:_ZN4llvm10sampleprof32SampleProfileWriterExtBinaryBase16writeSecHdrTableEv
libLLVM.so.11:_ZN4llvm10sampleprof32SampleProfileWriterExtBinaryBase17compressAndOutputEv
libLLVM.so.11:_ZN4llvm10sampleprof32SampleProfileWriterExtBinaryBase20setToCompressSectionENS0_7SecTypeE
libLLVM.so.11:_ZN4llvm10sampleprof32SampleProfileWriterExtBinaryBase24setToCompressAllSectionsEv
libLLVM.so.11:_ZN4llvm10sampleprof32SampleProfileWriterExtBinaryBase5writeERKNS_9StringMapINS0_15FunctionSamplesENS_15MallocAllocatorEEE
libLLVM.so.11:_ZN4llvm10sampleprof34SampleProfileReaderItaniumRemapper13getSamplesForENS_9StringRefE
libLLVM.so.11:_ZN4llvm10sampleprof34SampleProfileReaderItaniumRemapper14applyRemappingERNS_11LLVMContextE
libLLVM.so.11:_ZN4llvm10sampleprof34SampleProfileReaderItaniumRemapper6createENSt7__cxx1112basic_stringIcSt11char_traitsIcESaIcEEERNS0_19SampleProfileReaderERNS_11LLVMContextE
libLLVM.so.11:_ZN4llvm10sampleprof34SampleProfileReaderItaniumRemapper6createERSt10unique_ptrINS_12MemoryBufferESt14default_deleteIS3_EERNS0_19SampleProfileReaderERNS_11LLVMContextE
libLLVM.so.11:_ZN4llvm10sampleproflsERNS_11raw_ostreamERKNS0_12LineLocationE
libLLVM.so.11:_ZN4llvm10sampleproflsERNS_11raw_ostreamERKNS0_12SampleRecordE
libLLVM.so.11:_ZN4llvm10sampleproflsERNS_11raw_ostreamERKNS0_15FunctionSamplesE
libLLVM.so.11:_ZN4llvm10sinkRegionEPNS_15DomTreeNodeBaseINS_10BasicBlockEEEPNS_9AAResultsEPNS_8LoopInfoEPNS_13DominatorTreeEPNS_17TargetLibraryInfoEPNS_19TargetTransformInfoEPNS_4LoopEPNS_15AliasSetTrackerEPNS_16MemorySSAUpdaterEPNS_17ICFLoopSafetyInfoERNS_21SinkAndHoistLICMFlagsEPNS_25OptimizationRemarkEmitterE
libLLVM.so.11:_ZN4llvm10tryGreaterEiiRNS_20GenericSchedulerBase14SchedCandidateES2_NS0_10CandReasonE
libLLVM.so.11:_ZN4llvm10tryLatencyERNS_20GenericSchedulerBase14SchedCandidateES2_RNS_13SchedBoundaryE
libLLVM.so.11:_ZN4llvm11AAEvaluator11runInternalERNS_8FunctionERNS_9AAResultsE
libLLVM.so.11:_ZN4llvm11AAEvaluator3runERNS_8FunctionERNS_15AnalysisManagerIS1_JEEE
libLLVM.so.11:_ZN4llvm11AAEvaluatorD1Ev
libLLVM.so.11:_ZN4llvm11AAEvaluatorD2Ev
libLLVM.so.11:_ZN4llvm11AANoCapture17createForPositionERKNS_10IRPositionERNS_10AttributorE
libLLVM.so.11:_ZN4llvm11AANoRecurse17createForPositionERKNS_10IRPositionERNS_10AttributorE
libLLVM.so.11:_ZN4llvm11APFloatBase10IEEEdoubleEv
libLLVM.so.11:_ZN4llvm11APFloatBase10IEEEsingleEv
libLLVM.so.11:_ZN4llvm11APFloatBase13getSizeInBitsERKNS_12fltSemanticsE
libLLVM.so.11:_ZN4llvm11APFloatBase15EnumToSemanticsENS0_9SemanticsE
libLLVM.so.11:_ZN4llvm11APFloatBase15PPCDoubleDoubleEv
libLLVM.so.11:_ZN4llvm11APFloatBase15SemanticsToEnumERKNS_12fltSemanticsE
libLLVM.so.11:_ZN4llvm11APFloatBase17x87DoubleExtendedEv
libLLVM.so.11:_ZN4llvm11APFloatBase18semanticsPrecisionERKNS_12fltSemanticsE
libLLVM.so.11:_ZN4llvm11APFloatBase19semanticsSizeInBitsERKNS_12fltSemanticsE
libLLVM.so.11:_ZN4llvm11APFloatBase20semanticsMaxExponentERKNS_12fltSemanticsE
libLLVM.so.11:_ZN4llvm11APFloatBase20semanticsMinExponentERKNS_12fltSemanticsE
libLLVM.so.11:_ZN4llvm11APFloatBase5BogusEv
libLLVM.so.11:_ZN4llvm11APFloatBase6BFloatEv
libLLVM.so.11:_ZN4llvm11APFloatBase8IEEEhalfEv
libLLVM.so.11:_ZN4llvm11APFloatBase8IEEEquadEv
libLLVM.so.11:_ZN4llvm11AddressPool10emitHeaderERNS_10AsmPrinterEPNS_9MCSectionE
libLLVM.so.11:_ZN4llvm11AddressPool4emitERNS_10AsmPrinterEPNS_9MCSectionE
libLLVM.so.11:_ZN4llvm11AddressPool8getIndexEPKNS_8MCSymbolEb
libLLVM.so.11:_ZN4llvm11AttrBuilder12addAttributeENS_9Attribute8AttrKindE
libLLVM.so.11:_ZN4llvm11AttrBuilder12addAttributeENS_9AttributeE
libLLVM.so.11:_ZN4llvm11AttrBuilder12addAttributeENS_9StringRefES1_
libLLVM.so.11:_ZN4llvm11AttrBuilder12addByValAttrEPNS_4TypeE
libLLVM.so.11:_ZN4llvm11AttrBuilder15removeAttributeENS_9Attribute8AttrKindE
libLLVM.so.11:_ZN4llvm11AttrBuilder15removeAttributeENS_9StringRefE
libLLVM.so.11:_ZN4llvm11AttrBuilder16addAlignmentAttrENS_10MaybeAlignE
libLLVM.so.11:_ZN4llvm11AttrBuilder16addAllocSizeAttrEjRKNS_8OptionalIjEE
libLLVM.so.11:_ZN4llvm11AttrBuilder16removeAttributesENS_13AttributeListEy
libLLVM.so.11:_ZN4llvm11AttrBuilder19addPreallocatedAttrEPNS_4TypeE
libLLVM.so.11:_ZN4llvm11AttrBuilder21addStackAlignmentAttrENS_10MaybeAlignE
libLLVM.so.11:_ZN4llvm11AttrBuilder22addDereferenceableAttrEy
libLLVM.so.11:_ZN4llvm11AttrBuilder27addAllocSizeAttrFromRawReprEy
libLLVM.so.11:_ZN4llvm11AttrBuilder28addDereferenceableOrNullAttrEy
libLLVM.so.11:_ZN4llvm11AttrBuilder5clearEv
libLLVM.so.11:_ZN4llvm11AttrBuilder5mergeERKS0_
libLLVM.so.11:_ZN4llvm11AttrBuilder6removeERKS0_
libLLVM.so.11:_ZN4llvm11AttrBuilderC1ENS_12AttributeSetE
libLLVM.so.11:_ZN4llvm11AttrBuilderC1ENS_13AttributeListEj
libLLVM.so.11:_ZN4llvm11AttrBuilderC2ENS_12AttributeSetE
libLLVM.so.11:_ZN4llvm11AttrBuilderC2ENS_13AttributeListEj
libLLVM.so.11:_ZN4llvm11AttrBuildereqERKS0_
libLLVM.so.11:_ZN4llvm11BitCastInstC1EPNS_5ValueEPNS_4TypeERKNS_5TwineEPNS_10BasicBlockE
libLLVM.so.11:_ZN4llvm11BitCastInstC1EPNS_5ValueEPNS_4TypeERKNS_5TwineEPNS_11InstructionE
libLLVM.so.11:_ZN4llvm11BitCastInstC2EPNS_5ValueEPNS_4TypeERKNS_5TwineEPNS_10BasicBlockE
libLLVM.so.11:_ZN4llvm11BitCastInstC2EPNS_5ValueEPNS_4TypeERKNS_5TwineEPNS_11InstructionE
libLLVM.so.11:_ZN4llvm11BuryPointerEPKv
libLLVM.so.11:_ZN4llvm11CFLAndersAA3runERNS_8FunctionERNS_15AnalysisManagerIS1_JEEE
libLLVM.so.11:_ZN4llvm11CFLSteensAA3runERNS_8FunctionERNS_15AnalysisManagerIS1_JEEE
libLLVM.so.11:_ZN4llvm11CloneModuleERKNS_6ModuleE
libLLVM.so.11:_ZN4llvm11CloneModuleERKNS_6ModuleERNS_8ValueMapIPKNS_5ValueENS_14WeakTrackingVHENS_14ValueMapConfigIS6_NS_3sys10SmartMutexILb0EEEEEEE
libLLVM.so.11:_ZN4llvm11CloneModuleERKNS_6ModuleERNS_8ValueMapIPKNS_5ValueENS_14WeakTrackingVHENS_14ValueMapConfigIS6_NS_3sys10SmartMutexILb0EEEEEEENS_12function_refIFbPKNS_11GlobalValueEEEE
libLLVM.so.11:_ZN4llvm11CodeMetrics17analyzeBasicBlockEPKNS_10BasicBlockERKNS_19TargetTransformInfoERKNS_15SmallPtrSetImplIPKNS_5ValueEEE
libLLVM.so.11:_ZN4llvm11CodeMetrics22collectEphemeralValuesEPKNS_4LoopEPNS_15AssumptionCacheERNS_15SmallPtrSetImplIPKNS_5ValueEEE
libLLVM.so.11:_ZN4llvm11CodeMetrics22collectEphemeralValuesEPKNS_8FunctionEPNS_15AssumptionCacheERNS_15SmallPtrSetImplIPKNS_5ValueEEE
libLLVM.so.11:_ZN4llvm11CompileUnit10getSysRootEv
libLLVM.so.11:_ZN4llvm11CompileUnit11getLanguageEv
libLLVM.so.11:_ZN4llvm11CompileUnit13addLabelLowPcEyx
libLLVM.so.11:_ZN4llvm11CompileUnit16addFunctionRangeEyyx
libLLVM.so.11:_ZN4llvm11CompileUnit18addNameAcceleratorEPKNS_3DIEENS_23DwarfStringPoolEntryRefEb
libLLVM.so.11:_ZN4llvm11CompileUnit18addObjCAcceleratorEPKNS_3DIEENS_23DwarfStringPoolEntryRefEb
libLLVM.so.11:_ZN4llvm11CompileUnit18addTypeAcceleratorEPKNS_3DIEENS_23DwarfStringPoolEntryRefEbj
libLLVM.so.11:_ZN4llvm11CompileUnit18noteRangeAttributeERKNS_3DIEENS_13PatchLocationE
libLLVM.so.11:_ZN4llvm11CompileUnit20markEverythingAsKeptEv
libLLVM.so.11:_ZN4llvm11CompileUnit20noteForwardReferenceEPNS_3DIEEPKS0_PNS_11DeclContextENS_13PatchLocationE
libLLVM.so.11:_ZN4llvm11CompileUnit21computeNextUnitOffsetEv
libLLVM.so.11:_ZN4llvm11CompileUnit21noteLocationAttributeENS_13PatchLocationEx
libLLVM.so.11:_ZN4llvm11CompileUnit22fixupForwardReferencesEv
libLLVM.so.11:_ZN4llvm11CompileUnit23addNamespaceAcceleratorEPKNS_3DIEENS_23DwarfStringPoolEntryRefE
libLLVM.so.11:_ZN4llvm11ConstantInt19destroyConstantImplEv
libLLVM.so.11:_ZN4llvm11ConstantInt19isValueValidForTypeEPNS_4TypeEx
libLLVM.so.11:_ZN4llvm11ConstantInt19isValueValidForTypeEPNS_4TypeEy
libLLVM.so.11:_ZN4llvm11ConstantInt3getEPNS_11IntegerTypeENS_9StringRefEh
libLLVM.so.11:_ZN4llvm11ConstantInt3getEPNS_11IntegerTypeEyb
libLLVM.so.11:_ZN4llvm11ConstantInt3getEPNS_4TypeERKNS_5APIntE
libLLVM.so.11:_ZN4llvm11ConstantInt3getEPNS_4TypeEyb
libLLVM.so.11:_ZN4llvm11ConstantInt3getERNS_11LLVMContextERKNS_5APIntE
libLLVM.so.11:_ZN4llvm11ConstantInt7getTrueEPNS_4TypeE
libLLVM.so.11:_ZN4llvm11ConstantInt7getTrueERNS_11LLVMContextE
libLLVM.so.11:_ZN4llvm11ConstantInt8getFalseEPNS_4TypeE
libLLVM.so.11:_ZN4llvm11ConstantInt8getFalseERNS_11LLVMContextE
libLLVM.so.11:_ZN4llvm11ConstantInt9getSignedEPNS_11IntegerTypeEx
libLLVM.so.11:_ZN4llvm11ConstantInt9getSignedEPNS_4TypeEx
libLLVM.so.11:_ZN4llvm11ConstantIntC1EPNS_11IntegerTypeERKNS_5APIntE
libLLVM.so.11:_ZN4llvm11ConstantIntC2EPNS_11IntegerTypeERKNS_5APIntE
libLLVM.so.11:_ZN4llvm11DDGAnalysis3runERNS_4LoopERNS_15AnalysisManagerIS1_JRNS_27LoopStandardAnalysisResultsEEEES5_
libLLVM.so.11:_ZN4llvm11DIBasicType7getImplERNS_11LLVMContextEjPNS_8MDStringEyjjNS_6DINode7DIFlagsENS_8Metadata11StorageTypeEb
libLLVM.so.11:_ZN4llvm11DIMacroFile7getImplERNS_11LLVMContextEjjPNS_8MetadataES4_NS3_11StorageTypeEb
libLLVM.so.11:_ZN4llvm11DINamespace7getImplERNS_11LLVMContextEPNS_8MetadataEPNS_8MDStringEbNS3_11StorageTypeEb
libLLVM.so.11:_ZN4llvm11DWARFLinker12assignAbbrevERNS_9DIEAbbrevE
libLLVM.so.11:_ZN4llvm11DWARFLinker13addObjectFileERNS_9DwarfFileE
libLLVM.so.11:_ZN4llvm11DWARFLinker13shouldKeepDIEERNS_12AddressesMapERSt3mapIyNS_19ObjFileAddressRangeESt4lessIyESaISt4pairIKyS4_EEERKNS_8DWARFDieERKNS_9DwarfFileERNS_11CompileUnitERNSJ_7DIEInfoEj
libLLVM.so.11:_ZN4llvm11DWARFLinker15loadClangModuleENS_8DWARFDieENS_9StringRefES2_yRKNS_9DwarfFileERNS_10StrongTypeINS_24NonRelocatableStringpoolENS_10OffsetsTagEEERNS6_IS7_NS_9UniqueTagEEERNS_15DeclContextTreeEyRjbjb
libLLVM.so.11:_ZN4llvm11DWARFLinker15updateAccelKindERNS_12DWARFContextE
libLLVM.so.11:_ZN4llvm11DWARFLinker17lookForDIEsToKeepERNS_12AddressesMapERSt3mapIyNS_19ObjFileAddressRangeESt4lessIyESaISt4pairIKyS4_EEERKSt6vectorISt10unique_ptrINS_11CompileUnitESt14default_deleteISF_EESaISI_EERKNS_8DWARFDieERKNS_9DwarfFileERSF_j
libLLVM.so.11:_ZN4llvm11DWARFLinker19resolveDIEReferenceERKNS_9DwarfFileERKSt6vectorISt10unique_ptrINS_11CompileUnitESt14default_deleteIS6_EESaIS9_EERKNS_14DWARFFormValueERKNS_8DWARFDieERPS6_
libLLVM.so.11:_ZN4llvm11DWARFLinker20lookForRefDIEsToKeepERKNS_8DWARFDieERNS_11CompileUnitEjRKSt6vectorISt10unique_ptrIS4_St14default_deleteIS4_EESaISA_EERKNS_9DwarfFileERNS_15SmallVectorImplINS0_12WorklistItemEEE
libLLVM.so.11:_ZN4llvm11DWARFLinker21cleanupAuxiliarryDataERNS0_11LinkContextE
libLLVM.so.11:_ZN4llvm11DWARFLinker21patchLineTableForUnitERNS_11CompileUnitERNS_12DWARFContextERKNS_9DwarfFileE
libLLVM.so.11:_ZN4llvm11DWARFLinker21shouldKeepVariableDIEERNS_12AddressesMapERKNS_8DWARFDieERNS_11CompileUnitERNS6_7DIEInfoEj
libLLVM.so.11:_ZN4llvm11DWARFLinker22emitPaperTrailWarningsERKNS_9DwarfFileERNS_10StrongTypeINS_24NonRelocatableStringpoolENS_10OffsetsTagEEE
libLLVM.so.11:_ZN4llvm11DWARFLinker22lookForChildDIEsToKeepERKNS_8DWARFDieERNS_11CompileUnitEjRNS_15SmallVectorImplINS0_12WorklistItemEEE
libLLVM.so.11:_ZN4llvm11DWARFLinker23lookForParentDIEsToKeepEjRNS_11CompileUnitEjRNS_15SmallVectorImplINS0_12WorklistItemEEE
libLLVM.so.11:_ZN4llvm11DWARFLinker23patchFrameInfoForObjectERKNS_9DwarfFileERSt3mapIyNS_19ObjFileAddressRangeESt4lessIyESaISt4pairIKyS5_EEERNS_12DWARFContextEj
libLLVM.so.11:_ZN4llvm11DWARFLinker23registerModuleReferenceENS_8DWARFDieERKNS_9DWARFUnitERKNS_9DwarfFileERNS_10StrongTypeINS_24NonRelocatableStringpoolENS_10OffsetsTagEEERNS8_IS9_NS_9UniqueTagEEERNS_15DeclContextTreeEyRjbjb
libLLVM.so.11:_ZN4llvm11DWARFLinker23shouldKeepSubprogramDIEERNS_12AddressesMapERSt3mapIyNS_19ObjFileAddressRangeESt4lessIyESaISt4pairIKyS4_EEERKNS_8DWARFDieERKNS_9DwarfFileERNS_11CompileUnitERNSJ_7DIEInfoEj
libLLVM.so.11:_ZN4llvm11DWARFLinker25copyInvariantDebugSectionERNS_12DWARFContextE
libLLVM.so.11:_ZN4llvm11DWARFLinker29emitAcceleratorEntriesForUnitERNS_11CompileUnitE
libLLVM.so.11:_ZN4llvm11DWARFLinker34emitAppleAcceleratorEntriesForUnitERNS_11CompileUnitE
libLLVM.so.11:_ZN4llvm11DWARFLinker34emitDwarfAcceleratorEntriesForUnitERNS_11CompileUnitE
libLLVM.so.11:_ZN4llvm11DWARFLinker4linkEv
libLLVM.so.11:_ZN4llvm11DWARFLinker9DIECloner10copyAbbrevERKNS_28DWARFAbbreviationDeclarationEb
libLLVM.so.11:_ZN4llvm11DWARFLinker9DIECloner11getDIENamesERKNS_8DWARFDieERNS1_14AttributesInfoERNS_10StrongTypeINS_24NonRelocatableStringpoolENS_10OffsetsTagEEEb
libLLVM.so.11:_ZN4llvm11DWARFLinker9DIECloner14cloneAttributeERNS_3DIEERKNS_8DWARFDieERKNS_9DwarfFileERNS_11CompileUnitERNS_10StrongTypeINS_24NonRelocatableStringpoolENS_10OffsetsTagEEERKNS_14DWARFFormValueENS_28DWARFAbbreviationDeclaration13AttributeSpecEjRNS1_14AttributesInfoEb
libLLVM.so.11:_ZN4llvm11DWARFLinker9DIECloner15cloneExpressionERNS_13DataExtractorENS_15DWARFExpressionERKNS_9DwarfFileERNS_11CompileUnitERNS_15SmallVectorImplIhEE
libLLVM.so.11:_ZN4llvm11DWARFLinker9DIECloner18addObjCAcceleratorERNS_11CompileUnitEPKNS_3DIEENS_23DwarfStringPoolEntryRefERNS_10StrongTypeINS_24NonRelocatableStringpoolENS_10OffsetsTagEEEb
libLLVM.so.11:_ZN4llvm11DWARFLinker9DIECloner19cloneBlockAttributeERNS_3DIEERKNS_9DwarfFileERNS_11CompileUnitENS_28DWARFAbbreviationDeclaration13AttributeSpecERKNS_14DWARFFormValueEjb
libLLVM.so.11:_ZN4llvm11DWARFLinker9DIECloner20cloneAllCompileUnitsERNS_12DWARFContextERKNS_9DwarfFileERNS_10StrongTypeINS_24NonRelocatableStringpoolENS_10OffsetsTagEEEb
libLLVM.so.11:_ZN4llvm11DWARFLinker9DIECloner20cloneScalarAttributeERNS_3DIEERKNS_8DWARFDieERKNS_9DwarfFileERNS_11CompileUnitENS_28DWARFAbbreviationDeclaration13AttributeSpecERKNS_14DWARFFormValueEjRNS1_14AttributesInfoE
libLLVM.so.11:_ZN4llvm11DWARFLinker9DIECloner20cloneStringAttributeERNS_3DIEENS_28DWARFAbbreviationDeclaration13AttributeSpecERKNS_14DWARFFormValueERKNS_9DWARFUnitERNS_10StrongTypeINS_24NonRelocatableStringpoolENS_10OffsetsTagEEERNS1_14AttributesInfoE
libLLVM.so.11:_ZN4llvm11DWARFLinker9DIECloner21cloneAddressAttributeERNS_3DIEENS_28DWARFAbbreviationDeclaration13AttributeSpecERKNS_14DWARFFormValueERKNS_11CompileUnitERNS1_14AttributesInfoE
libLLVM.so.11:_ZN4llvm11DWARFLinker9DIECloner22hashFullyQualifiedNameENS_8DWARFDieERNS_11CompileUnitERKNS_9DwarfFileEi
libLLVM.so.11:_ZN4llvm11DWARFLinker9DIECloner26cloneDieReferenceAttributeERNS_3DIEERKNS_8DWARFDieENS_28DWARFAbbreviationDeclaration13AttributeSpecEjRKNS_14DWARFFormValueERKNS_9DwarfFileERNS_11CompileUnitE
libLLVM.so.11:_ZN4llvm11DWARFLinker9DIECloner8cloneDIEERKNS_8DWARFDieERKNS_9DwarfFileERNS_11CompileUnitERNS_10StrongTypeINS_24NonRelocatableStringpoolENS_10OffsetsTagEEExjjbPNS_3DIEE
libLLVM.so.11:_ZN4llvm11DbgVariable11addMMIEntryERKS0_
libLLVM.so.11:_ZN4llvm11DbgVariable18initializeDbgValueEPKNS_12MachineInstrE
libLLVM.so.11:_ZN4llvm11DeclContext14setLastSeenDIEERNS_11CompileUnitERKNS_8DWARFDieE
libLLVM.so.11:_ZN4llvm11EdgeBundles20runOnMachineFunctionERNS_15MachineFunctionE
libLLVM.so.11:_ZN4llvm11FPTruncInstC1EPNS_5ValueEPNS_4TypeERKNS_5TwineEPNS_10BasicBlockE
libLLVM.so.11:_ZN4llvm11FPTruncInstC1EPNS_5ValueEPNS_4TypeERKNS_5TwineEPNS_11InstructionE
libLLVM.so.11:_ZN4llvm11FPTruncInstC2EPNS_5ValueEPNS_4TypeERKNS_5TwineEPNS_10BasicBlockE
libLLVM.so.11:_ZN4llvm11FPTruncInstC2EPNS_5ValueEPNS_4TypeERKNS_5TwineEPNS_11InstructionE
libLLVM.so.11:_ZN4llvm11GCOVOptions10getDefaultEv
libLLVM.so.11:_ZN4llvm11GVNSinkPass3runERNS_8FunctionERNS_15AnalysisManagerIS1_JEEE
libLLVM.so.11:_ZN4llvm11GlobPattern6createENS_9StringRefE
libLLVM.so.11:_ZN4llvm11GlobalAlias10setAliaseeEPNS_8ConstantE
libLLVM.so.11:_ZN4llvm11GlobalAlias15eraseFromParentEv
libLLVM.so.11:_ZN4llvm11GlobalAlias16removeFromParentEv
libLLVM.so.11:_ZN4llvm11GlobalAlias6createENS_11GlobalValue12LinkageTypesERKNS_5TwineEPS1_
libLLVM.so.11:_ZN4llvm11GlobalAlias6createEPNS_4TypeEjNS_11GlobalValue12LinkageTypesERKNS_5TwineEPNS_6ModuleE
libLLVM.so.11:_ZN4llvm11GlobalAlias6createEPNS_4TypeEjNS_11GlobalValue12LinkageTypesERKNS_5TwineEPNS_8ConstantEPNS_6ModuleE
libLLVM.so.11:_ZN4llvm11GlobalAlias6createEPNS_4TypeEjNS_11GlobalValue12LinkageTypesERKNS_5TwineEPS3_
libLLVM.so.11:_ZN4llvm11GlobalAlias6createERKNS_5TwineEPNS_11GlobalValueE
libLLVM.so.11:_ZN4llvm11GlobalAliasC1EPNS_4TypeEjNS_11GlobalValue12LinkageTypesERKNS_5TwineEPNS_8ConstantEPNS_6ModuleE
libLLVM.so.11:_ZN4llvm11GlobalAliasC2EPNS_4TypeEjNS_11GlobalValue12LinkageTypesERKNS_5TwineEPNS_8ConstantEPNS_6ModuleE
libLLVM.so.11:_ZN4llvm11GlobalIFunc15eraseFromParentEv
libLLVM.so.11:_ZN4llvm11GlobalIFunc16removeFromParentEv
libLLVM.so.11:_ZN4llvm11GlobalIFunc6createEPNS_4TypeEjNS_11GlobalValue12LinkageTypesERKNS_5TwineEPNS_8ConstantEPNS_6ModuleE
libLLVM.so.11:_ZN4llvm11GlobalIFuncC1EPNS_4TypeEjNS_11GlobalValue12LinkageTypesERKNS_5TwineEPNS_8ConstantEPNS_6ModuleE
libLLVM.so.11:_ZN4llvm11GlobalIFuncC2EPNS_4TypeEjNS_11GlobalValue12LinkageTypesERKNS_5TwineEPNS_8ConstantEPNS_6ModuleE
libLLVM.so.11:_ZN4llvm11GlobalValue11materializeEv
libLLVM.so.11:_ZN4llvm11GlobalValue12setPartitionENS_9StringRefE
libLLVM.so.11:_ZN4llvm11GlobalValue15eraseFromParentEv
libLLVM.so.11:_ZN4llvm11GlobalValue16removeFromParentEv
libLLVM.so.11:_ZN4llvm11GlobalValue18copyAttributesFromEPKS0_
libLLVM.so.11:_ZN4llvm11GlobalValue19destroyConstantImplEv
libLLVM.so.11:_ZN4llvm11GlobalValue19getGlobalIdentifierB5cxx11ENS_9StringRefENS0_12LinkageTypesES1_
libLLVM.so.11:_ZN4llvm11GlobalValue23handleOperandChangeImplEPNS_5ValueES2_
libLLVM.so.11:_ZN4llvm11IVStrideUse18transformToPostIncEPKNS_4LoopE
libLLVM.so.11:_ZN4llvm11IVStrideUse7deletedEv
libLLVM.so.11:_ZN4llvm11InlinerPass10getAdvisorERKNS_25OuterAnalysisManagerProxyINS_15AnalysisManagerINS_6ModuleEJEEENS_13LazyCallGraph3SCCEJRS5_EE6ResultERNS2_INS_8FunctionEJEEERS3_
libLLVM.so.11:_ZN4llvm11InlinerPass3runERNS_13LazyCallGraph3SCCERNS_15AnalysisManagerIS2_JRS1_EEES5_RNS_17CGSCCUpdateResultE
libLLVM.so.11:_ZN4llvm11InlinerPassD1Ev
libLLVM.so.11:_ZN4llvm11InlinerPassD2Ev
libLLVM.so.11:_ZN4llvm11Instruction10andIRFlagsEPKNS_5ValueE
libLLVM.so.11:_ZN4llvm11Instruction10moveBeforeEPS0_
libLLVM.so.11:_ZN4llvm11Instruction10moveBeforeERNS_10BasicBlockENS_14ilist_iteratorINS_12ilist_detail12node_optionsIS0_Lb0ELb0EvEELb0ELb0EEE
libLLVM.so.11:_ZN4llvm11Instruction10setIsExactEb
libLLVM.so.11:_ZN4llvm11Instruction11copyIRFlagsEPKNS_5ValueEb
libLLVM.so.11:_ZN4llvm11Instruction11insertAfterEPS0_
libLLVM.so.11:_ZN4llvm11Instruction11setMetadataENS_9StringRefEPNS_6MDNodeE
libLLVM.so.11:_ZN4llvm11Instruction11setMetadataEjPNS_6MDNodeE
libLLVM.so.11:_ZN4llvm11Instruction12copyMetadataERKS0_NS_8ArrayRefIjEE
libLLVM.so.11:_ZN4llvm11Instruction12insertBeforeEPS0_
libLLVM.so.11:_ZN4llvm11Instruction12setHasNoInfsEb
libLLVM.so.11:_ZN4llvm11Instruction12setHasNoNaNsEb
libLLVM.so.11:_ZN4llvm11Instruction12setSuccessorEjPNS_10BasicBlockE
libLLVM.so.11:_ZN4llvm11Instruction13getOpcodeNameEj
libLLVM.so.11:_ZN4llvm11Instruction13setAAMetadataERKNS_9AAMDNodesE
libLLVM.so.11:_ZN4llvm11Instruction15eraseFromParentEv
libLLVM.so.11:_ZN4llvm11Instruction16removeFromParentEv
libLLVM.so.11:_ZN4llvm11Instruction16setFastMathFlagsENS_13FastMathFlagsE
libLLVM.so.11:_ZN4llvm11Instruction16setHasApproxFuncEb
libLLVM.so.11:_ZN4llvm11Instruction16swapProfMetadataEv
libLLVM.so.11:_ZN4llvm11Instruction17copyFastMathFlagsENS_13FastMathFlagsE
libLLVM.so.11:_ZN4llvm11Instruction17copyFastMathFlagsEPKS0_
libLLVM.so.11:_ZN4llvm11Instruction18setHasAllowReassocEb
libLLVM.so.11:_ZN4llvm11Instruction18setHasNoSignedWrapEb
libLLVM.so.11:_ZN4llvm11Instruction19applyMergedLocationEPKNS_10DILocationES3_
libLLVM.so.11:_ZN4llvm11Instruction19setHasAllowContractEb
libLLVM.so.11:_ZN4llvm11Instruction19setHasNoSignedZerosEb
libLLVM.so.11:_ZN4llvm11Instruction20replaceSuccessorWithEPNS_10BasicBlockES2_
libLLVM.so.11:_ZN4llvm11Instruction20setHasNoUnsignedWrapEb
libLLVM.so.11:_ZN4llvm11Instruction21setHasAllowReciprocalEb
libLLVM.so.11:_ZN4llvm11Instruction24clearMetadataHashEntriesEv
libLLVM.so.11:_ZN4llvm11Instruction25dropPoisonGeneratingFlagsEv
libLLVM.so.11:_ZN4llvm11Instruction27dropUnknownNonDebugMetadataENS_8ArrayRefIjEE
libLLVM.so.11:_ZN4llvm11Instruction7setFastEb
libLLVM.so.11:_ZN4llvm11Instruction9moveAfterEPS0_
libLLVM.so.11:_ZN4llvm11Instruction9setParentEPNS_10BasicBlockE
libLLVM.so.11:_ZN4llvm11InstructionC1EPNS_4TypeEjPNS_3UseEjPNS_10BasicBlockE
libLLVM.so.11:_ZN4llvm11InstructionC1EPNS_4TypeEjPNS_3UseEjPS0_
libLLVM.so.11:_ZN4llvm11InstructionC2EPNS_4TypeEjPNS_3UseEjPNS_10BasicBlockE
libLLVM.so.11:_ZN4llvm11InstructionC2EPNS_4TypeEjPNS_3UseEjPS0_
libLLVM.so.11:_ZN4llvm11InstructionD1Ev
libLLVM.so.11:_ZN4llvm11InstructionD2Ev
libLLVM.so.11:_ZN4llvm11IntegerType3getERNS_11LLVMContextEj
libLLVM.so.11:_ZN4llvm11Interpreter10exitCalledENS_12GenericValueE
libLLVM.so.11:_ZN4llvm11Interpreter11runFunctionEPNS_8FunctionENS_8ArrayRefINS_12GenericValueEEE
libLLVM.so.11:_ZN4llvm11Interpreter12callFunctionEPNS_8FunctionENS_8ArrayRefINS_12GenericValueEEE
libLLVM.so.11:_ZN4llvm11Interpreter13visitCallBaseERNS_8CallBaseE
libLLVM.so.11:_ZN4llvm11Interpreter13visitFCmpInstERNS_8FCmpInstE
libLLVM.so.11:_ZN4llvm11Interpreter13visitICmpInstERNS_8ICmpInstE
libLLVM.so.11:_ZN4llvm11Interpreter13visitLoadInstERNS_8LoadInstE
libLLVM.so.11:_ZN4llvm11Interpreter13visitSExtInstERNS_8SExtInstE
libLLVM.so.11:_ZN4llvm11Interpreter13visitZExtInstERNS_8ZExtInstE
libLLVM.so.11:_ZN4llvm11Interpreter14visitFPExtInstERNS_9FPExtInstE
libLLVM.so.11:_ZN4llvm11Interpreter14visitStoreInstERNS_9StoreInstE
libLLVM.so.11:_ZN4llvm11Interpreter14visitTruncInstERNS_9TruncInstE
libLLVM.so.11:_ZN4llvm11Interpreter14visitVAArgInstERNS_9VAArgInstE
libLLVM.so.11:_ZN4llvm11Interpreter14visitVAEndInstERNS_9VAEndInstE
libLLVM.so.11:_ZN4llvm11Interpreter15executeSExtInstEPNS_5ValueEPNS_4TypeERNS_16ExecutionContextE
libLLVM.so.11:_ZN4llvm11Interpreter15executeZExtInstEPNS_5ValueEPNS_4TypeERNS_16ExecutionContextE
libLLVM.so.11:_ZN4llvm11Interpreter15getOperandValueEPNS_5ValueERNS_16ExecutionContextE
libLLVM.so.11:_ZN4llvm11Interpreter15visitAllocaInstERNS_10AllocaInstE
libLLVM.so.11:_ZN4llvm11Interpreter15visitBranchInstERNS_10BranchInstE
libLLVM.so.11:_ZN4llvm11Interpreter15visitFPToSIInstERNS_10FPToSIInstE
libLLVM.so.11:_ZN4llvm11Interpreter15visitFPToUIInstERNS_10FPToUIInstE
libLLVM.so.11:_ZN4llvm11Interpreter15visitReturnInstERNS_10ReturnInstE
libLLVM.so.11:_ZN4llvm11Interpreter15visitSIToFPInstERNS_10SIToFPInstE
libLLVM.so.11:_ZN4llvm11Interpreter15visitSelectInstERNS_10SelectInstE
libLLVM.so.11:_ZN4llvm11Interpreter15visitSwitchInstERNS_10SwitchInstE
libLLVM.so.11:_ZN4llvm11Interpreter15visitUIToFPInstERNS_10UIToFPInstE
libLLVM.so.11:_ZN4llvm11Interpreter15visitVACopyInstERNS_10VACopyInstE
libLLVM.so.11:_ZN4llvm11Interpreter16executeFPExtInstEPNS_5ValueEPNS_4TypeERNS_16ExecutionContextE
libLLVM.so.11:_ZN4llvm11Interpreter16executeTruncInstEPNS_5ValueEPNS_4TypeERNS_16ExecutionContextE
libLLVM.so.11:_ZN4llvm11Interpreter16visitBitCastInstERNS_11BitCastInstE
libLLVM.so.11:_ZN4llvm11Interpreter16visitFPTruncInstERNS_11FPTruncInstE
libLLVM.so.11:_ZN4llvm11Interpreter16visitVAStartInstERNS_11VAStartInstE
libLLVM.so.11:_ZN4llvm11Interpreter17executeFPToSIInstEPNS_5ValueEPNS_4TypeERNS_16ExecutionContextE
libLLVM.so.11:_ZN4llvm11Interpreter17executeFPToUIInstEPNS_5ValueEPNS_4TypeERNS_16ExecutionContextE
libLLVM.so.11:_ZN4llvm11Interpreter17executeSIToFPInstEPNS_5ValueEPNS_4TypeERNS_16ExecutionContextE
libLLVM.so.11:_ZN4llvm11Interpreter17executeUIToFPInstEPNS_5ValueEPNS_4TypeERNS_16ExecutionContextE
libLLVM.so.11:_ZN4llvm11Interpreter17runAtExitHandlersEv
libLLVM.so.11:_ZN4llvm11Interpreter17visitIntToPtrInstERNS_12IntToPtrInstE
libLLVM.so.11:_ZN4llvm11Interpreter17visitPtrToIntInstERNS_12PtrToIntInstE
libLLVM.so.11:_ZN4llvm11Interpreter18executeBitCastInstEPNS_5ValueEPNS_4TypeERNS_16ExecutionContextE
libLLVM.so.11:_ZN4llvm11Interpreter18executeFPTruncInstEPNS_5ValueEPNS_4TypeERNS_16ExecutionContextE
libLLVM.so.11:_ZN4llvm11Interpreter18visitIntrinsicInstERNS_13IntrinsicInstE
libLLVM.so.11:_ZN4llvm11Interpreter18visitUnaryOperatorERNS_13UnaryOperatorE
libLLVM.so.11:_ZN4llvm11Interpreter19executeGEPOperationEPNS_5ValueENS_25generic_gep_type_iteratorIPKNS_3UseEEES7_RNS_16ExecutionContextE
libLLVM.so.11:_ZN4llvm11Interpreter19executeIntToPtrInstEPNS_5ValueEPNS_4TypeERNS_16ExecutionContextE
libLLVM.so.11:_ZN4llvm11Interpreter19executePtrToIntInstEPNS_5ValueEPNS_4TypeERNS_16ExecutionContextE
libLLVM.so.11:_ZN4llvm11Interpreter19visitBinaryOperatorERNS_14BinaryOperatorE
libLLVM.so.11:_ZN4llvm11Interpreter19visitIndirectBrInstERNS_14IndirectBrInstE
libLLVM.so.11:_ZN4llvm11Interpreter20callExternalFunctionEPNS_8FunctionENS_8ArrayRefINS_12GenericValueEEE
libLLVM.so.11:_ZN4llvm11Interpreter20getConstantExprValueEPNS_12ConstantExprERNS_16ExecutionContextE
libLLVM.so.11:_ZN4llvm11Interpreter20visitInsertValueInstERNS_15InsertValueInstE
libLLVM.so.11:_ZN4llvm11Interpreter20visitUnreachableInstERNS_15UnreachableInstE
libLLVM.so.11:_ZN4llvm11Interpreter21SwitchToNewBasicBlockEPNS_10BasicBlockERNS_16ExecutionContextE
libLLVM.so.11:_ZN4llvm11Interpreter21visitExtractValueInstERNS_16ExtractValueInstE
libLLVM.so.11:_ZN4llvm11Interpreter22visitGetElementPtrInstERNS_17GetElementPtrInstE
libLLVM.so.11:_ZN4llvm11Interpreter22visitInsertElementInstERNS_17InsertElementInstE
libLLVM.so.11:_ZN4llvm11Interpreter22visitShuffleVectorInstERNS_17ShuffleVectorInstE
libLLVM.so.11:_ZN4llvm11Interpreter23visitExtractElementInstERNS_18ExtractElementInstE
libLLVM.so.11:_ZN4llvm11Interpreter27initializeExternalFunctionsEv
libLLVM.so.11:_ZN4llvm11Interpreter30popStackAndReturnValueToCallerEPNS_4TypeENS_12GenericValueE
libLLVM.so.11:_ZN4llvm11Interpreter3runEv
libLLVM.so.11:_ZN4llvm11Interpreter6createESt10unique_ptrINS_6ModuleESt14default_deleteIS2_EEPNSt7__cxx1112basic_stringIcSt11char_traitsIcESaIcEEE
libLLVM.so.11:_ZN4llvm11Interpreter8visitShlERNS_14BinaryOperatorE
libLLVM.so.11:_ZN4llvm11Interpreter9visitAShrERNS_14BinaryOperatorE
libLLVM.so.11:_ZN4llvm11Interpreter9visitLShrERNS_14BinaryOperatorE
libLLVM.so.11:_ZN4llvm11InterpreterC1ESt10unique_ptrINS_6ModuleESt14default_deleteIS2_EE
libLLVM.so.11:_ZN4llvm11InterpreterC2ESt10unique_ptrINS_6ModuleESt14default_deleteIS2_EE
libLLVM.so.11:_ZN4llvm11InterpreterD0Ev
libLLVM.so.11:_ZN4llvm11InterpreterD1Ev
libLLVM.so.11:_ZN4llvm11InterpreterD2Ev
libLLVM.so.11:_ZN4llvm11LLVMContext12removeModuleEPNS_6ModuleE
libLLVM.so.11:_ZN4llvm11LLVMContext14setOptPassGateERNS_11OptPassGateE
libLLVM.so.11:_ZN4llvm11LLVMContext16setYieldCallbackEPFvPS0_PvES2_
libLLVM.so.11:_ZN4llvm11LLVMContext20getDiagnosticHandlerEv
libLLVM.so.11:_ZN4llvm11LLVMContext20setDiagnosticHandlerEOSt10unique_ptrINS_17DiagnosticHandlerESt14default_deleteIS2_EEb
libLLVM.so.11:_ZN4llvm11LLVMContext20setDiscardValueNamesEb
libLLVM.so.11:_ZN4llvm11LLVMContext21getLLVMRemarkStreamerEv
libLLVM.so.11:_ZN4llvm11LLVMContext21getMainRemarkStreamerEv
libLLVM.so.11:_ZN4llvm11LLVMContext21setLLVMRemarkStreamerESt10unique_ptrINS_18LLVMRemarkStreamerESt14default_deleteIS2_EE
libLLVM.so.11:_ZN4llvm11LLVMContext21setMainRemarkStreamerESt10unique_ptrINS_7remarks14RemarkStreamerESt14default_deleteIS3_EE
libLLVM.so.11:_ZN4llvm11LLVMContext22getOrInsertSyncScopeIDENS_9StringRefE
libLLVM.so.11:_ZN4llvm11LLVMContext26enableDebugTypeODRUniquingEv
libLLVM.so.11:_ZN4llvm11LLVMContext26getDiagnosticMessagePrefixENS_18DiagnosticSeverityE
libLLVM.so.11:_ZN4llvm11LLVMContext27disableDebugTypeODRUniquingEv
libLLVM.so.11:_ZN4llvm11LLVMContext28setDiagnosticHandlerCallBackEPFvRKNS_14DiagnosticInfoEPvES4_b
libLLVM.so.11:_ZN4llvm11LLVMContext29setInlineAsmDiagnosticHandlerEPFvRKNS_12SMDiagnosticEPvjES4_
libLLVM.so.11:_ZN4llvm11LLVMContext30setDiagnosticsHotnessRequestedEb
libLLVM.so.11:_ZN4llvm11LLVMContext30setDiagnosticsHotnessThresholdEy
libLLVM.so.11:_ZN4llvm11LLVMContext5getGCB5cxx11ERKNS_8FunctionE
libLLVM.so.11:_ZN4llvm11LLVMContext5setGCERKNS_8FunctionENSt7__cxx1112basic_stringIcSt11char_traitsIcESaIcEEE
libLLVM.so.11:_ZN4llvm11LLVMContext5yieldEv
libLLVM.so.11:_ZN4llvm11LLVMContext8deleteGCERKNS_8FunctionE
libLLVM.so.11:_ZN4llvm11LLVMContext8diagnoseERKNS_14DiagnosticInfoE
libLLVM.so.11:_ZN4llvm11LLVMContext9addModuleEPNS_6ModuleE
libLLVM.so.11:_ZN4llvm11LLVMContext9emitErrorEPKNS_11InstructionERKNS_5TwineE
libLLVM.so.11:_ZN4llvm11LLVMContext9emitErrorERKNS_5TwineE
libLLVM.so.11:_ZN4llvm11LLVMContext9emitErrorEjRKNS_5TwineE
libLLVM.so.11:_ZN4llvm11LLVMContextC1Ev
libLLVM.so.11:_ZN4llvm11LLVMContextC2Ev
libLLVM.so.11:_ZN4llvm11LLVMContextD1Ev
libLLVM.so.11:_ZN4llvm11LLVMContextD2Ev
libLLVM.so.11:_ZN4llvm11MBFIWrapper12setBlockFreqEPKNS_17MachineBasicBlockENS_14BlockFrequencyE
libLLVM.so.11:_ZN4llvm11MBFIWrapper4viewERKNS_5TwineEb
libLLVM.so.11:_ZN4llvm11MCAsmLayout14layoutFragmentEPNS_10MCFragmentE
libLLVM.so.11:_ZN4llvm11MCAsmLayout23invalidateFragmentsFromEPNS_10MCFragmentE
libLLVM.so.11:_ZN4llvm11MCAsmLayoutC1ERNS_11MCAssemblerE
libLLVM.so.11:_ZN4llvm11MCAsmLayoutC2ERNS_11MCAssemblerE
libLLVM.so.11:_ZN4llvm11MCAsmParser10parseTokenENS_8AsmToken9TokenKindERKNS_5TwineE
libLLVM.so.11:_ZN4llvm11MCAsmParser13parseIntTokenERxRKNS_5TwineE
libLLVM.so.11:_ZN4llvm11MCAsmParser13parseTokenLocERNS_5SMLocE
libLLVM.so.11:_ZN4llvm11MCAsmParser14addErrorSuffixERKNS_5TwineE
libLLVM.so.11:_ZN4llvm11MCAsmParser15parseExpressionERPKNS_6MCExprE
libLLVM.so.11:_ZN4llvm11MCAsmParser15setTargetParserERNS_17MCTargetAsmParserE
libLLVM.so.11:_ZN4llvm11MCAsmParser18parseOptionalTokenENS_8AsmToken9TokenKindE
libLLVM.so.11:_ZN4llvm11MCAsmParser5ErrorENS_5SMLocERKNS_5TwineENS_7SMRangeE
libLLVM.so.11:_ZN4llvm11MCAsmParser5checkEbNS_5SMLocERKNS_5TwineE
libLLVM.so.11:_ZN4llvm11MCAsmParser5checkEbRKNS_5TwineE
libLLVM.so.11:_ZN4llvm11MCAsmParser8TokErrorERKNS_5TwineENS_7SMRangeE
libLLVM.so.11:_ZN4llvm11MCAsmParser8parseEOLERKNS_5TwineE
libLLVM.so.11:_ZN4llvm11MCAsmParser9parseManyENS_12function_refIFbvEEEb
libLLVM.so.11:_ZN4llvm11MCAsmParserC2Ev
libLLVM.so.11:_ZN4llvm11MCAsmParserD0Ev
libLLVM.so.11:_ZN4llvm11MCAsmParserD1Ev
libLLVM.so.11:_ZN4llvm11MCAsmParserD2Ev
libLLVM.so.11:_ZN4llvm11MCAssembler10layoutOnceERNS_11MCAsmLayoutE
libLLVM.so.11:_ZN4llvm11MCAssembler11handleFixupERKNS_11MCAsmLayoutERNS_10MCFragmentERKNS_7MCFixupE
libLLVM.so.11:_ZN4llvm11MCAssembler12finishLayoutERNS_11MCAsmLayoutE
libLLVM.so.11:_ZN4llvm11MCAssembler13relaxFragmentERNS_11MCAsmLayoutERNS_10MCFragmentE
libLLVM.so.11:_ZN4llvm11MCAssembler14registerSymbolERKNS_8MCSymbolEPb
libLLVM.so.11:_ZN4llvm11MCAssembler15registerSectionERNS_9MCSectionE
libLLVM.so.11:_ZN4llvm11MCAssembler15relaxCVDefRangeERNS_11MCAsmLayoutERNS_20MCCVDefRangeFragmentE
libLLVM.so.11:_ZN4llvm11MCAssembler16relaxInstructionERNS_11MCAsmLayoutERNS_19MCRelaxableFragmentE
libLLVM.so.11:_ZN4llvm11MCAssembler17layoutSectionOnceERNS_11MCAsmLayoutERNS_9MCSectionE
libLLVM.so.11:_ZN4llvm11MCAssembler18relaxBoundaryAlignERNS_11MCAsmLayoutERNS_23MCBoundaryAlignFragmentE
libLLVM.so.11:_ZN4llvm11MCAssembler18relaxDwarfLineAddrERNS_11MCAsmLayoutERNS_23MCDwarfLineAddrFragmentE
libLLVM.so.11:_ZN4llvm11MCAssembler22relaxCVInlineLineTableERNS_11MCAsmLayoutERNS_27MCCVInlineLineTableFragmentE
libLLVM.so.11:_ZN4llvm11MCAssembler27relaxDwarfCallFrameFragmentERNS_11MCAsmLayoutERNS_24MCDwarfCallFrameFragmentE
libLLVM.so.11:_ZN4llvm11MCAssembler5resetEv
libLLVM.so.11:_ZN4llvm11MCAssembler6FinishEv
libLLVM.so.11:_ZN4llvm11MCAssembler6layoutERNS_11MCAsmLayoutE
libLLVM.so.11:_ZN4llvm11MCAssembler8relaxLEBERNS_11MCAsmLayoutERNS_13MCLEBFragmentE
libLLVM.so.11:_ZN4llvm11MCAssemblerC1ERNS_9MCContextESt10unique_ptrINS_12MCAsmBackendESt14default_deleteIS4_EES3_INS_13MCCodeEmitterES5_IS8_EES3_INS_14MCObjectWriterES5_ISB_EE
libLLVM.so.11:_ZN4llvm11MCAssemblerC2ERNS_9MCContextESt10unique_ptrINS_12MCAsmBackendESt14default_deleteIS4_EES3_INS_13MCCodeEmitterES5_IS8_EES3_INS_14MCObjectWriterES5_ISB_EE
libLLVM.so.11:_ZN4llvm11MCAssemblerD1Ev
libLLVM.so.11:_ZN4llvm11MCAssemblerD2Ev
libLLVM.so.11:_ZN4llvm11MCSymbolELF13setVisibilityEj
libLLVM.so.11:_ZN4llvm11MCSymbolELF8setOtherEj
libLLVM.so.11:_ZN4llvm11MCUnaryExpr6createENS0_6OpcodeEPKNS_6MCExprERNS_9MCContextENS_5SMLocE
libLLVM.so.11:_ZN4llvm11MachineLoop11getTopBlockEv
libLLVM.so.11:_ZN4llvm11MachineLoop14getBottomBlockEv
libLLVM.so.11:_ZN4llvm11MachineLoop20findLoopControlBlockEv
libLLVM.so.11:_ZN4llvm11NamedMDNode10addOperandEPNS_6MDNodeE
libLLVM.so.11:_ZN4llvm11NamedMDNode10setOperandEjPNS_6MDNodeE
libLLVM.so.11:_ZN4llvm11NamedMDNode13clearOperandsEv
libLLVM.so.11:_ZN4llvm11NamedMDNode15eraseFromParentEv
libLLVM.so.11:_ZN4llvm11NamedMDNodeC1ERKNS_5TwineE
libLLVM.so.11:_ZN4llvm11NamedMDNodeC2ERKNS_5TwineE
libLLVM.so.11:_ZN4llvm11NamedMDNodeD1Ev
libLLVM.so.11:_ZN4llvm11NamedMDNodeD2Ev
libLLVM.so.11:_ZN4llvm11ObjectCache6anchorEv
libLLVM.so.11:_ZN4llvm11PassBuilder12isAAPassNameENS_9StringRefE
libLLVM.so.11:_ZN4llvm11PassBuilder13parseLoopPassERNS_11PassManagerINS_4LoopENS_15AnalysisManagerIS2_JRNS_27LoopStandardAnalysisResultsEEEEJS5_RNS_10LPMUpdaterEEEERKNS0_15PipelineElementEbb
libLLVM.so.11:_ZN4llvm11PassBuilder14parseCGSCCPassERNS_11PassManagerINS_13LazyCallGraph3SCCENS_15AnalysisManagerIS3_JRS2_EEEJS5_RNS_17CGSCCUpdateResultEEEERKNS0_15PipelineElementEbb
libLLVM.so.11:_ZN4llvm11PassBuilder15parseAAPassNameERNS_9AAManagerENS_9StringRefE
libLLVM.so.11:_ZN4llvm11PassBuilder15parseAAPipelineERNS_9AAManagerENS_9StringRefE
libLLVM.so.11:_ZN4llvm11PassBuilder15parseModulePassERNS_11PassManagerINS_6ModuleENS_15AnalysisManagerIS2_JEEEJEEERKNS0_15PipelineElementEbb
libLLVM.so.11:_ZN4llvm11PassBuilder17addPGOInstrPassesERNS_11PassManagerINS_6ModuleENS_15AnalysisManagerIS2_JEEEJEEEbNS0_17OptimizationLevelEbbNSt7__cxx1112basic_stringIcSt11char_traitsIcESaIcEEESD_
libLLVM.so.11:_ZN4llvm11PassBuilder17parseFunctionPassERNS_11PassManagerINS_8FunctionENS_15AnalysisManagerIS2_JEEEJEEERKNS0_15PipelineElementEbb
libLLVM.so.11:_ZN4llvm11PassBuilder17parsePassPipelineERNS_11PassManagerINS_13LazyCallGraph3SCCENS_15AnalysisManagerIS3_JRS2_EEEJS5_RNS_17CGSCCUpdateResultEEEENS_9StringRefEbb
libLLVM.so.11:_ZN4llvm11PassBuilder17parsePassPipelineERNS_11PassManagerINS_4LoopENS_15AnalysisManagerIS2_JRNS_27LoopStandardAnalysisResultsEEEEJS5_RNS_10LPMUpdaterEEEENS_9StringRefEbb
libLLVM.so.11:_ZN4llvm11PassBuilder17parsePassPipelineERNS_11PassManagerINS_6ModuleENS_15AnalysisManagerIS2_JEEEJEEENS_9StringRefEbb
libLLVM.so.11:_ZN4llvm11PassBuilder17parsePassPipelineERNS_11PassManagerINS_8FunctionENS_15AnalysisManagerIS2_JEEEJEEENS_9StringRefEbb
libLLVM.so.11:_ZN4llvm11PassBuilder17parsePipelineTextENS_9StringRefE
libLLVM.so.11:_ZN4llvm11PassBuilder18isAnalysisPassNameENS_9StringRefE
libLLVM.so.11:_ZN4llvm11PassBuilder20buildInlinerPipelineENS0_17OptimizationLevelENS0_12ThinLTOPhaseEb
libLLVM.so.11:_ZN4llvm11PassBuilder20crossRegisterProxiesERNS_15AnalysisManagerINS_4LoopEJRNS_27LoopStandardAnalysisResultsEEEERNS1_INS_8FunctionEJEEERNS1_INS_13LazyCallGraph3SCCEJRSA_EEERNS1_INS_6ModuleEJEEE
libLLVM.so.11:_ZN4llvm11PassBuilder20registerLoopAnalysesERNS_15AnalysisManagerINS_4LoopEJRNS_27LoopStandardAnalysisResultsEEEE
libLLVM.so.11:_ZN4llvm11PassBuilder21parseLoopPassPipelineERNS_11PassManagerINS_4LoopENS_15AnalysisManagerIS2_JRNS_27LoopStandardAnalysisResultsEEEEJS5_RNS_10LPMUpdaterEEEENS_8ArrayRefINS0_15PipelineElementEEEbb
libLLVM.so.11:_ZN4llvm11PassBuilder21registerCGSCCAnalysesERNS_15AnalysisManagerINS_13LazyCallGraph3SCCEJRS2_EEE
libLLVM.so.11:_ZN4llvm11PassBuilder22addPGOInstrPassesForO0ERNS_11PassManagerINS_6ModuleENS_15AnalysisManagerIS2_JEEEJEEEbbbNSt7__cxx1112basic_stringIcSt11char_traitsIcESaIcEEESC_
libLLVM.so.11:_ZN4llvm11PassBuilder22buildDefaultAAPipelineEv
libLLVM.so.11:_ZN4llvm11PassBuilder22parseCGSCCPassPipelineERNS_11PassManagerINS_13LazyCallGraph3SCCENS_15AnalysisManagerIS3_JRS2_EEEJS5_RNS_17CGSCCUpdateResultEEEENS_8ArrayRefINS0_15PipelineElementEEEbb
libLLVM.so.11:_ZN4llvm11PassBuilder22registerModuleAnalysesERNS_15AnalysisManagerINS_6ModuleEJEEE
libLLVM.so.11:_ZN4llvm11PassBuilder23buildLTODefaultPipelineENS0_17OptimizationLevelEbPNS_18ModuleSummaryIndexE
libLLVM.so.11:_ZN4llvm11PassBuilder23parseModulePassPipelineERNS_11PassManagerINS_6ModuleENS_15AnalysisManagerIS2_JEEEJEEENS_8ArrayRefINS0_15PipelineElementEEEbb
libLLVM.so.11:_ZN4llvm11PassBuilder24registerFunctionAnalysesERNS_15AnalysisManagerINS_8FunctionEJEEE
libLLVM.so.11:_ZN4llvm11PassBuilder25invokePeepholeEPCallbacksERNS_11PassManagerINS_8FunctionENS_15AnalysisManagerIS2_JEEEJEEENS0_17OptimizationLevelE
libLLVM.so.11:_ZN4llvm11PassBuilder25parseFunctionPassPipelineERNS_11PassManagerINS_8FunctionENS_15AnalysisManagerIS2_JEEEJEEENS_8ArrayRefINS0_15PipelineElementEEEbb
libLLVM.so.11:_ZN4llvm11PassBuilder27buildThinLTODefaultPipelineENS0_17OptimizationLevelEbPKNS_18ModuleSummaryIndexE
libLLVM.so.11:_ZN4llvm11PassBuilder29buildPerModuleDefaultPipelineENS0_17OptimizationLevelEbb
libLLVM.so.11:_ZN4llvm11PassBuilder30buildLTOPreLinkDefaultPipelineENS0_17OptimizationLevelEb
libLLVM.so.11:_ZN4llvm11PassBuilder31buildModuleOptimizationPipelineENS0_17OptimizationLevelEbb
libLLVM.so.11:_ZN4llvm11PassBuilder33buildModuleSimplificationPipelineENS0_17OptimizationLevelENS0_12ThinLTOPhaseEb
libLLVM.so.11:_ZN4llvm11PassBuilder34buildThinLTOPreLinkDefaultPipelineENS0_17OptimizationLevelEb
libLLVM.so.11:_ZN4llvm11PassBuilder35buildFunctionSimplificationPipelineENS0_17OptimizationLevelENS0_12ThinLTOPhaseEb
libLLVM.so.11:_ZN4llvm11PassBuilder37buildO1FunctionSimplificationPipelineENS0_17OptimizationLevelENS0_12ThinLTOPhaseEb
libLLVM.so.11:_ZN4llvm11PassManagerINS_13LazyCallGraph3SCCENS_15AnalysisManagerIS2_JRS1_EEEJS4_RNS_17CGSCCUpdateResultEEE3runERS2_RS5_S4_S7_
libLLVM.so.11:_ZN4llvm11PassManagerINS_4LoopENS_15AnalysisManagerIS1_JRNS_27LoopStandardAnalysisResultsEEEEJS4_RNS_10LPMUpdaterEEE3runERS1_RS5_S4_S7_
libLLVM.so.11:_ZN4llvm11PointerType18isValidElementTypeEPNS_4TypeE
libLLVM.so.11:_ZN4llvm11PointerType24isLoadableOrStorableTypeEPNS_4TypeE
libLLVM.so.11:_ZN4llvm11PointerType3getEPNS_4TypeEj
libLLVM.so.11:_ZN4llvm11PointerTypeC1EPNS_4TypeEj
libLLVM.so.11:_ZN4llvm11PointerTypeC2EPNS_4TypeEj
libLLVM.so.11:_ZN4llvm11PromotePass3runERNS_8FunctionERNS_15AnalysisManagerIS1_JEEE
libLLVM.so.11:_ZN4llvm11RuntimeDyld10loadObjectERKNS_6object10ObjectFileE
libLLVM.so.11:_ZN4llvm11RuntimeDyld13MemoryManager6anchorEv
libLLVM.so.11:_ZN4llvm11RuntimeDyld14getErrorStringEv
libLLVM.so.11:_ZN4llvm11RuntimeDyld16LoadedObjectInfo6anchorEv
libLLVM.so.11:_ZN4llvm11RuntimeDyld16registerEHFramesEv
libLLVM.so.11:_ZN4llvm11RuntimeDyld17mapSectionAddressEPKvy
libLLVM.so.11:_ZN4llvm11RuntimeDyld18deregisterEHFramesEv
libLLVM.so.11:_ZN4llvm11RuntimeDyld18resolveRelocationsEv
libLLVM.so.11:_ZN4llvm11RuntimeDyld22reassignSectionAddressEjy
libLLVM.so.11:_ZN4llvm11RuntimeDyld32finalizeWithMemoryManagerLockingEv
libLLVM.so.11:_ZN4llvm11RuntimeDyld8hasErrorEv
libLLVM.so.11:_ZN4llvm11RuntimeDyldC1ERNS0_13MemoryManagerERNS_17JITSymbolResolverE
libLLVM.so.11:_ZN4llvm11RuntimeDyldC2ERNS0_13MemoryManagerERNS_17JITSymbolResolverE
libLLVM.so.11:_ZN4llvm11RuntimeDyldD1Ev
libLLVM.so.11:_ZN4llvm11RuntimeDyldD2Ev
libLLVM.so.11:_ZN4llvm11SCEVUnknown19allUsesReplacedWithEPNS_5ValueE
libLLVM.so.11:_ZN4llvm11SCEVUnknown7deletedEv
libLLVM.so.11:_ZN4llvm11ScheduleDAG8clearDAGEv
libLLVM.so.11:_ZN4llvm11ScheduleDAG9viewGraphERKNS_5TwineES3_
libLLVM.so.11:_ZN4llvm11ScheduleDAG9viewGraphEv
libLLVM.so.11:_ZN4llvm11ScheduleDAGC2ERNS_15MachineFunctionE
libLLVM.so.11:_ZN4llvm11ScheduleDAGD0Ev
libLLVM.so.11:_ZN4llvm11ScheduleDAGD1Ev
libLLVM.so.11:_ZN4llvm11ScheduleDAGD2Ev
libLLVM.so.11:_ZN4llvm11SinkingPass3runERNS_8FunctionERNS_15AnalysisManagerIS1_JEEE
libLLVM.so.11:_ZN4llvm11SlotIndexes13releaseMemoryEv
libLLVM.so.11:_ZN4llvm11SlotIndexes15renumberIndexesENS_14ilist_iteratorINS_12ilist_detail12node_optionsINS_14IndexListEntryELb0ELb0EvEELb0ELb0EEE
libLLVM.so.11:_ZN4llvm11SlotIndexes20repairIndexesInRangeEPNS_17MachineBasicBlockENS_26MachineInstrBundleIteratorINS_12MachineInstrELb0EEES5_
libLLVM.so.11:_ZN4llvm11SlotIndexes20runOnMachineFunctionERNS_15MachineFunctionE
libLLVM.so.11:_ZN4llvm11SlotIndexes26removeMachineInstrFromMapsERNS_12MachineInstrEb
libLLVM.so.11:_ZN4llvm11SlotIndexes32removeSingleMachineInstrFromMapsERNS_12MachineInstrE
libLLVM.so.11:_ZN4llvm11SlotIndexesC1Ev
libLLVM.so.11:_ZN4llvm11SlotIndexesC2Ev
libLLVM.so.11:_ZN4llvm11SlotIndexesD0Ev
libLLVM.so.11:_ZN4llvm11SlotIndexesD1Ev
libLLVM.so.11:_ZN4llvm11SlotIndexesD2Ev
libLLVM.so.11:_ZN4llvm11SlotTracker11getGUIDSlotEy
libLLVM.so.11:_ZN4llvm11SlotTracker12getLocalSlotEPKNS_5ValueE
libLLVM.so.11:_ZN4llvm11SlotTracker12processIndexEv
libLLVM.so.11:_ZN4llvm11SlotTracker13getGlobalSlotEPKNS_11GlobalValueE
libLLVM.so.11:_ZN4llvm11SlotTracker13getTypeIdSlotENS_9StringRefE
libLLVM.so.11:_ZN4llvm11SlotTracker13processModuleEv
libLLVM.so.11:_ZN4llvm11SlotTracker13purgeFunctionEv
libLLVM.so.11:_ZN4llvm11SlotTracker14CreateGUIDSlotEy
libLLVM.so.11:_ZN4llvm11SlotTracker15getMetadataSlotEPKNS_6MDNodeE
libLLVM.so.11:_ZN4llvm11SlotTracker15processFunctionEv
libLLVM.so.11:_ZN4llvm11SlotTracker16CreateModuleSlotEPKNS_11GlobalValueE
libLLVM.so.11:_ZN4llvm11SlotTracker16CreateTypeIdSlotENS_9StringRefE
libLLVM.so.11:_ZN4llvm11SlotTracker17getModulePathSlotENS_9StringRefE
libLLVM.so.11:_ZN4llvm11SlotTracker18CreateFunctionSlotEPKNS_5ValueE
libLLVM.so.11:_ZN4llvm11SlotTracker18CreateMetadataSlotEPKNS_6MDNodeE
libLLVM.so.11:_ZN4llvm11SlotTracker21getAttributeGroupSlotENS_12AttributeSetE
libLLVM.so.11:_ZN4llvm11SlotTracker22CreateAttributeSetSlotENS_12AttributeSetE
libLLVM.so.11:_ZN4llvm11SlotTracker23initializeIndexIfNeededEv
libLLVM.so.11:_ZN4llvm11SlotTracker23processFunctionMetadataERKNS_8FunctionE
libLLVM.so.11:_ZN4llvm11SlotTracker26processInstructionMetadataERKNS_11InstructionE
libLLVM.so.11:_ZN4llvm11SlotTracker27processGlobalObjectMetadataERKNS_12GlobalObjectE
libLLVM.so.11:_ZN4llvm11SlotTrackerC1EPKNS_18ModuleSummaryIndexE
libLLVM.so.11:_ZN4llvm11SlotTrackerC1EPKNS_6ModuleEb
libLLVM.so.11:_ZN4llvm11SlotTrackerC1EPKNS_8FunctionEb
libLLVM.so.11:_ZN4llvm11SlotTrackerC2EPKNS_18ModuleSummaryIndexE
libLLVM.so.11:_ZN4llvm11SlotTrackerC2EPKNS_6ModuleEb
libLLVM.so.11:_ZN4llvm11SlotTrackerC2EPKNS_8FunctionEb
libLLVM.so.11:_ZN4llvm11SplitModuleESt10unique_ptrINS_6ModuleESt14default_deleteIS1_EEjNS_12function_refIFvS4_EEEb
libLLVM.so.11:_ZN4llvm11SplitStringENS_9StringRefERNS_15SmallVectorImplIS0_EES0_
libLLVM.so.11:_ZN4llvm11StringErrorC1ERKNS_5TwineESt10error_code
libLLVM.so.11:_ZN4llvm11StringErrorC1ESt10error_codeRKNS_5TwineE
libLLVM.so.11:_ZN4llvm11StringErrorC2ERKNS_5TwineESt10error_code
libLLVM.so.11:_ZN4llvm11StringErrorC2ESt10error_codeRKNS_5TwineE
libLLVM.so.11:_ZN4llvm11StringSaver4saveENS_9StringRefE
libLLVM.so.11:_ZN4llvm11TypeBasedAA3runERNS_8FunctionERNS_15AnalysisManagerIS1_JEEE
libLLVM.so.11:_ZN4llvm11VPBlockBase17getExitBasicBlockEv
libLLVM.so.11:_ZN4llvm11VPBlockBase18getEntryBasicBlockEv
libLLVM.so.11:_ZN4llvm11VPBlockBase31getEnclosingBlockWithSuccessorsEv
libLLVM.so.11:_ZN4llvm11VPBlockBase33getEnclosingBlockWithPredecessorsEv
libLLVM.so.11:_ZN4llvm11VPBlockBase7getPlanEv
libLLVM.so.11:_ZN4llvm11VPBlockBase7setPlanEPNS_5VPlanE
libLLVM.so.11:_ZN4llvm11VPBlockBase9deleteCFGEPS0_
libLLVM.so.11:_ZN4llvm11VPIntrinsic12GetForOpcodeEj
libLLVM.so.11:_ZN4llvm11VPIntrinsic13IsVPIntrinsicEj
libLLVM.so.11:_ZN4llvm11VPIntrinsic15GetMaskParamPosEj
libLLVM.so.11:_ZN4llvm11VPIntrinsic23GetVectorLengthParamPosEj
libLLVM.so.11:_ZN4llvm11VPIntrinsic24GetFunctionalOpcodeForVPEj
libLLVM.so.11:_ZN4llvm11VRegRenamer14doVRegRenamingERKSt3mapIjjSt4lessIjESaISt4pairIKjjEEE
libLLVM.so.11:_ZN4llvm11VRegRenamer16getVRegRenameMapERKSt6vectorINS0_9NamedVRegESaIS2_EE
libLLVM.so.11:_ZN4llvm11VRegRenamer16renameInstsInMBBEPNS_17MachineBasicBlockE
libLLVM.so.11:_ZN4llvm11VRegRenamer21createVirtualRegisterEj
libLLVM.so.11:_ZN4llvm11VRegRenamer24getInstructionOpcodeHashB5cxx11ERNS_12MachineInstrE
libLLVM.so.11:_ZN4llvm11VRegRenamer34createVirtualRegisterWithLowerNameEjNS_9StringRefE
libLLVM.so.11:_ZN4llvm11ValueMapper11mapConstantERKNS_8ConstantE
libLLVM.so.11:_ZN4llvm11ValueMapper11mapMetadataERKNS_8MetadataE
libLLVM.so.11:_ZN4llvm11ValueMapper13remapFunctionERNS_8FunctionE
libLLVM.so.11:_ZN4llvm11ValueMapper16remapInstructionERNS_11InstructionE
libLLVM.so.11:_ZN4llvm11ValueMapper21scheduleRemapFunctionERNS_8FunctionEj
libLLVM.so.11:_ZN4llvm11ValueMapper28scheduleMapAppendingVariableERNS_14GlobalVariableEPNS_8ConstantEbNS_8ArrayRefIS4_EEj
libLLVM.so.11:_ZN4llvm11ValueMapper28scheduleMapGlobalInitializerERNS_14GlobalVariableERNS_8ConstantEj
libLLVM.so.11:_ZN4llvm11ValueMapper31registerAlternateMappingContextERNS_8ValueMapIPKNS_5ValueENS_14WeakTrackingVHENS_14ValueMapConfigIS4_NS_3sys10SmartMutexILb0EEEEEEEPNS_17ValueMaterializerE
libLLVM.so.11:_ZN4llvm11ValueMapper31scheduleMapGlobalIndirectSymbolERNS_20GlobalIndirectSymbolERNS_8ConstantEj
libLLVM.so.11:_ZN4llvm11ValueMapper8addFlagsENS_10RemapFlagsE
libLLVM.so.11:_ZN4llvm11ValueMapper8mapValueERKNS_5ValueE
libLLVM.so.11:_ZN4llvm11ValueMapper9mapMDNodeERKNS_6MDNodeE
libLLVM.so.11:_ZN4llvm11ValueMapperC1ERNS_8ValueMapIPKNS_5ValueENS_14WeakTrackingVHENS_14ValueMapConfigIS4_NS_3sys10SmartMutexILb0EEEEEEENS_10RemapFlagsEPNS_20ValueMapTypeRemapperEPNS_17ValueMaterializerE
libLLVM.so.11:_ZN4llvm11ValueMapperC2ERNS_8ValueMapIPKNS_5ValueENS_14WeakTrackingVHENS_14ValueMapConfigIS4_NS_3sys10SmartMutexILb0EEEEEEENS_10RemapFlagsEPNS_20ValueMapTypeRemapperEPNS_17ValueMaterializerE
libLLVM.so.11:_ZN4llvm11ValueMapperD1Ev
libLLVM.so.11:_ZN4llvm11ValueMapperD2Ev
libLLVM.so.11:_ZN4llvm11biasPhysRegEPKNS_5SUnitEb
libLLVM.so.11:_ZN4llvm11emitMemCCpyEPNS_5ValueES1_S1_S1_RNS_13IRBuilderBaseEPKNS_17TargetLibraryInfoE
libLLVM.so.11:_ZN4llvm11emitPutCharEPNS_5ValueERNS_13IRBuilderBaseEPKNS_17TargetLibraryInfoE
libLLVM.so.11:_ZN4llvm11emitSPrintfEPNS_5ValueES1_NS_8ArrayRefIS1_EERNS_13IRBuilderBaseEPKNS_17TargetLibraryInfoE
libLLVM.so.11:_ZN4llvm11emitStpNCpyEPNS_5ValueES1_S1_RNS_13IRBuilderBaseEPKNS_17TargetLibraryInfoE
libLLVM.so.11:_ZN4llvm11emitStrLCatEPNS_5ValueES1_S1_RNS_13IRBuilderBaseEPKNS_17TargetLibraryInfoE
libLLVM.so.11:_ZN4llvm11emitStrLCpyEPNS_5ValueES1_S1_RNS_13IRBuilderBaseEPKNS_17TargetLibraryInfoE
libLLVM.so.11:_ZN4llvm11emitStrNCatEPNS_5ValueES1_S1_RNS_13IRBuilderBaseEPKNS_17TargetLibraryInfoE
libLLVM.so.11:_ZN4llvm11emitStrNCmpEPNS_5ValueES1_S1_RNS_13IRBuilderBaseERKNS_10DataLayoutEPKNS_17TargetLibraryInfoE
libLLVM.so.11:_ZN4llvm11emitStrNCpyEPNS_5ValueES1_S1_RNS_13IRBuilderBaseEPKNS_17TargetLibraryInfoE
libLLVM.so.11:_ZN4llvm11getICmpCodeEPKNS_8ICmpInstEb
libLLVM.so.11:_ZN4llvm11getWeakLeftEPKNS_5SUnitEb
libLLVM.so.11:_ZN4llvm11hoistRegionEPNS_15DomTreeNodeBaseINS_10BasicBlockEEEPNS_9AAResultsEPNS_8LoopInfoEPNS_13DominatorTreeEPNS_17TargetLibraryInfoEPNS_4LoopEPNS_15AliasSetTrackerEPNS_16MemorySSAUpdaterEPNS_15ScalarEvolutionEPNS_17ICFLoopSafetyInfoERNS_21SinkAndHoistLICMFlagsEPNS_25OptimizationRemarkEmitterE
libLLVM.so.11:_ZN4llvm11isNoAliasFnEPKNS_5ValueEPKNS_17TargetLibraryInfoEb
libLLVM.so.11:_ZN4llvm11ms_demangle9Demangler10copyStringENS_16itanium_demangle10StringViewE
libLLVM.so.11:_ZN4llvm11ms_demangle9Demangler12demangleTypeERNS_16itanium_demangle10StringViewENS0_19QualifierMangleModeE
libLLVM.so.11:_ZN4llvm11ms_demangle9Demangler14demangleNumberERNS_16itanium_demangle10StringViewE
libLLVM.so.11:_ZN4llvm11ms_demangle9Demangler14demangleSignedERNS_16itanium_demangle10StringViewE
libLLVM.so.11:_ZN4llvm11ms_demangle9Demangler14memorizeStringENS_16itanium_demangle10StringViewE
libLLVM.so.11:_ZN4llvm11ms_demangle9Demangler15demangleMD5NameERNS_16itanium_demangle10StringViewE
libLLVM.so.11:_ZN4llvm11ms_demangle9Demangler16demangleUnsignedERNS_16itanium_demangle10StringViewE
libLLVM.so.11:_ZN4llvm11ms_demangle9Demangler17demangleArrayTypeERNS_16itanium_demangle10StringViewE
libLLVM.so.11:_ZN4llvm11ms_demangle9Demangler17demangleClassTypeERNS_16itanium_demangle10StringViewE
libLLVM.so.11:_ZN4llvm11ms_demangle9Demangler18demangleCustomTypeERNS_16itanium_demangle10StringViewE
libLLVM.so.11:_ZN4llvm11ms_demangle9Demangler18demangleDeclaratorERNS_16itanium_demangle10StringViewE
libLLVM.so.11:_ZN4llvm11ms_demangle9Demangler18demangleQualifiersERNS_16itanium_demangle10StringViewE
libLLVM.so.11:_ZN4llvm11ms_demangle9Demangler18demangleSimpleNameERNS_16itanium_demangle10StringViewEb
libLLVM.so.11:_ZN4llvm11ms_demangle9Demangler18dumpBackReferencesEv
libLLVM.so.11:_ZN4llvm11ms_demangle9Demangler18memorizeIdentifierEPNS0_14IdentifierNodeE
libLLVM.so.11:_ZN4llvm11ms_demangle9Demangler18parseTagUniqueNameERNS_16itanium_demangle10StringViewE
libLLVM.so.11:_ZN4llvm11ms_demangle9Demangler19demangleBackRefNameERNS_16itanium_demangle10StringViewE
libLLVM.so.11:_ZN4llvm11ms_demangle9Demangler19demangleCharLiteralERNS_16itanium_demangle10StringViewE
libLLVM.so.11:_ZN4llvm11ms_demangle9Demangler19demanglePointerTypeERNS_16itanium_demangle10StringViewE
libLLVM.so.11:_ZN4llvm11ms_demangle9Demangler20demangleFunctionTypeERNS_16itanium_demangle10StringViewEb
libLLVM.so.11:_ZN4llvm11ms_demangle9Demangler20demangleInitFiniStubERNS_16itanium_demangle10StringViewEb
libLLVM.so.11:_ZN4llvm11ms_demangle9Demangler20demangleSimpleStringERNS_16itanium_demangle10StringViewEb
libLLVM.so.11:_ZN4llvm11ms_demangle9Demangler20demangleTypeinfoNameERNS_16itanium_demangle10StringViewE
libLLVM.so.11:_ZN4llvm11ms_demangle9Demangler20demangleWcharLiteralERNS_16itanium_demangle10StringViewE
libLLVM.so.11:_ZN4llvm11ms_demangle9Demangler21demangleEncodedSymbolERNS_16itanium_demangle10StringViewEPNS0_17QualifiedNameNodeE
libLLVM.so.11:_ZN4llvm11ms_demangle9Demangler21demangleFunctionClassERNS_16itanium_demangle10StringViewE
libLLVM.so.11:_ZN4llvm11ms_demangle9Demangler21demanglePrimitiveTypeERNS_16itanium_demangle10StringViewE
libLLVM.so.11:_ZN4llvm11ms_demangle9Demangler21demangleStringLiteralERNS_16itanium_demangle10StringViewE
libLLVM.so.11:_ZN4llvm11ms_demangle9Demangler22demangleNameScopeChainERNS_16itanium_demangle10StringViewEPNS0_14IdentifierNodeE
libLLVM.so.11:_ZN4llvm11ms_demangle9Demangler22demangleNameScopePieceERNS_16itanium_demangle10StringViewE
libLLVM.so.11:_ZN4llvm11ms_demangle9Demangler22demangleVcallThunkNodeERNS_16itanium_demangle10StringViewE
libLLVM.so.11:_ZN4llvm11ms_demangle9Demangler23demangleUntypedVariableERNS0_14ArenaAllocatorERNS_16itanium_demangle10StringViewES5_
libLLVM.so.11:_ZN4llvm11ms_demangle9Demangler24demangleFunctionEncodingERNS_16itanium_demangle10StringViewE
libLLVM.so.11:_ZN4llvm11ms_demangle9Demangler24demangleLocalStaticGuardERNS_16itanium_demangle10StringViewEb
libLLVM.so.11:_ZN4llvm11ms_demangle9Demangler24demangleSpecialIntrinsicERNS_16itanium_demangle10StringViewE
libLLVM.so.11:_ZN4llvm11ms_demangle9Demangler24demangleVariableEncodingERNS_16itanium_demangle10StringViewENS0_12StorageClassE
libLLVM.so.11:_ZN4llvm11ms_demangle9Demangler25demangleCallingConventionERNS_16itanium_demangle10StringViewE
libLLVM.so.11:_ZN4llvm11ms_demangle9Demangler25demangleMemberPointerTypeERNS_16itanium_demangle10StringViewE
libLLVM.so.11:_ZN4llvm11ms_demangle9Demangler26demangleStructorIdentifierERNS_16itanium_demangle10StringViewEb
libLLVM.so.11:_ZN4llvm11ms_demangle9Demangler26demangleThrowSpecificationERNS_16itanium_demangle10StringViewE
libLLVM.so.11:_ZN4llvm11ms_demangle9Demangler27demangleUnqualifiedTypeNameERNS_16itanium_demangle10StringViewEb
libLLVM.so.11:_ZN4llvm11ms_demangle9Demangler28demanglePointerExtQualifiersERNS_16itanium_demangle10StringViewE
libLLVM.so.11:_ZN4llvm11ms_demangle9Demangler28demangleVariableStorageClassERNS_16itanium_demangle10StringViewE
libLLVM.so.11:_ZN4llvm11ms_demangle9Demangler29demangleFunctionParameterListERNS_16itanium_demangle10StringViewERb
libLLVM.so.11:_ZN4llvm11ms_demangle9Demangler29demangleTemplateParameterListERNS_16itanium_demangle10StringViewE
libLLVM.so.11:_ZN4llvm11ms_demangle9Demangler29demangleUnqualifiedSymbolNameERNS_16itanium_demangle10StringViewENS0_19NameBackrefBehaviorE
libLLVM.so.11:_ZN4llvm11ms_demangle9Demangler30demangleAnonymousNamespaceNameERNS_16itanium_demangle10StringViewE
libLLVM.so.11:_ZN4llvm11ms_demangle9Demangler30demangleFullyQualifiedTypeNameERNS_16itanium_demangle10StringViewE
libLLVM.so.11:_ZN4llvm11ms_demangle9Demangler30demangleFunctionIdentifierCodeERNS_16itanium_demangle10StringViewE
libLLVM.so.11:_ZN4llvm11ms_demangle9Demangler30demangleFunctionIdentifierCodeERNS_16itanium_demangle10StringViewENS0_27FunctionIdentifierCodeGroupE
libLLVM.so.11:_ZN4llvm11ms_demangle9Demangler30demangleLocallyScopedNamePieceERNS_16itanium_demangle10StringViewE
libLLVM.so.11:_ZN4llvm11ms_demangle9Demangler30demangleSpecialTableSymbolNodeERNS_16itanium_demangle10StringViewENS0_20SpecialIntrinsicKindE
libLLVM.so.11:_ZN4llvm11ms_demangle9Demangler30translateIntrinsicFunctionCodeEcNS0_27FunctionIdentifierCodeGroupE
libLLVM.so.11:_ZN4llvm11ms_demangle9Demangler32demangleFullyQualifiedSymbolNameERNS_16itanium_demangle10StringViewE
libLLVM.so.11:_ZN4llvm11ms_demangle9Demangler33demangleLiteralOperatorIdentifierERNS_16itanium_demangle10StringViewE
libLLVM.so.11:_ZN4llvm11ms_demangle9Demangler33demangleTemplateInstantiationNameERNS_16itanium_demangle10StringViewENS0_19NameBackrefBehaviorE
libLLVM.so.11:_ZN4llvm11ms_demangle9Demangler35demangleRttiBaseClassDescriptorNodeERNS0_14ArenaAllocatorERNS_16itanium_demangle10StringViewE
libLLVM.so.11:_ZN4llvm11ms_demangle9Demangler36demangleConversionOperatorIdentifierERNS_16itanium_demangle10StringViewE
libLLVM.so.11:_ZN4llvm11ms_demangle9Demangler5parseERNS_16itanium_demangle10StringViewE
libLLVM.so.11:_ZN4llvm11parseIRFileENS_9StringRefERNS_12SMDiagnosticERNS_11LLVMContextENS_12function_refIFNS_8OptionalINSt7__cxx1112basic_stringIcSt11char_traitsIcESaIcEEEEES0_EEE
libLLVM.so.11:_ZN4llvm11parseMDNodeERNS_25PerFunctionMIParsingStateERPNS_6MDNodeENS_9StringRefERNS_12SMDiagnosticE
libLLVM.so.11:_ZN4llvm11parseModuleEPKhjRNS_11LLVMContextE
libLLVM.so.11:_ZN4llvm11promoteCallERNS_8CallBaseEPNS_8FunctionEPPNS_8CastInstE
libLLVM.so.11:_ZN4llvm11raw_ostream10resetColorEv
libLLVM.so.11:_ZN4llvm11raw_ostream10write_uuidEPKh
libLLVM.so.11:_ZN4llvm11raw_ostream11SetBufferedEv
libLLVM.so.11:_ZN4llvm11raw_ostream11changeColorENS0_6ColorsEbb
libLLVM.so.11:_ZN4llvm11raw_ostream11write_zerosEj
libLLVM.so.11:_ZN4llvm11raw_ostream12reverseColorEv
libLLVM.so.11:_ZN4llvm11raw_ostream13write_escapedENS_9StringRefEb
libLLVM.so.11:_ZN4llvm11raw_ostream14copy_to_bufferEPKcj
libLLVM.so.11:_ZN4llvm11raw_ostream14flush_nonemptyEv
libLLVM.so.11:_ZN4llvm11raw_ostream14prepare_colorsEv
libLLVM.so.11:_ZN4llvm11raw_ostream16SetBufferAndModeEPcjNS0_10BufferKindE
libLLVM.so.11:_ZN4llvm11raw_ostream21flush_tied_then_writeEPKcj
libLLVM.so.11:_ZN4llvm11raw_ostream5writeEPKcj
libLLVM.so.11:_ZN4llvm11raw_ostream5writeEh
libLLVM.so.11:_ZN4llvm11raw_ostream6anchorEv
libLLVM.so.11:_ZN4llvm11raw_ostream6indentEj
libLLVM.so.11:_ZN4llvm11raw_ostream9write_hexEy
libLLVM.so.11:_ZN4llvm11raw_ostreamD0Ev
libLLVM.so.11:_ZN4llvm11raw_ostreamD1Ev
libLLVM.so.11:_ZN4llvm11raw_ostreamD2Ev
libLLVM.so.11:_ZN4llvm11raw_ostreamlsENS0_6ColorsE
libLLVM.so.11:_ZN4llvm11raw_ostreamlsEPKv
libLLVM.so.11:_ZN4llvm11raw_ostreamlsERKNS_14FormattedBytesE
libLLVM.so.11:_ZN4llvm11raw_ostreamlsERKNS_15FormattedNumberE
libLLVM.so.11:_ZN4llvm11raw_ostreamlsERKNS_15FormattedStringE
libLLVM.so.11:_ZN4llvm11raw_ostreamlsERKNS_18format_object_baseE
libLLVM.so.11:_ZN4llvm11raw_ostreamlsERKNS_19formatv_object_baseE
libLLVM.so.11:_ZN4llvm11raw_ostreamlsEd
libLLVM.so.11:_ZN4llvm11raw_ostreamlsEl
libLLVM.so.11:_ZN4llvm11raw_ostreamlsEm
libLLVM.so.11:_ZN4llvm11raw_ostreamlsEx
libLLVM.so.11:_ZN4llvm11raw_ostreamlsEy
libLLVM.so.11:_ZN4llvm11reassociate7XorOpndC1EPNS_5ValueE
libLLVM.so.11:_ZN4llvm11reassociate7XorOpndC2EPNS_5ValueE
libLLVM.so.11:_ZN4llvm11simplifyCFGEPNS_10BasicBlockERKNS_19TargetTransformInfoERKNS_18SimplifyCFGOptionsEPNS_15SmallPtrSetImplIS1_EE
libLLVM.so.11:_ZN4llvm11tryPressureERKNS_14PressureChangeES2_RNS_20GenericSchedulerBase14SchedCandidateES5_NS3_10CandReasonEPKNS_18TargetRegisterInfoERKNS_15MachineFunctionE
libLLVM.so.11:_ZN4llvm11writeModuleERKNS_6ModuleEPhj
libLLVM.so.11:_ZN4llvm12AAWillReturn17createForPositionERKNS_10IRPositionERNS_10AttributorE
libLLVM.so.11:_ZN4llvm12AddressesMapD0Ev
libLLVM.so.11:_ZN4llvm12AddressesMapD1Ev
libLLVM.so.11:_ZN4llvm12AddressesMapD2Ev
libLLVM.so.11:_ZN4llvm12AttributeSet3getERNS_11LLVMContextENS_8ArrayRefINS_9AttributeEEE
libLLVM.so.11:_ZN4llvm12AttributeSet3getERNS_11LLVMContextERKNS_11AttrBuilderE
libLLVM.so.11:_ZN4llvm12BasicTTIImplC1EPKNS_13TargetMachineERKNS_8FunctionE
libLLVM.so.11:_ZN4llvm12BasicTTIImplC2EPKNS_13TargetMachineERKNS_8FunctionE
libLLVM.so.11:_ZN4llvm12BlockAddress19destroyConstantImplEv
libLLVM.so.11:_ZN4llvm12BlockAddress23handleOperandChangeImplEPNS_5ValueES2_
libLLVM.so.11:_ZN4llvm12BlockAddress3getEPNS_10BasicBlockE
libLLVM.so.11:_ZN4llvm12BlockAddress3getEPNS_8FunctionEPNS_10BasicBlockE
libLLVM.so.11:_ZN4llvm12BlockAddress6lookupEPKNS_10BasicBlockE
libLLVM.so.11:_ZN4llvm12BlockAddressC1EPNS_8FunctionEPNS_10BasicBlockE
libLLVM.so.11:_ZN4llvm12BlockAddressC2EPNS_8FunctionEPNS_10BasicBlockE
libLLVM.so.11:_ZN4llvm12CallGraphSCC10DeleteNodeEPNS_13CallGraphNodeE
libLLVM.so.11:_ZN4llvm12CallGraphSCC11ReplaceNodeEPNS_13CallGraphNodeES2_
libLLVM.so.11:_ZN4llvm12CallLowering12ValueHandler14extendRegisterENS_8RegisterERNS_11CCValAssignEj
libLLVM.so.11:_ZN4llvm12CallLowering12ValueHandler6anchorEv
libLLVM.so.11:_ZN4llvm12CallLowering6anchorEv
libLLVM.so.11:_ZN4llvm12CodeViewYAML10LeafRecord18fromCodeViewRecordENS_8codeview8CVRecordINS2_12TypeLeafKindEEE
libLLVM.so.11:_ZN4llvm12CodeViewYAML10fromDebugHENS_8ArrayRefIhEE
libLLVM.so.11:_ZN4llvm12CodeViewYAML10fromDebugSENS_8ArrayRefIhEERKNS_8codeview22StringsAndChecksumsRefE
libLLVM.so.11:_ZN4llvm12CodeViewYAML10fromDebugTENS_8ArrayRefIhEENS_9StringRefE
libLLVM.so.11:_ZN4llvm12CodeViewYAML12SymbolRecord18fromCodeViewSymbolENS_8codeview8CVRecordINS2_10SymbolKindEEE
libLLVM.so.11:_ZN4llvm12CodeViewYAML19YAMLDebugSubsection21fromCodeViewSubectionERKNS_8codeview22StringsAndChecksumsRefERKNS2_21DebugSubsectionRecordE
libLLVM.so.11:_ZN4llvm12CodeViewYAML24toCodeViewSubsectionListERNS_20BumpPtrAllocatorImplINS_15MallocAllocatorELj4096ELj4096ELj128EEENS_8ArrayRefINS0_19YAMLDebugSubsectionEEERKNS_8codeview19StringsAndChecksumsE
libLLVM.so.11:_ZN4llvm12CodeViewYAML29initializeStringsAndChecksumsENS_8ArrayRefINS0_19YAMLDebugSubsectionEEERNS_8codeview19StringsAndChecksumsE
libLLVM.so.11:_ZN4llvm12CodeViewYAML6detail14LeafRecordImplINS_8codeview10EnumRecordEE3mapERNS_4yaml2IOE
libLLVM.so.11:_ZN4llvm12CodeViewYAML6detail14LeafRecordImplINS_8codeview11ArrayRecordEE3mapERNS_4yaml2IOE
libLLVM.so.11:_ZN4llvm12CodeViewYAML6detail14LeafRecordImplINS_8codeview11ClassRecordEE3mapERNS_4yaml2IOE
libLLVM.so.11:_ZN4llvm12CodeViewYAML6detail14LeafRecordImplINS_8codeview11LabelRecordEE3mapERNS_4yaml2IOE
libLLVM.so.11:_ZN4llvm12CodeViewYAML6detail14LeafRecordImplINS_8codeview11UnionRecordEE3mapERNS_4yaml2IOE
libLLVM.so.11:_ZN4llvm12CodeViewYAML6detail14LeafRecordImplINS_8codeview12FuncIdRecordEE3mapERNS_4yaml2IOE
libLLVM.so.11:_ZN4llvm12CodeViewYAML6detail14LeafRecordImplINS_8codeview13ArgListRecordEE3mapERNS_4yaml2IOE
libLLVM.so.11:_ZN4llvm12CodeViewYAML6detail14LeafRecordImplINS_8codeview13PointerRecordEE3mapERNS_4yaml2IOE
libLLVM.so.11:_ZN4llvm12CodeViewYAML6detail14LeafRecordImplINS_8codeview13PrecompRecordEE3mapERNS_4yaml2IOE
libLLVM.so.11:_ZN4llvm12CodeViewYAML6detail14LeafRecordImplINS_8codeview13VFTableRecordEE3mapERNS_4yaml2IOE
libLLVM.so.11:_ZN4llvm12CodeViewYAML6detail14LeafRecordImplINS_8codeview14BitFieldRecordEE3mapERNS_4yaml2IOE
libLLVM.so.11:_ZN4llvm12CodeViewYAML6detail14LeafRecordImplINS_8codeview14ModifierRecordEE3mapERNS_4yaml2IOE
libLLVM.so.11:_ZN4llvm12CodeViewYAML6detail14LeafRecordImplINS_8codeview14StringIdRecordEE3mapERNS_4yaml2IOE
libLLVM.so.11:_ZN4llvm12CodeViewYAML6detail14LeafRecordImplINS_8codeview15BuildInfoRecordEE3mapERNS_4yaml2IOE
libLLVM.so.11:_ZN4llvm12CodeViewYAML6detail14LeafRecordImplINS_8codeview15FieldListRecordEE18fromCodeViewRecordENS3_8CVRecordINS3_12TypeLeafKindEEE
libLLVM.so.11:_ZN4llvm12CodeViewYAML6detail14LeafRecordImplINS_8codeview15FieldListRecordEE3mapERNS_4yaml2IOE
libLLVM.so.11:_ZN4llvm12CodeViewYAML6detail14LeafRecordImplINS_8codeview15ProcedureRecordEE3mapERNS_4yaml2IOE
libLLVM.so.11:_ZN4llvm12CodeViewYAML6detail14LeafRecordImplINS_8codeview16EndPrecompRecordEE3mapERNS_4yaml2IOE
libLLVM.so.11:_ZN4llvm12CodeViewYAML6detail14LeafRecordImplINS_8codeview16StringListRecordEE3mapERNS_4yaml2IOE
libLLVM.so.11:_ZN4llvm12CodeViewYAML6detail14LeafRecordImplINS_8codeview17TypeServer2RecordEE3mapERNS_4yaml2IOE
libLLVM.so.11:_ZN4llvm12CodeViewYAML6detail14LeafRecordImplINS_8codeview18MemberFuncIdRecordEE3mapERNS_4yaml2IOE
libLLVM.so.11:_ZN4llvm12CodeViewYAML6detail14LeafRecordImplINS_8codeview18VFTableShapeRecordEE3mapERNS_4yaml2IOE
libLLVM.so.11:_ZN4llvm12CodeViewYAML6detail14LeafRecordImplINS_8codeview19UdtSourceLineRecordEE3mapERNS_4yaml2IOE
libLLVM.so.11:_ZN4llvm12CodeViewYAML6detail14LeafRecordImplINS_8codeview20MemberFunctionRecordEE3mapERNS_4yaml2IOE
libLLVM.so.11:_ZN4llvm12CodeViewYAML6detail14LeafRecordImplINS_8codeview22UdtModSourceLineRecordEE3mapERNS_4yaml2IOE
libLLVM.so.11:_ZN4llvm12CodeViewYAML6detail14LeafRecordImplINS_8codeview24MethodOverloadListRecordEE3mapERNS_4yaml2IOE
libLLVM.so.11:_ZN4llvm12CodeViewYAML6detail16MemberRecordImplINS_8codeview11VFPtrRecordEE3mapERNS_4yaml2IOE
libLLVM.so.11:_ZN4llvm12CodeViewYAML6detail16MemberRecordImplINS_8codeview15BaseClassRecordEE3mapERNS_4yaml2IOE
libLLVM.so.11:_ZN4llvm12CodeViewYAML6detail16MemberRecordImplINS_8codeview15OneMethodRecordEE3mapERNS_4yaml2IOE
libLLVM.so.11:_ZN4llvm12CodeViewYAML6detail16MemberRecordImplINS_8codeview16DataMemberRecordEE3mapERNS_4yaml2IOE
libLLVM.so.11:_ZN4llvm12CodeViewYAML6detail16MemberRecordImplINS_8codeview16EnumeratorRecordEE3mapERNS_4yaml2IOE
libLLVM.so.11:_ZN4llvm12CodeViewYAML6detail16MemberRecordImplINS_8codeview16NestedTypeRecordEE3mapERNS_4yaml2IOE
libLLVM.so.11:_ZN4llvm12CodeViewYAML6detail16MemberRecordImplINS_8codeview22ListContinuationRecordEE3mapERNS_4yaml2IOE
libLLVM.so.11:_ZN4llvm12CodeViewYAML6detail16MemberRecordImplINS_8codeview22OverloadedMethodRecordEE3mapERNS_4yaml2IOE
libLLVM.so.11:_ZN4llvm12CodeViewYAML6detail16MemberRecordImplINS_8codeview22StaticDataMemberRecordEE3mapERNS_4yaml2IOE
libLLVM.so.11:_ZN4llvm12CodeViewYAML6detail16MemberRecordImplINS_8codeview22VirtualBaseClassRecordEE3mapERNS_4yaml2IOE
libLLVM.so.11:_ZN4llvm12CodeViewYAML6detail16SymbolRecordImplINS_8codeview10ObjNameSymEE3mapERNS_4yaml2IOE
libLLVM.so.11:_ZN4llvm12CodeViewYAML6detail16SymbolRecordImplINS_8codeview10ProcRefSymEE3mapERNS_4yaml2IOE
libLLVM.so.11:_ZN4llvm12CodeViewYAML6detail16SymbolRecordImplINS_8codeview10SectionSymEE3mapERNS_4yaml2IOE
libLLVM.so.11:_ZN4llvm12CodeViewYAML6detail16SymbolRecordImplINS_8codeview10Thunk32SymEE3mapERNS_4yaml2IOE
libLLVM.so.11:_ZN4llvm12CodeViewYAML6detail16SymbolRecordImplINS_8codeview11Compile2SymEE3mapERNS_4yaml2IOE
libLLVM.so.11:_ZN4llvm12CodeViewYAML6detail16SymbolRecordImplINS_8codeview11Compile3SymEE3mapERNS_4yaml2IOE
libLLVM.so.11:_ZN4llvm12CodeViewYAML6detail16SymbolRecordImplINS_8codeview11ConstantSymEE3mapERNS_4yaml2IOE
libLLVM.so.11:_ZN4llvm12CodeViewYAML6detail16SymbolRecordImplINS_8codeview11DefRangeSymEE3mapERNS_4yaml2IOE
libLLVM.so.11:_ZN4llvm12CodeViewYAML6detail16SymbolRecordImplINS_8codeview11EnvBlockSymEE3mapERNS_4yaml2IOE
libLLVM.so.11:_ZN4llvm12CodeViewYAML6detail16SymbolRecordImplINS_8codeview11PublicSym32EE3mapERNS_4yaml2IOE
libLLVM.so.11:_ZN4llvm12CodeViewYAML6detail16SymbolRecordImplINS_8codeview11RegisterSymEE3mapERNS_4yaml2IOE
libLLVM.so.11:_ZN4llvm12CodeViewYAML6detail16SymbolRecordImplINS_8codeview11ScopeEndSymEE3mapERNS_4yaml2IOE
libLLVM.so.11:_ZN4llvm12CodeViewYAML6detail16SymbolRecordImplINS_8codeview12BuildInfoSymEE3mapERNS_4yaml2IOE
libLLVM.so.11:_ZN4llvm12CodeViewYAML6detail16SymbolRecordImplINS_8codeview12CoffGroupSymEE3mapERNS_4yaml2IOE
libLLVM.so.11:_ZN4llvm12CodeViewYAML6detail16SymbolRecordImplINS_8codeview12FrameProcSymEE3mapERNS_4yaml2IOE
libLLVM.so.11:_ZN4llvm12CodeViewYAML6detail16SymbolRecordImplINS_8codeview13AnnotationSymEE3mapERNS_4yaml2IOE
libLLVM.so.11:_ZN4llvm12CodeViewYAML6detail16SymbolRecordImplINS_8codeview13BPRelativeSymEE3mapERNS_4yaml2IOE
libLLVM.so.11:_ZN4llvm12CodeViewYAML6detail16SymbolRecordImplINS_8codeview13FileStaticSymEE3mapERNS_4yaml2IOE
libLLVM.so.11:_ZN4llvm12CodeViewYAML6detail16SymbolRecordImplINS_8codeview13InlineSiteSymEE3mapERNS_4yaml2IOE
libLLVM.so.11:_ZN4llvm12CodeViewYAML6detail16SymbolRecordImplINS_8codeview13TrampolineSymEE3mapERNS_4yaml2IOE
libLLVM.so.11:_ZN4llvm12CodeViewYAML6detail16SymbolRecordImplINS_8codeview14FrameCookieSymEE3mapERNS_4yaml2IOE
libLLVM.so.11:_ZN4llvm12CodeViewYAML6detail16SymbolRecordImplINS_8codeview14RegRelativeSymEE3mapERNS_4yaml2IOE
libLLVM.so.11:_ZN4llvm12CodeViewYAML6detail16SymbolRecordImplINS_8codeview15CallSiteInfoSymEE3mapERNS_4yaml2IOE
libLLVM.so.11:_ZN4llvm12CodeViewYAML6detail16SymbolRecordImplINS_8codeview17UsingNamespaceSymEE3mapERNS_4yaml2IOE
libLLVM.so.11:_ZN4llvm12CodeViewYAML6detail16SymbolRecordImplINS_8codeview18ThreadLocalDataSymEE3mapERNS_4yaml2IOE
libLLVM.so.11:_ZN4llvm12CodeViewYAML6detail16SymbolRecordImplINS_8codeview19DefRangeRegisterSymEE3mapERNS_4yaml2IOE
libLLVM.so.11:_ZN4llvm12CodeViewYAML6detail16SymbolRecordImplINS_8codeview19DefRangeSubfieldSymEE3mapERNS_4yaml2IOE
libLLVM.so.11:_ZN4llvm12CodeViewYAML6detail16SymbolRecordImplINS_8codeview21HeapAllocationSiteSymEE3mapERNS_4yaml2IOE
libLLVM.so.11:_ZN4llvm12CodeViewYAML6detail16SymbolRecordImplINS_8codeview22DefRangeRegisterRelSymEE3mapERNS_4yaml2IOE
libLLVM.so.11:_ZN4llvm12CodeViewYAML6detail16SymbolRecordImplINS_8codeview26DefRangeFramePointerRelSymEE3mapERNS_4yaml2IOE
libLLVM.so.11:_ZN4llvm12CodeViewYAML6detail16SymbolRecordImplINS_8codeview27DefRangeSubfieldRegisterSymEE3mapERNS_4yaml2IOE
libLLVM.so.11:_ZN4llvm12CodeViewYAML6detail16SymbolRecordImplINS_8codeview35DefRangeFramePointerRelFullScopeSymEE3mapERNS_4yaml2IOE
libLLVM.so.11:_ZN4llvm12CodeViewYAML6detail16SymbolRecordImplINS_8codeview6UDTSymEE3mapERNS_4yaml2IOE
libLLVM.so.11:_ZN4llvm12CodeViewYAML6detail16SymbolRecordImplINS_8codeview7DataSymEE3mapERNS_4yaml2IOE
libLLVM.so.11:_ZN4llvm12CodeViewYAML6detail16SymbolRecordImplINS_8codeview7ProcSymEE3mapERNS_4yaml2IOE
libLLVM.so.11:_ZN4llvm12CodeViewYAML6detail16SymbolRecordImplINS_8codeview8BlockSymEE3mapERNS_4yaml2IOE
libLLVM.so.11:_ZN4llvm12CodeViewYAML6detail16SymbolRecordImplINS_8codeview8LabelSymEE3mapERNS_4yaml2IOE
libLLVM.so.11:_ZN4llvm12CodeViewYAML6detail16SymbolRecordImplINS_8codeview8LocalSymEE3mapERNS_4yaml2IOE
libLLVM.so.11:_ZN4llvm12CodeViewYAML6detail16SymbolRecordImplINS_8codeview9CallerSymEE3mapERNS_4yaml2IOE
libLLVM.so.11:_ZN4llvm12CodeViewYAML6detail16SymbolRecordImplINS_8codeview9ExportSymEE3mapERNS_4yaml2IOE
libLLVM.so.11:_ZN4llvm12CodeViewYAML6detail19UnknownSymbolRecord3mapERNS_4yaml2IOE
libLLVM.so.11:_ZN4llvm12CodeViewYAML8toDebugHERKNS0_13DebugHSectionERNS_20BumpPtrAllocatorImplINS_15MallocAllocatorELj4096ELj4096ELj128EEE
libLLVM.so.11:_ZN4llvm12CodeViewYAML8toDebugTENS_8ArrayRefINS0_10LeafRecordEEERNS_20BumpPtrAllocatorImplINS_15MallocAllocatorELj4096ELj4096ELj128EEENS_9StringRefE
libLLVM.so.11:_ZN4llvm12ConstantExpr10getAlignOfEPNS_4TypeE
libLLVM.so.11:_ZN4llvm12ConstantExpr10getBitCastEPNS_8ConstantEPNS_4TypeEb
libLLVM.so.11:_ZN4llvm12ConstantExpr10getCompareEtPNS_8ConstantES2_b
libLLVM.so.11:_ZN4llvm12ConstantExpr10getFPTruncEPNS_8ConstantEPNS_4TypeEb
libLLVM.so.11:_ZN4llvm12ConstantExpr11getFPExtendEPNS_8ConstantEPNS_4TypeEb
libLLVM.so.11:_ZN4llvm12ConstantExpr11getIntToPtrEPNS_8ConstantEPNS_4TypeEb
libLLVM.so.11:_ZN4llvm12ConstantExpr11getOffsetOfEPNS_10StructTypeEj
libLLVM.so.11:_ZN4llvm12ConstantExpr11getOffsetOfEPNS_4TypeEPNS_8ConstantE
libLLVM.so.11:_ZN4llvm12ConstantExpr11getPtrToIntEPNS_8ConstantEPNS_4TypeEb
libLLVM.so.11:_ZN4llvm12ConstantExpr14getInsertValueEPNS_8ConstantES2_NS_8ArrayRefIjEEPNS_4TypeE
libLLVM.so.11:_ZN4llvm12ConstantExpr14getIntegerCastEPNS_8ConstantEPNS_4TypeEb
libLLVM.so.11:_ZN4llvm12ConstantExpr14getPointerCastEPNS_8ConstantEPNS_4TypeE
libLLVM.so.11:_ZN4llvm12ConstantExpr15getExtractValueEPNS_8ConstantENS_8ArrayRefIjEEPNS_4TypeE
libLLVM.so.11:_ZN4llvm12ConstantExpr16getAddrSpaceCastEPNS_8ConstantEPNS_4TypeEb
libLLVM.so.11:_ZN4llvm12ConstantExpr16getBinOpAbsorberEjPNS_4TypeE
libLLVM.so.11:_ZN4llvm12ConstantExpr16getBinOpIdentityEjPNS_4TypeEb
libLLVM.so.11:_ZN4llvm12ConstantExpr16getGetElementPtrEPNS_4TypeEPNS_8ConstantENS_8ArrayRefIPNS_5ValueEEEbNS_8OptionalIjEES2_
libLLVM.so.11:_ZN4llvm12ConstantExpr16getInsertElementEPNS_8ConstantES2_S2_PNS_4TypeE
libLLVM.so.11:_ZN4llvm12ConstantExpr16getSExtOrBitCastEPNS_8ConstantEPNS_4TypeE
libLLVM.so.11:_ZN4llvm12ConstantExpr16getShuffleVectorEPNS_8ConstantES2_NS_8ArrayRefIiEEPNS_4TypeE
libLLVM.so.11:_ZN4llvm12ConstantExpr16getZExtOrBitCastEPNS_8ConstantEPNS_4TypeE
libLLVM.so.11:_ZN4llvm12ConstantExpr17getExtractElementEPNS_8ConstantES2_PNS_4TypeE
libLLVM.so.11:_ZN4llvm12ConstantExpr17getTruncOrBitCastEPNS_8ConstantEPNS_4TypeE
libLLVM.so.11:_ZN4llvm12ConstantExpr19destroyConstantImplEv
libLLVM.so.11:_ZN4llvm12ConstantExpr23handleOperandChangeImplEPNS_5ValueES2_
libLLVM.so.11:_ZN4llvm12ConstantExpr32getPointerBitCastOrAddrSpaceCastEPNS_8ConstantEPNS_4TypeE
libLLVM.so.11:_ZN4llvm12ConstantExpr3getEjPNS_8ConstantES2_jPNS_4TypeE
libLLVM.so.11:_ZN4llvm12ConstantExpr3getEjPNS_8ConstantEjPNS_4TypeE
libLLVM.so.11:_ZN4llvm12ConstantExpr5getOrEPNS_8ConstantES2_
libLLVM.so.11:_ZN4llvm12ConstantExpr6getAddEPNS_8ConstantES2_bb
libLLVM.so.11:_ZN4llvm12ConstantExpr6getAndEPNS_8ConstantES2_
libLLVM.so.11:_ZN4llvm12ConstantExpr6getMulEPNS_8ConstantES2_bb
libLLVM.so.11:_ZN4llvm12ConstantExpr6getNegEPNS_8ConstantEbb
libLLVM.so.11:_ZN4llvm12ConstantExpr6getNotEPNS_8ConstantE
libLLVM.so.11:_ZN4llvm12ConstantExpr6getShlEPNS_8ConstantES2_bb
libLLVM.so.11:_ZN4llvm12ConstantExpr6getSubEPNS_8ConstantES2_bb
libLLVM.so.11:_ZN4llvm12ConstantExpr6getXorEPNS_8ConstantES2_
libLLVM.so.11:_ZN4llvm12ConstantExpr7getAShrEPNS_8ConstantES2_b
libLLVM.so.11:_ZN4llvm12ConstantExpr7getCastEjPNS_8ConstantEPNS_4TypeEb
libLLVM.so.11:_ZN4llvm12ConstantExpr7getFAddEPNS_8ConstantES2_
libLLVM.so.11:_ZN4llvm12ConstantExpr7getFCmpEtPNS_8ConstantES2_b
libLLVM.so.11:_ZN4llvm12ConstantExpr7getFDivEPNS_8ConstantES2_
libLLVM.so.11:_ZN4llvm12ConstantExpr7getFMulEPNS_8ConstantES2_
libLLVM.so.11:_ZN4llvm12ConstantExpr7getFNegEPNS_8ConstantE
libLLVM.so.11:_ZN4llvm12ConstantExpr7getFRemEPNS_8ConstantES2_
libLLVM.so.11:_ZN4llvm12ConstantExpr7getFSubEPNS_8ConstantES2_
libLLVM.so.11:_ZN4llvm12ConstantExpr7getICmpEtPNS_8ConstantES2_b
libLLVM.so.11:_ZN4llvm12ConstantExpr7getLShrEPNS_8ConstantES2_b
libLLVM.so.11:_ZN4llvm12ConstantExpr7getSDivEPNS_8ConstantES2_b
libLLVM.so.11:_ZN4llvm12ConstantExpr7getSExtEPNS_8ConstantEPNS_4TypeEb
libLLVM.so.11:_ZN4llvm12ConstantExpr7getSRemEPNS_8ConstantES2_
libLLVM.so.11:_ZN4llvm12ConstantExpr7getUDivEPNS_8ConstantES2_b
libLLVM.so.11:_ZN4llvm12ConstantExpr7getURemEPNS_8ConstantES2_
libLLVM.so.11:_ZN4llvm12ConstantExpr7getZExtEPNS_8ConstantEPNS_4TypeEb
libLLVM.so.11:_ZN4llvm12ConstantExpr8getTruncEPNS_8ConstantEPNS_4TypeEb
libLLVM.so.11:_ZN4llvm12ConstantExpr9getFPCastEPNS_8ConstantEPNS_4TypeE
libLLVM.so.11:_ZN4llvm12ConstantExpr9getFPToSIEPNS_8ConstantEPNS_4TypeEb
libLLVM.so.11:_ZN4llvm12ConstantExpr9getFPToUIEPNS_8ConstantEPNS_4TypeEb
libLLVM.so.11:_ZN4llvm12ConstantExpr9getSIToFPEPNS_8ConstantEPNS_4TypeEb
libLLVM.so.11:_ZN4llvm12ConstantExpr9getSelectEPNS_8ConstantES2_S2_PNS_4TypeE
libLLVM.so.11:_ZN4llvm12ConstantExpr9getSizeOfEPNS_4TypeE
libLLVM.so.11:_ZN4llvm12ConstantExpr9getUIToFPEPNS_8ConstantEPNS_4TypeEb
libLLVM.so.11:_ZN4llvm12ConstantPool10clearCacheEv
libLLVM.so.11:_ZN4llvm12ConstantPool11emitEntriesERNS_10MCStreamerE
libLLVM.so.11:_ZN4llvm12ConstantPool5emptyEv
libLLVM.so.11:_ZN4llvm12ConstantPool8addEntryEPKNS_6MCExprERNS_9MCContextEjNS_5SMLocE
libLLVM.so.11:_ZN4llvm12DIEAbbrevSet18uniqueAbbreviationERNS_3DIEE
libLLVM.so.11:_ZN4llvm12DIEAbbrevSetD1Ev
libLLVM.so.11:_ZN4llvm12DIEAbbrevSetD2Ev
libLLVM.so.11:_ZN4llvm12DIEnumerator7getImplERNS_11LLVMContextERKNS_5APIntEbPNS_8MDStringENS_8Metadata11StorageTypeEb
libLLVM.so.11:_ZN4llvm12DIExpression12appendOffsetERNS_15SmallVectorImplIyEEx
libLLVM.so.11:_ZN4llvm12DIExpression13appendToStackEPKS0_NS_8ArrayRefIyEE
libLLVM.so.11:_ZN4llvm12DIExpression14prependOpcodesEPKS0_RNS_15SmallVectorImplIyEEbb
libLLVM.so.11:_ZN4llvm12DIExpression15getFragmentInfoENS0_16expr_op_iteratorES1_
libLLVM.so.11:_ZN4llvm12DIExpression19extractAddressClassEPKS0_Rj
libLLVM.so.11:_ZN4llvm12DIExpression24createFragmentExpressionEPKS0_jj
libLLVM.so.11:_ZN4llvm12DIExpression6appendEPKS0_NS_8ArrayRefIyEE
libLLVM.so.11:_ZN4llvm12DIExpression7getImplERNS_11LLVMContextENS_8ArrayRefIyEENS_8Metadata11StorageTypeEb
libLLVM.so.11:_ZN4llvm12DIExpression7prependEPKS0_hx
libLLVM.so.11:_ZN4llvm12DIExpression9appendExtEPKS0_jjb
libLLVM.so.11:_ZN4llvm12DIExpression9getExtOpsEjjb
libLLVM.so.11:_ZN4llvm12DISubprogram10splitFlagsENS0_9DISPFlagsERNS_15SmallVectorImplIS1_EE
libLLVM.so.11:_ZN4llvm12DISubprogram13getFlagStringENS0_9DISPFlagsE
libLLVM.so.11:_ZN4llvm12DISubprogram7getFlagENS_9StringRefE
libLLVM.so.11:_ZN4llvm12DISubprogram7getImplERNS_11LLVMContextEPNS_8MetadataEPNS_8MDStringES6_S4_jS4_jS4_jiNS_6DINode7DIFlagsENS0_9DISPFlagsES4_S4_S4_S4_S4_NS3_11StorageTypeEb
libLLVM.so.11:_ZN4llvm12DWARFContext10getCUIndexEv
libLLVM.so.11:_ZN4llvm12DWARFContext10getEHFrameEv
libLLVM.so.11:_ZN4llvm12DWARFContext10getTUIndexEv
libLLVM.so.11:_ZN4llvm12DWARFContext11getDebugLocEv
libLLVM.so.11:_ZN4llvm12DWARFContext11getGdbIndexEv
libLLVM.so.11:_ZN4llvm12DWARFContext12getAppleObjCEv
libLLVM.so.11:_ZN4llvm12DWARFContext13getAppleNamesEv
libLLVM.so.11:_ZN4llvm12DWARFContext13getAppleTypesEv
libLLVM.so.11:_ZN4llvm12DWARFContext13getCUAddrSizeEv
libLLVM.so.11:_ZN4llvm12DWARFContext13getDWOContextENS_9StringRefE
libLLVM.so.11:_ZN4llvm12DWARFContext13getDebugFrameEv
libLLVM.so.11:_ZN4llvm12DWARFContext13getDebugMacroEv
libLLVM.so.11:_ZN4llvm12DWARFContext13getDebugNamesEv
libLLVM.so.11:_ZN4llvm12DWARFContext13parseDWOUnitsEb
libLLVM.so.11:_ZN4llvm12DWARFContext14getDebugAbbrevEv
libLLVM.so.11:_ZN4llvm12DWARFContext15addLocalsForDieEPNS_16DWARFCompileUnitENS_8DWARFDieES3_RSt6vectorINS_7DILocalESaIS5_EE
libLLVM.so.11:_ZN4llvm12DWARFContext15getDIEForOffsetEy
libLLVM.so.11:_ZN4llvm12DWARFContext15getDebugArangesEv
libLLVM.so.11:_ZN4llvm12DWARFContext15getDebugMacinfoEv
libLLVM.so.11:_ZN4llvm12DWARFContext16getDebugMacroDWOEv
libLLVM.so.11:_ZN4llvm12DWARFContext16loadRegisterInfoERKNS_6object10ObjectFileE
libLLVM.so.11:_ZN4llvm12DWARFContext16parseNormalUnitsEv
libLLVM.so.11:_ZN4llvm12DWARFContext17getDIEsForAddressEy
libLLVM.so.11:_ZN4llvm12DWARFContext17getDebugAbbrevDWOEv
libLLVM.so.11:_ZN4llvm12DWARFContext18getAppleNamespacesEv
libLLVM.so.11:_ZN4llvm12DWARFContext18getDebugMacinfoDWOEv
libLLVM.so.11:_ZN4llvm12DWARFContext19getLineTableForUnitEPNS_9DWARFUnitE
libLLVM.so.11:_ZN4llvm12DWARFContext19getLineTableForUnitEPNS_9DWARFUnitENS_12function_refIFvNS_5ErrorEEEE
libLLVM.so.11:_ZN4llvm12DWARFContext19getLocalsForAddressENS_6object16SectionedAddressE
libLLVM.so.11:_ZN4llvm12DWARFContext19parseMacroOrMacinfoENS0_12MacroSecTypeE
libLLVM.so.11:_ZN4llvm12DWARFContext21getLineInfoForAddressENS_6object16SectionedAddressENS_19DILineInfoSpecifierE
libLLVM.so.11:_ZN4llvm12DWARFContext23getCompileUnitForOffsetEy
libLLVM.so.11:_ZN4llvm12DWARFContext24getCompileUnitForAddressEy
libLLVM.so.11:_ZN4llvm12DWARFContext24getDWOCompileUnitForHashEy
libLLVM.so.11:_ZN4llvm12DWARFContext25getInliningInfoForAddressENS_6object16SectionedAddressENS_19DILineInfoSpecifierE
libLLVM.so.11:_ZN4llvm12DWARFContext26getLineInfoForAddressRangeENS_6object16SectionedAddressEyNS_19DILineInfoSpecifierE
libLLVM.so.11:_ZN4llvm12DWARFContext4dumpERNS_11raw_ostreamENS_13DIDumpOptionsESt5arrayINS_8OptionalIyEELj28EE
libLLVM.so.11:_ZN4llvm12DWARFContext6createERKNS_6object10ObjectFileEPKNS_16LoadedObjectInfoENSt7__cxx1112basic_stringIcSt11char_traitsIcESaIcEEESt8functionIFvNS_5ErrorEEESH_
libLLVM.so.11:_ZN4llvm12DWARFContext6createERKNS_9StringMapISt10unique_ptrINS_12MemoryBufferESt14default_deleteIS3_EENS_15MallocAllocatorEEEhbSt8functionIFvNS_5ErrorEEESE_
libLLVM.so.11:_ZN4llvm12DWARFContext6verifyERNS_11raw_ostreamENS_13DIDumpOptionsE
libLLVM.so.11:_ZN4llvm12DWARFContextC1ESt10unique_ptrIKNS_11DWARFObjectESt14default_deleteIS3_EENSt7__cxx1112basic_stringIcSt11char_traitsIcESaIcEEESt8functionIFvNS_5ErrorEEESG_
libLLVM.so.11:_ZN4llvm12DWARFContextC2ESt10unique_ptrIKNS_11DWARFObjectESt14default_deleteIS3_EENSt7__cxx1112basic_stringIcSt11char_traitsIcESaIcEEESt8functionIFvNS_5ErrorEEESG_
libLLVM.so.11:_ZN4llvm12DWARFContextD0Ev
libLLVM.so.11:_ZN4llvm12DWARFContextD1Ev
libLLVM.so.11:_ZN4llvm12DWARFContextD2Ev
libLLVM.so.11:_ZN4llvm12DebugCounter8instanceEv
libLLVM.so.11:_ZN4llvm12DebugCounter9push_backERKNSt7__cxx1112basic_stringIcSt11char_traitsIcESaIcEEE
libLLVM.so.11:_ZN4llvm12DebugCounterD1Ev
libLLVM.so.11:_ZN4llvm12DebugCounterD2Ev
libLLVM.so.11:_ZN4llvm12DemandedBits15getDemandedBitsEPNS_11InstructionE
libLLVM.so.11:_ZN4llvm12DemandedBits15performAnalysisEv
libLLVM.so.11:_ZN4llvm12DemandedBits17isInstructionDeadEPNS_11InstructionE
libLLVM.so.11:_ZN4llvm12DemandedBits24determineLiveOperandBitsEPKNS_11InstructionEPKNS_5ValueEjRKNS_5APIntERS7_RNS_9KnownBitsESC_Rb
libLLVM.so.11:_ZN4llvm12DemandedBits5printERNS_11raw_ostreamE
libLLVM.so.11:_ZN4llvm12DemandedBits9isUseDeadEPNS_3UseE
libLLVM.so.11:_ZN4llvm12DisplayGraphENS_9StringRefEbNS_12GraphProgram4NameE
libLLVM.so.11:_ZN4llvm12DwarfEmitterD0Ev
libLLVM.so.11:_ZN4llvm12DwarfEmitterD1Ev
libLLVM.so.11:_ZN4llvm12DwarfEmitterD2Ev
libLLVM.so.11:_ZN4llvm12EarlyCSEPass3runERNS_8FunctionERNS_15AnalysisManagerIS1_JEEE
libLLVM.so.11:_ZN4llvm12FunctionPass17assignPassManagerERNS_7PMStackENS_15PassManagerTypeE
libLLVM.so.11:_ZN4llvm12FunctionType17isValidReturnTypeEPNS_4TypeE
libLLVM.so.11:_ZN4llvm12FunctionType19isValidArgumentTypeEPNS_4TypeE
libLLVM.so.11:_ZN4llvm12FunctionType3getEPNS_4TypeENS_8ArrayRefIS2_EEb
libLLVM.so.11:_ZN4llvm12FunctionType3getEPNS_4TypeEb
libLLVM.so.11:_ZN4llvm12FunctionTypeC1EPNS_4TypeENS_8ArrayRefIS2_EEb
libLLVM.so.11:_ZN4llvm12FunctionTypeC2EPNS_4TypeENS_8ArrayRefIS2_EEb
libLLVM.so.11:_ZN4llvm12GCModuleInfo13getGCStrategyENS_9StringRefE
libLLVM.so.11:_ZN4llvm12GCModuleInfo15getFunctionInfoERKNS_8FunctionE
libLLVM.so.11:_ZN4llvm12GCModuleInfo5clearEv
libLLVM.so.11:_ZN4llvm12GCModuleInfoC1Ev
libLLVM.so.11:_ZN4llvm12GCModuleInfoC2Ev
libLLVM.so.11:_ZN4llvm12GCOVFunction17collectLineCountsERNS_8FileInfoE
libLLVM.so.11:_ZN4llvm12GISelCSEInfo10insertNodeEPNS_18UniqueMachineInstrEPv
libLLVM.so.11:_ZN4llvm12GISelCSEInfo11insertInstrEPNS_12MachineInstrEPv
libLLVM.so.11:_ZN4llvm12GISelCSEInfo12changedInstrERNS_12MachineInstrE
libLLVM.so.11:_ZN4llvm12GISelCSEInfo12createdInstrERNS_12MachineInstrE
libLLVM.so.11:_ZN4llvm12GISelCSEInfo12erasingInstrERNS_12MachineInstrE
libLLVM.so.11:_ZN4llvm12GISelCSEInfo13changingInstrERNS_12MachineInstrE
libLLVM.so.11:_ZN4llvm12GISelCSEInfo13releaseMemoryEv
libLLVM.so.11:_ZN4llvm12GISelCSEInfo14countOpcodeHitEj
libLLVM.so.11:_ZN4llvm12GISelCSEInfo15getNodeIfExistsERNS_16FoldingSetNodeIDEPNS_17MachineBasicBlockERPv
libLLVM.so.11:_ZN4llvm12GISelCSEInfo16handleRemoveInstEPNS_12MachineInstrE
libLLVM.so.11:_ZN4llvm12GISelCSEInfo18handleRecordedInstEPNS_12MachineInstrE
libLLVM.so.11:_ZN4llvm12GISelCSEInfo19getUniqueInstrForMIEPKNS_12MachineInstrE
libLLVM.so.11:_ZN4llvm12GISelCSEInfo19handleRecordedInstsEv
libLLVM.so.11:_ZN4llvm12GISelCSEInfo20recordNewInstructionEPNS_12MachineInstrE
libLLVM.so.11:_ZN4llvm12GISelCSEInfo23getMachineInstrIfExistsERNS_16FoldingSetNodeIDEPNS_17MachineBasicBlockERPv
libLLVM.so.11:_ZN4llvm12GISelCSEInfo28invalidateUniqueMachineInstrEPNS_18UniqueMachineInstrE
libLLVM.so.11:_ZN4llvm12GISelCSEInfo5printEv
libLLVM.so.11:_ZN4llvm12GISelCSEInfo5setMFERNS_15MachineFunctionE
libLLVM.so.11:_ZN4llvm12GISelCSEInfo6verifyEv
libLLVM.so.11:_ZN4llvm12GISelCSEInfo7analyzeERNS_15MachineFunctionE
libLLVM.so.11:_ZN4llvm12GISelCSEInfoD0Ev
libLLVM.so.11:_ZN4llvm12GISelCSEInfoD1Ev
libLLVM.so.11:_ZN4llvm12GISelCSEInfoD2Ev
libLLVM.so.11:_ZN4llvm12GVNHoistPass3runERNS_8FunctionERNS_15AnalysisManagerIS1_JEEE
libLLVM.so.11:_ZN4llvm12GlobalObject10setSectionENS_9StringRefE
libLLVM.so.11:_ZN4llvm12GlobalObject11addMetadataENS_9StringRefERNS_6MDNodeE
libLLVM.so.11:_ZN4llvm12GlobalObject11addMetadataEjRNS_6MDNodeE
libLLVM.so.11:_ZN4llvm12GlobalObject11setMetadataENS_9StringRefEPNS_6MDNodeE
libLLVM.so.11:_ZN4llvm12GlobalObject11setMetadataEjPNS_6MDNodeE
libLLVM.so.11:_ZN4llvm12GlobalObject12copyMetadataEPKS0_j
libLLVM.so.11:_ZN4llvm12GlobalObject12setAlignmentENS_10MaybeAlignE
libLLVM.so.11:_ZN4llvm12GlobalObject13clearMetadataEv
libLLVM.so.11:_ZN4llvm12GlobalObject13eraseMetadataEj
libLLVM.so.11:_ZN4llvm12GlobalObject15addTypeMetadataEjPNS_8MetadataE
libLLVM.so.11:_ZN4llvm12GlobalObject18copyAttributesFromEPKS0_
libLLVM.so.11:_ZN4llvm12GlobalObject26setVCallVisibilityMetadataENS0_15VCallVisibilityE
libLLVM.so.11:_ZN4llvm12GlobalStatus13analyzeGlobalEPKNS_5ValueERS0_
libLLVM.so.11:_ZN4llvm12GlobalStatusC1Ev
libLLVM.so.11:_ZN4llvm12GlobalStatusC2Ev
libLLVM.so.11:_ZN4llvm12HandleSDNodeD1Ev
libLLVM.so.11:_ZN4llvm12HandleSDNodeD2Ev
libLLVM.so.11:_ZN4llvm12IRTranslator11translateBrERKNS_4UserERNS_16MachineIRBuilderE
libLLVM.so.11:_ZN4llvm12IRTranslator12translatePHIERKNS_4UserERNS_16MachineIRBuilderE
libLLVM.so.11:_ZN4llvm12IRTranslator12translateRetERKNS_4UserERNS_16MachineIRBuilderE
libLLVM.so.11:_ZN4llvm12IRTranslator12valueIsSplitERKNS_5ValueEPNS_15SmallVectorImplIyEE
libLLVM.so.11:_ZN4llvm12IRTranslator13allocateVRegsERKNS_5ValueE
libLLVM.so.11:_ZN4llvm12IRTranslator13emitJumpTableERNS_8SwitchCG9JumpTableEPNS_17MachineBasicBlockE
libLLVM.so.11:_ZN4llvm12IRTranslator13getMemOpAlignERKNS_11InstructionE
libLLVM.so.11:_ZN4llvm12IRTranslator13getStackGuardENS_8RegisterERNS_16MachineIRBuilderE
libLLVM.so.11:_ZN4llvm12IRTranslator13translateCallERKNS_4UserERNS_16MachineIRBuilderE
libLLVM.so.11:_ZN4llvm12IRTranslator13translateCastEjRKNS_4UserERNS_16MachineIRBuilderE
libLLVM.so.11:_ZN4llvm12IRTranslator13translateCopyERKNS_4UserERKNS_5ValueERNS_16MachineIRBuilderE
libLLVM.so.11:_ZN4llvm12IRTranslator13translateFNegERKNS_4UserERNS_16MachineIRBuilderE
libLLVM.so.11:_ZN4llvm12IRTranslator13translateFSubERKNS_4UserERNS_16MachineIRBuilderE
libLLVM.so.11:_ZN4llvm12IRTranslator13translateLoadERKNS_4UserERNS_16MachineIRBuilderE
libLLVM.so.11:_ZN4llvm12IRTranslator14emitSwitchCaseERNS_8SwitchCG9CaseBlockEPNS_17MachineBasicBlockERNS_16MachineIRBuilderE
libLLVM.so.11:_ZN4llvm12IRTranslator14translateFenceERKNS_4UserERNS_16MachineIRBuilderE
libLLVM.so.11:_ZN4llvm12IRTranslator14translateStoreERKNS_4UserERNS_16MachineIRBuilderE
libLLVM.so.11:_ZN4llvm12IRTranslator14translateVAArgERKNS_4UserERNS_16MachineIRBuilderE
libLLVM.so.11:_ZN4llvm12IRTranslator15translateAllocaERKNS_4UserERNS_16MachineIRBuilderE
libLLVM.so.11:_ZN4llvm12IRTranslator15translateCallBrERKNS_4UserERNS_16MachineIRBuilderE
libLLVM.so.11:_ZN4llvm12IRTranslator15translateFreezeERKNS_4UserERNS_16MachineIRBuilderE
libLLVM.so.11:_ZN4llvm12IRTranslator15translateInvokeERKNS_4UserERNS_16MachineIRBuilderE
libLLVM.so.11:_ZN4llvm12IRTranslator15translateSelectERKNS_4UserERNS_16MachineIRBuilderE
libLLVM.so.11:_ZN4llvm12IRTranslator15translateSwitchERKNS_4UserERNS_16MachineIRBuilderE
libLLVM.so.11:_ZN4llvm12IRTranslator16finalizeFunctionEv
libLLVM.so.11:_ZN4llvm12IRTranslator16getOrCreateVRegsERKNS_5ValueE
libLLVM.so.11:_ZN4llvm12IRTranslator16translateBitCastERKNS_4UserERNS_16MachineIRBuilderE
libLLVM.so.11:_ZN4llvm12IRTranslator16translateCompareERKNS_4UserERNS_16MachineIRBuilderE
libLLVM.so.11:_ZN4llvm12IRTranslator16translateMemFuncERKNS_8CallInstERNS_16MachineIRBuilderEj
libLLVM.so.11:_ZN4llvm12IRTranslator17addMachineCFGPredESt4pairIPKNS_10BasicBlockES4_EPNS_17MachineBasicBlockE
libLLVM.so.11:_ZN4llvm12IRTranslator17finishPendingPhisEv
libLLVM.so.11:_ZN4llvm12IRTranslator17translateBinaryOpEjRKNS_4UserERNS_16MachineIRBuilderE
libLLVM.so.11:_ZN4llvm12IRTranslator17translateCallBaseERKNS_8CallBaseERNS_16MachineIRBuilderE
libLLVM.so.11:_ZN4llvm12IRTranslator18finalizeBasicBlockEv
libLLVM.so.11:_ZN4llvm12IRTranslator18translateAtomicRMWERKNS_4UserERNS_16MachineIRBuilderE
libLLVM.so.11:_ZN4llvm12IRTranslator18translateInlineAsmERKNS_8CallBaseERNS_16MachineIRBuilderE
libLLVM.so.11:_ZN4llvm12IRTranslator19emitJumpTableHeaderERNS_8SwitchCG9JumpTableERNS1_15JumpTableHeaderEPNS_17MachineBasicBlockE
libLLVM.so.11:_ZN4llvm12IRTranslator19lowerSwitchWorkItemENS_8SwitchCG18SwitchWorkListItemEPNS_5ValueEPNS_17MachineBasicBlockES6_RNS_16MachineIRBuilderE
libLLVM.so.11:_ZN4llvm12IRTranslator19translateIndirectBrERKNS_4UserERNS_16MachineIRBuilderE
libLLVM.so.11:_ZN4llvm12IRTranslator19translateLandingPadERKNS_4UserERNS_16MachineIRBuilderE
libLLVM.so.11:_ZN4llvm12IRTranslator20addSuccessorWithProbEPNS_17MachineBasicBlockES2_NS_17BranchProbabilityE
libLLVM.so.11:_ZN4llvm12IRTranslator20runOnMachineFunctionERNS_15MachineFunctionE
libLLVM.so.11:_ZN4llvm12IRTranslator20translateInsertValueERKNS_4UserERNS_16MachineIRBuilderE
libLLVM.so.11:_ZN4llvm12IRTranslator21getOrCreateFrameIndexERKNS_10AllocaInstE
libLLVM.so.11:_ZN4llvm12IRTranslator21translateExtractValueERKNS_4UserERNS_16MachineIRBuilderE
libLLVM.so.11:_ZN4llvm12IRTranslator22lowerJumpTableWorkItemENS_8SwitchCG18SwitchWorkListItemEPNS_17MachineBasicBlockES4_S4_RNS_16MachineIRBuilderENS_14ilist_iteratorINS_12ilist_detail12node_optionsIS3_Lb0ELb0EvEELb0ELb0EEENS_17BranchProbabilityEN9__gnu_cxx17__normal_iteratorIPNS1_11CaseClusterESt6vectorISF_SaISF_EEEES4_b
libLLVM.so.11:_ZN4llvm12IRTranslator22translateAtomicCmpXchgERKNS_4UserERNS_16MachineIRBuilderE
libLLVM.so.11:_ZN4llvm12IRTranslator22translateGetElementPtrERKNS_4UserERNS_16MachineIRBuilderE
libLLVM.so.11:_ZN4llvm12IRTranslator22translateInsertElementERKNS_4UserERNS_16MachineIRBuilderE
libLLVM.so.11:_ZN4llvm12IRTranslator22translateShuffleVectorERKNS_4UserERNS_16MachineIRBuilderE
libLLVM.so.11:_ZN4llvm12IRTranslator23translateExtractElementERKNS_4UserERNS_16MachineIRBuilderE
libLLVM.so.11:_ZN4llvm12IRTranslator23translateKnownIntrinsicERKNS_8CallInstEjRNS_16MachineIRBuilderE
libLLVM.so.11:_ZN4llvm12IRTranslator24getSimpleIntrinsicOpcodeEj
libLLVM.so.11:_ZN4llvm12IRTranslator24lowerSwitchRangeWorkItemEN9__gnu_cxx17__normal_iteratorIPNS_8SwitchCG11CaseClusterESt6vectorIS4_SaIS4_EEEEPNS_5ValueEPNS_17MachineBasicBlockEbNS_17BranchProbabilityESD_RNS_16MachineIRBuilderESD_
libLLVM.so.11:_ZN4llvm12IRTranslator24translateSimpleIntrinsicERKNS_8CallInstEjRNS_16MachineIRBuilderE
libLLVM.so.11:_ZN4llvm12IRTranslator26translateOverflowIntrinsicERKNS_8CallInstEjRNS_16MachineIRBuilderE
libLLVM.so.11:_ZN4llvm12IRTranslator31translateConstrainedFPIntrinsicERKNS_22ConstrainedFPIntrinsicERNS_16MachineIRBuilderE
libLLVM.so.11:_ZN4llvm12IRTranslator6getMBBERKNS_10BasicBlockE
libLLVM.so.11:_ZN4llvm12IRTranslator9translateERKNS_11InstructionE
libLLVM.so.11:_ZN4llvm12IRTranslator9translateERKNS_8ConstantENS_8RegisterE
libLLVM.so.11:_ZN4llvm12IRTranslatorC1Ev
libLLVM.so.11:_ZN4llvm12IRTranslatorC2Ev
libLLVM.so.11:_ZN4llvm12InlineAdvice31recordInliningWithCalleeDeletedEv
libLLVM.so.11:_ZN4llvm12InlineAdviceC1EPNS_13InlineAdvisorERNS_8CallBaseERNS_25OptimizationRemarkEmitterEb
libLLVM.so.11:_ZN4llvm12InlineAdviceC2EPNS_13InlineAdvisorERNS_8CallBaseERNS_25OptimizationRemarkEmitterEb
libLLVM.so.11:_ZN4llvm12IntEqClasses10uncompressEv
libLLVM.so.11:_ZN4llvm12IntEqClasses4growEj
libLLVM.so.11:_ZN4llvm12IntEqClasses4joinEjj
libLLVM.so.11:_ZN4llvm12IntEqClasses8compressEv
libLLVM.so.11:_ZN4llvm12IntToPtrInstC1EPNS_5ValueEPNS_4TypeERKNS_5TwineEPNS_10BasicBlockE
libLLVM.so.11:_ZN4llvm12IntToPtrInstC1EPNS_5ValueEPNS_4TypeERKNS_5TwineEPNS_11InstructionE
libLLVM.so.11:_ZN4llvm12IntToPtrInstC2EPNS_5ValueEPNS_4TypeERKNS_5TwineEPNS_10BasicBlockE
libLLVM.so.11:_ZN4llvm12IntToPtrInstC2EPNS_5ValueEPNS_4TypeERKNS_5TwineEPNS_11InstructionE
libLLVM.so.11:_ZN4llvm12LiveInterval12freeSubRangeEPNS0_8SubRangeE
libLLVM.so.11:_ZN4llvm12LiveInterval14clearSubRangesEv
libLLVM.so.11:_ZN4llvm12LiveInterval15refineSubRangesERNS_20BumpPtrAllocatorImplINS_15MallocAllocatorELj4096ELj4096ELj128EEENS_11LaneBitmaskESt8functionIFvRNS0_8SubRangeEEERKNS_11SlotIndexesERKNS_18TargetRegisterInfoEj
libLLVM.so.11:_ZN4llvm12LiveInterval20removeEmptySubRangesEv
libLLVM.so.11:_ZN4llvm12LivePhysRegs10addLiveInsERKNS_17MachineBasicBlockE
libLLVM.so.11:_ZN4llvm12LivePhysRegs10removeDefsERKNS_12MachineInstrE
libLLVM.so.11:_ZN4llvm12LivePhysRegs11addLiveOutsERKNS_17MachineBasicBlockE
libLLVM.so.11:_ZN4llvm12LivePhysRegs11stepForwardERKNS_12MachineInstrERNS_15SmallVectorImplISt4pairItPKNS_14MachineOperandEEEE
libLLVM.so.11:_ZN4llvm12LivePhysRegs12addPristinesERKNS_15MachineFunctionE
libLLVM.so.11:_ZN4llvm12LivePhysRegs12stepBackwardERKNS_12MachineInstrE
libLLVM.so.11:_ZN4llvm12LivePhysRegs15addBlockLiveInsERKNS_17MachineBasicBlockE
libLLVM.so.11:_ZN4llvm12LivePhysRegs16removeRegsInMaskERKNS_14MachineOperandEPNS_15SmallVectorImplISt4pairItPS2_EEE
libLLVM.so.11:_ZN4llvm12LivePhysRegs22addLiveOutsNoPristinesERKNS_17MachineBasicBlockE
libLLVM.so.11:_ZN4llvm12LivePhysRegs7addUsesERKNS_12MachineInstrE
libLLVM.so.11:_ZN4llvm12LiveRegUnits10accumulateERKNS_12MachineInstrE
libLLVM.so.11:_ZN4llvm12LiveRegUnits10addLiveInsERKNS_17MachineBasicBlockE
libLLVM.so.11:_ZN4llvm12LiveRegUnits11addLiveOutsERKNS_17MachineBasicBlockE
libLLVM.so.11:_ZN4llvm12LiveRegUnits12addPristinesERKNS_15MachineFunctionE
libLLVM.so.11:_ZN4llvm12LiveRegUnits12stepBackwardERKNS_12MachineInstrE
libLLVM.so.11:_ZN4llvm12LiveRegUnits13addRegsInMaskEPKj
libLLVM.so.11:_ZN4llvm12LiveRegUnits22removeRegsNotPreservedEPKj
libLLVM.so.11:_ZN4llvm12LoopAnalysis3runERNS_8FunctionERNS_15AnalysisManagerIS1_JEEE
libLLVM.so.11:_ZN4llvm12LoopFusePass3runERNS_8FunctionERNS_15AnalysisManagerIS1_JEEE
libLLVM.so.11:_ZN4llvm12LoopRotationEPNS_4LoopEPNS_8LoopInfoEPKNS_19TargetTransformInfoEPNS_15AssumptionCacheEPNS_13DominatorTreeEPNS_15ScalarEvolutionEPNS_16MemorySSAUpdaterERKNS_13SimplifyQueryEbjb
libLLVM.so.11:_ZN4llvm12LoopSinkPass3runERNS_8FunctionERNS_15AnalysisManagerIS1_JEEE
libLLVM.so.11:_ZN4llvm12MCAsmBackendC2ENS_7support10endiannessE
libLLVM.so.11:_ZN4llvm12MCAsmBackendD0Ev
libLLVM.so.11:_ZN4llvm12MCAsmBackendD1Ev
libLLVM.so.11:_ZN4llvm12MCAsmBackendD2Ev
libLLVM.so.11:_ZN4llvm12MCAsmInfoELF6anchorEv
libLLVM.so.11:_ZN4llvm12MCAsmInfoELFC1Ev
libLLVM.so.11:_ZN4llvm12MCAsmInfoELFC2Ev
libLLVM.so.11:_ZN4llvm12MCBinaryExpr6createENS0_6OpcodeEPKNS_6MCExprES4_RNS_9MCContextENS_5SMLocE
libLLVM.so.11:_ZN4llvm12MCSchedModel19computeInstrLatencyERKNS_15MCSubtargetInfoERKNS_16MCSchedClassDescE
libLLVM.so.11:_ZN4llvm12MCSchedModel23getReciprocalThroughputERKNS_15MCSubtargetInfoERKNS_16MCSchedClassDescE
libLLVM.so.11:_ZN4llvm12MCSchedModel23getReciprocalThroughputEjRKNS_18InstrItineraryDataE
libLLVM.so.11:_ZN4llvm12MCSchedModel24getForwardingDelayCyclesENS_8ArrayRefINS_18MCReadAdvanceEntryEEEj
libLLVM.so.11:_ZN4llvm12MCSymbolizerD0Ev
libLLVM.so.11:_ZN4llvm12MCSymbolizerD1Ev
libLLVM.so.11:_ZN4llvm12MCSymbolizerD2Ev
libLLVM.so.11:_ZN4llvm12MCTargetExpr6anchorEv
libLLVM.so.11:_ZN4llvm12MDNodeOpsKey13calculateHashENS_8ArrayRefIPNS_8MetadataEEE
libLLVM.so.11:_ZN4llvm12MDNodeOpsKey13calculateHashEPNS_6MDNodeEj
libLLVM.so.11:_ZN4llvm12MIRFormatter12parseIRValueENS_9StringRefERNS_15MachineFunctionERNS_25PerFunctionMIParsingStateERPKNS_5ValueENS_12function_refIFbPKcRKNS_5TwineEEEE
libLLVM.so.11:_ZN4llvm12MIRFormatter12printIRValueERNS_11raw_ostreamERKNS_5ValueERNS_17ModuleSlotTrackerE
libLLVM.so.11:_ZN4llvm12MachineInstr10addOperandERKNS_14MachineOperandE
libLLVM.so.11:_ZN4llvm12MachineInstr10addOperandERNS_15MachineFunctionERKNS_14MachineOperandE
libLLVM.so.11:_ZN4llvm12MachineInstr10getRegInfoEv
libLLVM.so.11:_ZN4llvm12MachineInstr10setMemRefsERNS_15MachineFunctionENS_8ArrayRefIPNS_17MachineMemOperandEEE
libLLVM.so.11:_ZN4llvm12MachineInstr11copyIRFlagsERKNS_11InstructionE
libLLVM.so.11:_ZN4llvm12MachineInstr11dropMemRefsERNS_15MachineFunctionE
libLLVM.so.11:_ZN4llvm12MachineInstr11tieOperandsEjj
libLLVM.so.11:_ZN4llvm12MachineInstr12cloneMemRefsERNS_15MachineFunctionERKS0_
libLLVM.so.11:_ZN4llvm12MachineInstr12setExtraInfoERNS_15MachineFunctionENS_8ArrayRefIPNS_17MachineMemOperandEEEPNS_8MCSymbolES8_PNS_6MDNodeE
libLLVM.so.11:_ZN4llvm12MachineInstr13RemoveOperandEj
libLLVM.so.11:_ZN4llvm12MachineInstr13addMemOperandERNS_15MachineFunctionEPNS_17MachineMemOperandE
libLLVM.so.11:_ZN4llvm12MachineInstr13clearKillInfoEv
libLLVM.so.11:_ZN4llvm12MachineInstr14bundleWithPredEv
libLLVM.so.11:_ZN4llvm12MachineInstr14bundleWithSuccEv
libLLVM.so.11:_ZN4llvm12MachineInstr15addRegisterDeadENS_8RegisterEPKNS_18TargetRegisterInfoEb
libLLVM.so.11:_ZN4llvm12MachineInstr15copyImplicitOpsERNS_15MachineFunctionERKS0_
libLLVM.so.11:_ZN4llvm12MachineInstr15eraseFromBundleEv
libLLVM.so.11:_ZN4llvm12MachineInstr15eraseFromParentEv
libLLVM.so.11:_ZN4llvm12MachineInstr16removeFromBundleEv
libLLVM.so.11:_ZN4llvm12MachineInstr16removeFromParentEv
libLLVM.so.11:_ZN4llvm12MachineInstr16unbundleFromPredEv
libLLVM.so.11:_ZN4llvm12MachineInstr16unbundleFromSuccEv
libLLVM.so.11:_ZN4llvm12MachineInstr17addRegisterKilledENS_8RegisterEPKNS_18TargetRegisterInfoEb
libLLVM.so.11:_ZN4llvm12MachineInstr17cloneInstrSymbolsERNS_15MachineFunctionERKS0_
libLLVM.so.11:_ZN4llvm12MachineInstr17setPreInstrSymbolERNS_15MachineFunctionEPNS_8MCSymbolE
libLLVM.so.11:_ZN4llvm12MachineInstr18addRegisterDefinedENS_8RegisterEPKNS_18TargetRegisterInfoE
libLLVM.so.11:_ZN4llvm12MachineInstr18clearRegisterDeadsENS_8RegisterE
libLLVM.so.11:_ZN4llvm12MachineInstr18clearRegisterKillsENS_8RegisterEPKNS_18TargetRegisterInfoE
libLLVM.so.11:_ZN4llvm12MachineInstr18cloneMergedMemRefsERNS_15MachineFunctionENS_8ArrayRefIPKS0_EE
libLLVM.so.11:_ZN4llvm12MachineInstr18collectDebugValuesERNS_15SmallVectorImplIPS0_EE
libLLVM.so.11:_ZN4llvm12MachineInstr18getDebugVariableOpEv
libLLVM.so.11:_ZN4llvm12MachineInstr18setHeapAllocMarkerERNS_15MachineFunctionEPNS_6MDNodeE
libLLVM.so.11:_ZN4llvm12MachineInstr18setPostInstrSymbolERNS_15MachineFunctionEPNS_8MCSymbolE
libLLVM.so.11:_ZN4llvm12MachineInstr18substituteRegisterENS_8RegisterES1_jRKNS_18TargetRegisterInfoE
libLLVM.so.11:_ZN4llvm12MachineInstr20getDebugExpressionOpEv
libLLVM.so.11:_ZN4llvm12MachineInstr21setPhysRegsDeadExceptENS_8ArrayRefINS_8RegisterEEERKNS_18TargetRegisterInfoE
libLLVM.so.11:_ZN4llvm12MachineInstr23changeDebugValuesDefRegENS_8RegisterE
libLLVM.so.11:_ZN4llvm12MachineInstr23setRegisterDefReadUndefENS_8RegisterEb
libLLVM.so.11:_ZN4llvm12MachineInstr24AddRegOperandsToUseListsERNS_19MachineRegisterInfoE
libLLVM.so.11:_ZN4llvm12MachineInstr24copyFlagsFromInstructionERKNS_11InstructionE
libLLVM.so.11:_ZN4llvm12MachineInstr25addImplicitDefUseOperandsERNS_15MachineFunctionE
libLLVM.so.11:_ZN4llvm12MachineInstr29RemoveRegOperandsFromUseListsERNS_19MachineRegisterInfoE
libLLVM.so.11:_ZN4llvm12MachineInstr41eraseFromParentAndMarkDBGValuesForRemovalEv
libLLVM.so.11:_ZN4llvm12MachineInstrC1ERNS_15MachineFunctionERKNS_11MCInstrDescENS_8DebugLocEb
libLLVM.so.11:_ZN4llvm12MachineInstrC1ERNS_15MachineFunctionERKS0_
libLLVM.so.11:_ZN4llvm12MachineInstrC2ERNS_15MachineFunctionERKNS_11MCInstrDescENS_8DebugLocEb
libLLVM.so.11:_ZN4llvm12MachineInstrC2ERNS_15MachineFunctionERKS0_
libLLVM.so.11:_ZN4llvm12MemoryBuffer11getOpenFileEiRKNS_5TwineEybb
libLLVM.so.11:_ZN4llvm12MemoryBuffer12getFileSliceERKNS_5TwineEyyb
libLLVM.so.11:_ZN4llvm12MemoryBuffer12getMemBufferENS_15MemoryBufferRefEb
libLLVM.so.11:_ZN4llvm12MemoryBuffer12getMemBufferENS_9StringRefES1_b
libLLVM.so.11:_ZN4llvm12MemoryBuffer14getFileOrSTDINERKNS_5TwineExb
libLLVM.so.11:_ZN4llvm12MemoryBuffer15getFileAsStreamERKNS_5TwineE
libLLVM.so.11:_ZN4llvm12MemoryBuffer16getMemBufferCopyENS_9StringRefERKNS_5TwineE
libLLVM.so.11:_ZN4llvm12MemoryBuffer16getOpenFileSliceEiRKNS_5TwineEyxb
libLLVM.so.11:_ZN4llvm12MemoryBuffer4initEPKcS2_b
libLLVM.so.11:_ZN4llvm12MemoryBuffer7getFileERKNS_5TwineExbb
libLLVM.so.11:_ZN4llvm12MemoryBuffer8getSTDINEv
libLLVM.so.11:_ZN4llvm12MemoryBufferD0Ev
libLLVM.so.11:_ZN4llvm12MemoryBufferD1Ev
libLLVM.so.11:_ZN4llvm12MemoryBufferD2Ev
libLLVM.so.11:_ZN4llvm12MinidumpYAML6Object6createERKNS_6object12MinidumpFileE
libLLVM.so.11:_ZN4llvm12MinidumpYAML6Stream6createENS_8minidump10StreamTypeE
libLLVM.so.11:_ZN4llvm12MinidumpYAML6Stream6createERKNS_8minidump9DirectoryERKNS_6object12MinidumpFileE
libLLVM.so.11:_ZN4llvm12MinidumpYAML6Stream7getKindENS_8minidump10StreamTypeE
libLLVM.so.11:_ZN4llvm12MinidumpYAML6StreamD0Ev
libLLVM.so.11:_ZN4llvm12MinidumpYAML6StreamD1Ev
libLLVM.so.11:_ZN4llvm12MinidumpYAML6StreamD2Ev
libLLVM.so.11:_ZN4llvm12OverlapStats12addOneUniqueERKNS_17CountSumOrPercentE
libLLVM.so.11:_ZN4llvm12OverlapStats14addOneMismatchERKNS_17CountSumOrPercentE
libLLVM.so.11:_ZN4llvm12OverlapStats16accumulateCountsERKNSt7__cxx1112basic_stringIcSt11char_traitsIcESaIcEEES8_b
libLLVM.so.11:_ZN4llvm12PHITransAddr17PHITranslateValueEPNS_10BasicBlockES2_PKNS_13DominatorTreeEb
libLLVM.so.11:_ZN4llvm12PHITransAddr19PHITranslateSubExprEPNS_5ValueEPNS_10BasicBlockES4_PKNS_13DominatorTreeE
libLLVM.so.11:_ZN4llvm12PHITransAddr25PHITranslateWithInsertionEPNS_10BasicBlockES2_RKNS_13DominatorTreeERNS_15SmallVectorImplIPNS_11InstructionEEE
libLLVM.so.11:_ZN4llvm12PHITransAddr26InsertPHITranslatedSubExprEPNS_5ValueEPNS_10BasicBlockES4_RKNS_13DominatorTreeERNS_15SmallVectorImplIPNS_11InstructionEEE
libLLVM.so.11:_ZN4llvm12PassRegistry12registerPassERKNS_8PassInfoEb
libLLVM.so.11:_ZN4llvm12PassRegistry13enumerateWithEPNS_24PassRegistrationListenerE
libLLVM.so.11:_ZN4llvm12PassRegistry15getPassRegistryEv
libLLVM.so.11:_ZN4llvm12PassRegistry21registerAnalysisGroupEPKvS2_RNS_8PassInfoEbb
libLLVM.so.11:_ZN4llvm12PassRegistry23addRegistrationListenerEPNS_24PassRegistrationListenerE
libLLVM.so.11:_ZN4llvm12PassRegistry26removeRegistrationListenerEPNS_24PassRegistrationListenerE
libLLVM.so.11:_ZN4llvm12PassRegistryD1Ev
libLLVM.so.11:_ZN4llvm12PassRegistryD2Ev
libLLVM.so.11:_ZN4llvm12PluginLoader13getNumPluginsEv
libLLVM.so.11:_ZN4llvm12PluginLoader9getPluginB5cxx11Ej
libLLVM.so.11:_ZN4llvm12PluginLoaderaSERKNSt7__cxx1112basic_stringIcSt11char_traitsIcESaIcEEE
libLLVM.so.11:_ZN4llvm12PressureDiff17addPressureChangeEjbPKNS_19MachineRegisterInfoE
libLLVM.so.11:_ZN4llvm12PtrToIntInstC1EPNS_5ValueEPNS_4TypeERKNS_5TwineEPNS_10BasicBlockE
libLLVM.so.11:_ZN4llvm12PtrToIntInstC1EPNS_5ValueEPNS_4TypeERKNS_5TwineEPNS_11InstructionE
libLLVM.so.11:_ZN4llvm12PtrToIntInstC2EPNS_5ValueEPNS_4TypeERKNS_5TwineEPNS_10BasicBlockE
libLLVM.so.11:_ZN4llvm12PtrToIntInstC2EPNS_5ValueEPNS_4TypeERKNS_5TwineEPNS_11InstructionE
libLLVM.so.11:_ZN4llvm12RegAllocBase12seedLiveRegsEv
libLLVM.so.11:_ZN4llvm12RegAllocBase16allocatePhysRegsEv
libLLVM.so.11:_ZN4llvm12RegAllocBase16postOptimizationEv
libLLVM.so.11:_ZN4llvm12RegAllocBase4initERNS_10VirtRegMapERNS_13LiveIntervalsERNS_13LiveRegMatrixE
libLLVM.so.11:_ZN4llvm12RegAllocBase6anchorEv
libLLVM.so.11:_ZN4llvm12RegScavenger10setRegUsedENS_8RegisterENS_11LaneBitmaskE
libLLVM.so.11:_ZN4llvm12RegScavenger11addRegUnitsERNS_9BitVectorENS_8RegisterE
libLLVM.so.11:_ZN4llvm12RegScavenger14removeRegUnitsERNS_9BitVectorENS_8RegisterE
libLLVM.so.11:_ZN4llvm12RegScavenger15enterBasicBlockERNS_17MachineBasicBlockE
libLLVM.so.11:_ZN4llvm12RegScavenger15findSurvivorRegENS_26MachineInstrBundleIteratorINS_12MachineInstrELb0EEERNS_9BitVectorEjRS3_
libLLVM.so.11:_ZN4llvm12RegScavenger16getRegsAvailableEPKNS_19TargetRegisterClassE
libLLVM.so.11:_ZN4llvm12RegScavenger16scavengeRegisterEPKNS_19TargetRegisterClassENS_26MachineInstrBundleIteratorINS_12MachineInstrELb0EEEib
libLLVM.so.11:_ZN4llvm12RegScavenger18enterBasicBlockEndERNS_17MachineBasicBlockE
libLLVM.so.11:_ZN4llvm12RegScavenger21determineKillsAndDefsEv
libLLVM.so.11:_ZN4llvm12RegScavenger25scavengeRegisterBackwardsERKNS_19TargetRegisterClassENS_26MachineInstrBundleIteratorINS_12MachineInstrELb0EEEbib
libLLVM.so.11:_ZN4llvm12RegScavenger4initERNS_17MachineBasicBlockE
libLLVM.so.11:_ZN4llvm12RegScavenger5spillENS_8RegisterERKNS_19TargetRegisterClassEiNS_26MachineInstrBundleIteratorINS_12MachineInstrELb0EEERS7_
libLLVM.so.11:_ZN4llvm12RegScavenger7forwardEv
libLLVM.so.11:_ZN4llvm12RegScavenger8backwardEv
libLLVM.so.11:_ZN4llvm12RegScavenger9unprocessEv
libLLVM.so.11:_ZN4llvm12RegisterBankC1EjPKcjPKjj
libLLVM.so.11:_ZN4llvm12RegisterBankC2EjPKcjPKjj
libLLVM.so.11:_ZN4llvm12RegsForValueC1ERKNS_11SmallVectorIjLj4EEENS_3MVTENS_3EVTENS_8OptionalIjEE
libLLVM.so.11:_ZN4llvm12RegsForValueC1ERNS_11LLVMContextERKNS_14TargetLoweringERKNS_10DataLayoutEjPNS_4TypeENS_8OptionalIjEE
libLLVM.so.11:_ZN4llvm12RegsForValueC2ERKNS_11SmallVectorIjLj4EEENS_3MVTENS_3EVTENS_8OptionalIjEE
libLLVM.so.11:_ZN4llvm12RegsForValueC2ERNS_11LLVMContextERKNS_14TargetLoweringERKNS_10DataLayoutEjPNS_4TypeENS_8OptionalIjEE
libLLVM.so.11:_ZN4llvm12SCEVAAResult12GetBaseValueEPKNS_4SCEVE
libLLVM.so.11:_ZN4llvm12SCEVAAResult5aliasERKNS_14MemoryLocationES3_RNS_11AAQueryInfoE
libLLVM.so.11:_ZN4llvm12SCEVCastExprC1ENS_19FoldingSetNodeIDRefEjPKNS_4SCEVEPNS_4TypeE
libLLVM.so.11:_ZN4llvm12SCEVCastExprC2ENS_19FoldingSetNodeIDRefEjPKNS_4SCEVEPNS_4TypeE
libLLVM.so.11:_ZN4llvm12SCEVDivision12cannotDivideEPKNS_4SCEVE
libLLVM.so.11:_ZN4llvm12SCEVDivision12visitAddExprEPKNS_11SCEVAddExprE
libLLVM.so.11:_ZN4llvm12SCEVDivision12visitMulExprEPKNS_11SCEVMulExprE
libLLVM.so.11:_ZN4llvm12SCEVDivision13visitConstantEPKNS_12SCEVConstantE
libLLVM.so.11:_ZN4llvm12SCEVDivision15visitAddRecExprEPKNS_14SCEVAddRecExprE
libLLVM.so.11:_ZN4llvm12SCEVDivision6divideERNS_15ScalarEvolutionEPKNS_4SCEVES5_PS5_S6_
libLLVM.so.11:_ZN4llvm12SCEVDivisionC1ERNS_15ScalarEvolutionEPKNS_4SCEVES5_
libLLVM.so.11:_ZN4llvm12SCEVDivisionC2ERNS_15ScalarEvolutionEPKNS_4SCEVES5_
libLLVM.so.11:_ZN4llvm12SCEVExpander10hoistIVIncEPNS_11InstructionES2_
libLLVM.so.11:_ZN4llvm12SCEVExpander11InsertBinopENS_11Instruction9BinaryOpsEPNS_5ValueES4_NS_4SCEV11NoWrapFlagsEb
libLLVM.so.11:_ZN4llvm12SCEVExpander11expandIVIncEPNS_7PHINodeEPNS_5ValueEPKNS_4LoopEPNS_4TypeES9_b
libLLVM.so.11:_ZN4llvm12SCEVExpander12visitAddExprEPKNS_11SCEVAddExprE
libLLVM.so.11:_ZN4llvm12SCEVExpander12visitMulExprEPKNS_11SCEVMulExprE
libLLVM.so.11:_ZN4llvm12SCEVExpander13expandCodeForEPKNS_4SCEVEPNS_4TypeE
libLLVM.so.11:_ZN4llvm12SCEVExpander13expandCodeForEPKNS_4SCEVEPNS_4TypeEPNS_11InstructionE
libLLVM.so.11:_ZN4llvm12SCEVExpander13visitSMaxExprEPKNS_12SCEVSMaxExprE
libLLVM.so.11:_ZN4llvm12SCEVExpander13visitSMinExprEPKNS_12SCEVSMinExprE
libLLVM.so.11:_ZN4llvm12SCEVExpander13visitUDivExprEPKNS_12SCEVUDivExprE
libLLVM.so.11:_ZN4llvm12SCEVExpander13visitUMaxExprEPKNS_12SCEVUMaxExprE
libLLVM.so.11:_ZN4llvm12SCEVExpander13visitUMinExprEPKNS_12SCEVUMinExprE
libLLVM.so.11:_ZN4llvm12SCEVExpander14expandAddToGEPEPKNS_4SCEVEPNS_11PointerTypeEPNS_4TypeEPNS_5ValueE
libLLVM.so.11:_ZN4llvm12SCEVExpander14expandAddToGEPEPKPKNS_4SCEVES5_PNS_11PointerTypeEPNS_4TypeEPNS_5ValueE
libLLVM.so.11:_ZN4llvm12SCEVExpander14hoistBeforePosEPNS_13DominatorTreeEPNS_11InstructionES4_PNS_7PHINodeE
libLLVM.so.11:_ZN4llvm12SCEVExpander15getIVIncOperandEPNS_11InstructionES2_b
libLLVM.so.11:_ZN4llvm12SCEVExpander15getRelevantLoopEPKNS_4SCEVE
libLLVM.so.11:_ZN4llvm12SCEVExpander15visitAddRecExprEPKNS_14SCEVAddRecExprE
libLLVM.so.11:_ZN4llvm12SCEVExpander17ReuseOrCreateCastEPNS_5ValueEPNS_4TypeENS_11Instruction7CastOpsENS_14ilist_iteratorINS_12ilist_detail12node_optionsIS5_Lb0ELb0EvEELb0ELb0EEE
libLLVM.so.11:_ZN4llvm12SCEVExpander17fixupInsertPointsEPNS_11InstructionE
libLLVM.so.11:_ZN4llvm12SCEVExpander17visitTruncateExprEPKNS_16SCEVTruncateExprE
libLLVM.so.11:_ZN4llvm12SCEVExpander18InsertNoopCastOfToEPNS_5ValueEPNS_4TypeE
libLLVM.so.11:_ZN4llvm12SCEVExpander19expandWrapPredicateEPKNS_17SCEVWrapPredicateEPNS_11InstructionE
libLLVM.so.11:_ZN4llvm12SCEVExpander19rememberInstructionEPNS_5ValueE
libLLVM.so.11:_ZN4llvm12SCEVExpander19replaceCongruentIVsEPNS_4LoopEPKNS_13DominatorTreeERNS_15SmallVectorImplINS_14WeakTrackingVHEEEPKNS_19TargetTransformInfoE
libLLVM.so.11:_ZN4llvm12SCEVExpander19visitSignExtendExprEPKNS_18SCEVSignExtendExprE
libLLVM.so.11:_ZN4llvm12SCEVExpander19visitZeroExtendExprEPKNS_18SCEVZeroExtendExprE
libLLVM.so.11:_ZN4llvm12SCEVExpander20expandEqualPredicateEPKNS_18SCEVEqualPredicateEPNS_11InstructionE
libLLVM.so.11:_ZN4llvm12SCEVExpander20expandUnionPredicateEPKNS_18SCEVUnionPredicateEPNS_11InstructionE
libLLVM.so.11:_ZN4llvm12SCEVExpander21generateOverflowCheckEPKNS_14SCEVAddRecExprEPNS_11InstructionEb
libLLVM.so.11:_ZN4llvm12SCEVExpander21isNormalAddRecExprPHIEPNS_7PHINodeEPNS_11InstructionEPKNS_4LoopE
libLLVM.so.11:_ZN4llvm12SCEVExpander22expandCodeForPredicateEPKNS_13SCEVPredicateEPNS_11InstructionE
libLLVM.so.11:_ZN4llvm12SCEVExpander23FindValueInExprValueMapEPKNS_4SCEVEPKNS_11InstructionE
libLLVM.so.11:_ZN4llvm12SCEVExpander23isExpandedAddRecExprPHIEPNS_7PHINodeEPNS_11InstructionEPKNS_4LoopE
libLLVM.so.11:_ZN4llvm12SCEVExpander25expandAddRecExprLiterallyEPKNS_14SCEVAddRecExprE
libLLVM.so.11:_ZN4llvm12SCEVExpander25getAddRecExprPHILiterallyEPKNS_14SCEVAddRecExprEPKNS_4LoopEPNS_4TypeES8_RS8_Rb
libLLVM.so.11:_ZN4llvm12SCEVExpander25getExactExistingExpansionEPKNS_4SCEVEPKNS_11InstructionEPNS_4LoopE
libLLVM.so.11:_ZN4llvm12SCEVExpander25isHighCostExpansionHelperEPKNS_4SCEVEPNS_4LoopERKNS_11InstructionERiRKNS_19TargetTransformInfoERNS_15SmallPtrSetImplIS3_EERNS_15SmallVectorImplIS3_EE
libLLVM.so.11:_ZN4llvm12SCEVExpander27getRelatedExistingExpansionEPKNS_4SCEVEPKNS_11InstructionEPNS_4LoopE
libLLVM.so.11:_ZN4llvm12SCEVExpander37getOrInsertCanonicalInductionVariableEPKNS_4LoopEPNS_4TypeE
libLLVM.so.11:_ZN4llvm12SCEVExpander6expandEPKNS_4SCEVE
libLLVM.so.11:_ZN4llvm12SMDiagnosticC1ERKNS_9SourceMgrENS_5SMLocENS_9StringRefEiiNS1_8DiagKindES5_S5_NS_8ArrayRefISt4pairIjjEEENS7_INS_7SMFixItEEE
libLLVM.so.11:_ZN4llvm12SMDiagnosticC2ERKNS_9SourceMgrENS_5SMLocENS_9StringRefEiiNS1_8DiagKindES5_S5_NS_8ArrayRefISt4pairIjjEEENS7_INS_7SMFixItEEE
libLLVM.so.11:_ZN4llvm12SelectionDAG10DeleteNodeEPNS_6SDNodeE
libLLVM.so.11:_ZN4llvm12SelectionDAG10InsertNodeEPNS_6SDNodeE
libLLVM.so.11:_ZN4llvm12SelectionDAG10LegalizeOpEPNS_6SDNodeERNS_14SmallSetVectorIS2_Lj16EEE
libLLVM.so.11:_ZN4llvm12SelectionDAG10getBitcastENS_3EVTENS_7SDValueE
libLLVM.so.11:_ZN4llvm12SelectionDAG10getEHLabelERKNS_5SDLocENS_7SDValueEPNS_8MCSymbolE
libLLVM.so.11:_ZN4llvm12SelectionDAG10getExtLoadENS_3ISD11LoadExtTypeERKNS_5SDLocENS_3EVTENS_7SDValueES7_NS_18MachinePointerInfoES6_NS_10MaybeAlignENS_17MachineMemOperand5FlagsERKNS_9AAMDNodesE
libLLVM.so.11:_ZN4llvm12SelectionDAG10getExtLoadENS_3ISD11LoadExtTypeERKNS_5SDLocENS_3EVTENS_7SDValueES7_S6_PNS_17MachineMemOperandE
libLLVM.so.11:_ZN4llvm12SelectionDAG10getMemmoveENS_7SDValueERKNS_5SDLocES1_S1_S1_NS_5AlignEbbNS_18MachinePointerInfoES6_
libLLVM.so.11:_ZN4llvm12SelectionDAG11AddDbgLabelEPNS_10SDDbgLabelE
libLLVM.so.11:_ZN4llvm12SelectionDAG11AddDbgValueEPNS_10SDDbgValueEPNS_6SDNodeEb
libLLVM.so.11:_ZN4llvm12SelectionDAG11MorphNodeToEPNS_6SDNodeEjNS_8SDVTListENS_8ArrayRefINS_7SDValueEEE
libLLVM.so.11:_ZN4llvm12SelectionDAG11SplitVectorERKNS_7SDValueERKNS_5SDLocERKNS_3EVTES9_
libLLVM.so.11:_ZN4llvm12SelectionDAG11WidenVectorERKNS_7SDValueERKNS_5SDLocE
libLLVM.so.11:_ZN4llvm12SelectionDAG11expandVAArgEPNS_6SDNodeE
libLLVM.so.11:_ZN4llvm12SelectionDAG11getCondCodeENS_3ISD8CondCodeE
libLLVM.so.11:_ZN4llvm12SelectionDAG11getConstantERKNS_11ConstantIntERKNS_5SDLocENS_3EVTEbb
libLLVM.so.11:_ZN4llvm12SelectionDAG11getConstantERKNS_5APIntERKNS_5SDLocENS_3EVTEbb
libLLVM.so.11:_ZN4llvm12SelectionDAG11getConstantEyRKNS_5SDLocENS_3EVTEbb
libLLVM.so.11:_ZN4llvm12SelectionDAG11getDbgLabelEPNS_7DILabelERKNS_8DebugLocEj
libLLVM.so.11:_ZN4llvm12SelectionDAG11getDbgValueEPNS_10DIVariableEPNS_12DIExpressionEPNS_6SDNodeEjbRKNS_8DebugLocEj
libLLVM.so.11:_ZN4llvm12SelectionDAG11getMCSymbolEPNS_8MCSymbolENS_3EVTE
libLLVM.so.11:_ZN4llvm12SelectionDAG11getRegisterEjNS_3EVTE
libLLVM.so.11:_ZN4llvm12SelectionDAG11getSrcValueEPKNS_5ValueE
libLLVM.so.11:_ZN4llvm12SelectionDAG12SelectNodeToEPNS_6SDNodeEjNS_3EVTE
libLLVM.so.11:_ZN4llvm12SelectionDAG12SelectNodeToEPNS_6SDNodeEjNS_3EVTENS_7SDValueE
libLLVM.so.11:_ZN4llvm12SelectionDAG12SelectNodeToEPNS_6SDNodeEjNS_3EVTENS_7SDValueES4_
libLLVM.so.11:_ZN4llvm12SelectionDAG12SelectNodeToEPNS_6SDNodeEjNS_3EVTENS_7SDValueES4_S4_
libLLVM.so.11:_ZN4llvm12SelectionDAG12SelectNodeToEPNS_6SDNodeEjNS_3EVTENS_8ArrayRefINS_7SDValueEEE
libLLVM.so.11:_ZN4llvm12SelectionDAG12SelectNodeToEPNS_6SDNodeEjNS_3EVTES3_
libLLVM.so.11:_ZN4llvm12SelectionDAG12SelectNodeToEPNS_6SDNodeEjNS_3EVTES3_NS_7SDValueES4_
libLLVM.so.11:_ZN4llvm12SelectionDAG12SelectNodeToEPNS_6SDNodeEjNS_3EVTES3_NS_8ArrayRefINS_7SDValueEEE
libLLVM.so.11:_ZN4llvm12SelectionDAG12SelectNodeToEPNS_6SDNodeEjNS_3EVTES3_S3_NS_8ArrayRefINS_7SDValueEEE
libLLVM.so.11:_ZN4llvm12SelectionDAG12SelectNodeToEPNS_6SDNodeEjNS_8SDVTListENS_8ArrayRefINS_7SDValueEEE
libLLVM.so.11:_ZN4llvm12SelectionDAG12expandVACopyEPNS_6SDNodeE
libLLVM.so.11:_ZN4llvm12SelectionDAG12getJumpTableEiNS_3EVTEbj
libLLVM.so.11:_ZN4llvm12SelectionDAG12getLabelNodeEjRKNS_5SDLocENS_7SDValueEPNS_8MCSymbolE
libLLVM.so.11:_ZN4llvm12SelectionDAG12getValueTypeENS_3EVTE
libLLVM.so.11:_ZN4llvm12SelectionDAG12isSplatValueENS_7SDValueERKNS_5APIntERS2_
libLLVM.so.11:_ZN4llvm12SelectionDAG12isSplatValueENS_7SDValueEb
libLLVM.so.11:_ZN4llvm12SelectionDAG13LegalizeTypesEv
libLLVM.so.11:_ZN4llvm12SelectionDAG13getBasicBlockEPNS_17MachineBasicBlockE
libLLVM.so.11:_ZN4llvm12SelectionDAG13getConstantFPERKNS_10ConstantFPERKNS_5SDLocENS_3EVTEb
libLLVM.so.11:_ZN4llvm12SelectionDAG13getConstantFPERKNS_7APFloatERKNS_5SDLocENS_3EVTEb
libLLVM.so.11:_ZN4llvm12SelectionDAG13getConstantFPEdRKNS_5SDLocENS_3EVTEb
libLLVM.so.11:_ZN4llvm12SelectionDAG13getFrameIndexEiNS_3EVTEb
libLLVM.so.11:_ZN4llvm12SelectionDAG13getLogicalNOTERKNS_5SDLocENS_7SDValueENS_3EVTE
libLLVM.so.11:_ZN4llvm12SelectionDAG13getMaskedLoadENS_3EVTERKNS_5SDLocENS_7SDValueES5_S5_S5_S5_S1_PNS_17MachineMemOperandENS_3ISD14MemIndexedModeENS8_11LoadExtTypeEb
libLLVM.so.11:_ZN4llvm12SelectionDAG13getSplatValueENS_7SDValueE
libLLVM.so.11:_ZN4llvm12SelectionDAG13getTruncStoreENS_7SDValueERKNS_5SDLocES1_S1_NS_18MachinePointerInfoENS_3EVTENS_5AlignENS_17MachineMemOperand5FlagsERKNS_9AAMDNodesE
libLLVM.so.11:_ZN4llvm12SelectionDAG13getTruncStoreENS_7SDValueERKNS_5SDLocES1_S1_NS_3EVTEPNS_17MachineMemOperandE
libLLVM.so.11:_ZN4llvm12SelectionDAG13setGraphAttrsEPKNS_6SDNodeEPKc
libLLVM.so.11:_ZN4llvm12SelectionDAG13setGraphColorEPKNS_6SDNodeEPKc
libLLVM.so.11:_ZN4llvm12SelectionDAG13simplifyShiftENS_7SDValueES1_
libLLVM.so.11:_ZN4llvm12SelectionDAG14DeallocateNodeEPNS_6SDNodeE
libLLVM.so.11:_ZN4llvm12SelectionDAG14RemoveDeadNodeEPNS_6SDNodeE
libLLVM.so.11:_ZN4llvm12SelectionDAG14UnrollVectorOpEPNS_6SDNodeEj
libLLVM.so.11:_ZN4llvm12SelectionDAG14allnodes_clearEv
libLLVM.so.11:_ZN4llvm12SelectionDAG14createOperandsEPNS_6SDNodeENS_8ArrayRefINS_7SDValueEEE
libLLVM.so.11:_ZN4llvm12SelectionDAG14getAssertAlignERKNS_5SDLocENS_7SDValueENS_5AlignE
libLLVM.so.11:_ZN4llvm12SelectionDAG14getIndexedLoadENS_7SDValueERKNS_5SDLocES1_S1_NS_3ISD14MemIndexedModeE
libLLVM.so.11:_ZN4llvm12SelectionDAG14getMachineNodeEjRKNS_5SDLocENS_3EVTE
libLLVM.so.11:_ZN4llvm12SelectionDAG14getMachineNodeEjRKNS_5SDLocENS_3EVTENS_7SDValueE
libLLVM.so.11:_ZN4llvm12SelectionDAG14getMachineNodeEjRKNS_5SDLocENS_3EVTENS_7SDValueES5_
libLLVM.so.11:_ZN4llvm12SelectionDAG14getMachineNodeEjRKNS_5SDLocENS_3EVTENS_7SDValueES5_S5_
libLLVM.so.11:_ZN4llvm12SelectionDAG14getMachineNodeEjRKNS_5SDLocENS_3EVTENS_8ArrayRefINS_7SDValueEEE
libLLVM.so.11:_ZN4llvm12SelectionDAG14getMachineNodeEjRKNS_5SDLocENS_3EVTES4_NS_7SDValueES5_
libLLVM.so.11:_ZN4llvm12SelectionDAG14getMachineNodeEjRKNS_5SDLocENS_3EVTES4_NS_7SDValueES5_S5_
libLLVM.so.11:_ZN4llvm12SelectionDAG14getMachineNodeEjRKNS_5SDLocENS_3EVTES4_NS_8ArrayRefINS_7SDValueEEE
libLLVM.so.11:_ZN4llvm12SelectionDAG14getMachineNodeEjRKNS_5SDLocENS_3EVTES4_S4_NS_7SDValueES5_
libLLVM.so.11:_ZN4llvm12SelectionDAG14getMachineNodeEjRKNS_5SDLocENS_3EVTES4_S4_NS_7SDValueES5_S5_
libLLVM.so.11:_ZN4llvm12SelectionDAG14getMachineNodeEjRKNS_5SDLocENS_3EVTES4_S4_NS_8ArrayRefINS_7SDValueEEE
libLLVM.so.11:_ZN4llvm12SelectionDAG14getMachineNodeEjRKNS_5SDLocENS_8ArrayRefINS_3EVTEEENS4_INS_7SDValueEEE
libLLVM.so.11:_ZN4llvm12SelectionDAG14getMachineNodeEjRKNS_5SDLocENS_8SDVTListENS_8ArrayRefINS_7SDValueEEE
libLLVM.so.11:_ZN4llvm12SelectionDAG14getMaskedStoreENS_7SDValueERKNS_5SDLocES1_S1_S1_S1_NS_3EVTEPNS_17MachineMemOperandENS_3ISD14MemIndexedModeEbb
libLLVM.so.11:_ZN4llvm12SelectionDAG14getMergeValuesENS_8ArrayRefINS_7SDValueEEERKNS_5SDLocE
libLLVM.so.11:_ZN4llvm12SelectionDAG14getSExtOrTruncENS_7SDValueERKNS_5SDLocENS_3EVTE
libLLVM.so.11:_ZN4llvm12SelectionDAG14getTargetIndexEiNS_3EVTExj
libLLVM.so.11:_ZN4llvm12SelectionDAG14getTokenFactorERKNS_5SDLocERNS_15SmallVectorImplINS_7SDValueEEE
libLLVM.so.11:_ZN4llvm12SelectionDAG14getZExtOrTruncENS_7SDValueERKNS_5SDLocENS_3EVTE
libLLVM.so.11:_ZN4llvm12SelectionDAG14setNodeMemRefsEPNS_13MachineSDNodeENS_8ArrayRefIPNS_17MachineMemOperandEEE
libLLVM.so.11:_ZN4llvm12SelectionDAG14simplifySelectENS_7SDValueES1_S1_
libLLVM.so.11:_ZN4llvm12SelectionDAG15GetDemandedBitsENS_7SDValueERKNS_5APIntE
libLLVM.so.11:_ZN4llvm12SelectionDAG15GetDemandedBitsENS_7SDValueERKNS_5APIntES4_
libLLVM.so.11:_ZN4llvm12SelectionDAG15LegalizeVectorsEv
libLLVM.so.11:_ZN4llvm12SelectionDAG15RemoveDeadNodesERNS_15SmallVectorImplIPNS_6SDNodeEEE
libLLVM.so.11:_ZN4llvm12SelectionDAG15RemoveDeadNodesEv
libLLVM.so.11:_ZN4llvm12SelectionDAG15clearGraphAttrsEv
libLLVM.so.11:_ZN4llvm12SelectionDAG15getAtomicMemcpyENS_7SDValueERKNS_5SDLocES1_jS1_jS1_PNS_4TypeEjbNS_18MachinePointerInfoES7_
libLLVM.so.11:_ZN4llvm12SelectionDAG15getAtomicMemsetENS_7SDValueERKNS_5SDLocES1_jS1_S1_PNS_4TypeEjbNS_18MachinePointerInfoE
libLLVM.so.11:_ZN4llvm12SelectionDAG15getBlockAddressEPKNS_12BlockAddressENS_3EVTExbj
libLLVM.so.11:_ZN4llvm12SelectionDAG15getBoolConstantEbRKNS_5SDLocENS_3EVTES4_
libLLVM.so.11:_ZN4llvm12SelectionDAG15getConstantPoolEPKNS_8ConstantENS_3EVTENS_10MaybeAlignEibj
libLLVM.so.11:_ZN4llvm12SelectionDAG15getConstantPoolEPNS_24MachineConstantPoolValueENS_3EVTENS_10MaybeAlignEibj
libLLVM.so.11:_ZN4llvm12SelectionDAG15getIndexedStoreENS_7SDValueERKNS_5SDLocES1_S1_NS_3ISD14MemIndexedModeE
libLLVM.so.11:_ZN4llvm12SelectionDAG15getLifetimeNodeEbRKNS_5SDLocENS_7SDValueEixx
libLLVM.so.11:_ZN4llvm12SelectionDAG15getMaskedGatherENS_8SDVTListENS_3EVTERKNS_5SDLocENS_8ArrayRefINS_7SDValueEEEPNS_17MachineMemOperandENS_3ISD12MemIndexTypeE
libLLVM.so.11:_ZN4llvm12SelectionDAG15getNodeIfExistsEjNS_8SDVTListENS_8ArrayRefINS_7SDValueEEENS_11SDNodeFlagsE
libLLVM.so.11:_ZN4llvm12SelectionDAG15getReducedAlignENS_3EVTEb
libLLVM.so.11:_ZN4llvm12SelectionDAG15getRegisterMaskEPKj
libLLVM.so.11:_ZN4llvm12SelectionDAG15getVRegDbgValueEPNS_10DIVariableEPNS_12DIExpressionEjbRKNS_8DebugLocEj
libLLVM.so.11:_ZN4llvm12SelectionDAG15simplifyFPBinopEjNS_7SDValueES1_NS_11SDNodeFlagsE
libLLVM.so.11:_ZN4llvm12SelectionDAG16FoldSymbolOffsetEjNS_3EVTEPKNS_19GlobalAddressSDNodeEPKNS_6SDNodeE
libLLVM.so.11:_ZN4llvm12SelectionDAG16getAddrSpaceCastERKNS_5SDLocENS_3EVTENS_7SDValueEjj
libLLVM.so.11:_ZN4llvm12SelectionDAG16getAnyExtOrTruncENS_7SDValueERKNS_5SDLocENS_3EVTE
libLLVM.so.11:_ZN4llvm12SelectionDAG16getAtomicCmpSwapEjRKNS_5SDLocENS_3EVTENS_8SDVTListENS_7SDValueES6_S6_S6_PNS_17MachineMemOperandE
libLLVM.so.11:_ZN4llvm12SelectionDAG16getAtomicMemmoveENS_7SDValueERKNS_5SDLocES1_jS1_jS1_PNS_4TypeEjbNS_18MachinePointerInfoES7_
libLLVM.so.11:_ZN4llvm12SelectionDAG16getGlobalAddressEPKNS_11GlobalValueERKNS_5SDLocENS_3EVTExbj
libLLVM.so.11:_ZN4llvm12SelectionDAG16getMaskedScatterENS_8SDVTListENS_3EVTERKNS_5SDLocENS_8ArrayRefINS_7SDValueEEEPNS_17MachineMemOperandENS_3ISD12MemIndexTypeE
libLLVM.so.11:_ZN4llvm12SelectionDAG16getPtrExtOrTruncENS_7SDValueERKNS_5SDLocENS_3EVTE
libLLVM.so.11:_ZN4llvm12SelectionDAG16getVectorShuffleENS_3EVTERKNS_5SDLocENS_7SDValueES5_NS_8ArrayRefIiEE
libLLVM.so.11:_ZN4llvm12SelectionDAG16salvageDebugInfoERNS_6SDNodeE
libLLVM.so.11:_ZN4llvm12SelectionDAG16setSubgraphColorEPNS_6SDNodeEPKc
libLLVM.so.11:_ZN4llvm12SelectionDAG16updateDivergenceEPNS_6SDNodeE
libLLVM.so.11:_ZN4llvm12SelectionDAG17DAGUpdateListener11NodeDeletedEPNS_6SDNodeES3_
libLLVM.so.11:_ZN4llvm12SelectionDAG17DAGUpdateListener11NodeUpdatedEPNS_6SDNodeE
libLLVM.so.11:_ZN4llvm12SelectionDAG17DAGUpdateListener12NodeInsertedEPNS_6SDNodeE
libLLVM.so.11:_ZN4llvm12SelectionDAG17getBoolExtOrTruncENS_7SDValueERKNS_5SDLocENS_3EVTES5_
libLLVM.so.11:_ZN4llvm12SelectionDAG17getExternalSymbolEPKcNS_3EVTE
libLLVM.so.11:_ZN4llvm12SelectionDAG17getIntPtrConstantEyRKNS_5SDLocEb
libLLVM.so.11:_ZN4llvm12SelectionDAG17getPtrExtendInRegENS_7SDValueERKNS_5SDLocENS_3EVTE
libLLVM.so.11:_ZN4llvm12SelectionDAG17transferDbgValuesENS_7SDValueES1_jjb
libLLVM.so.11:_ZN4llvm12SelectionDAG18ReplaceAllUsesWithENS_7SDValueES1_
libLLVM.so.11:_ZN4llvm12SelectionDAG18ReplaceAllUsesWithEPNS_6SDNodeEPKNS_7SDValueE
libLLVM.so.11:_ZN4llvm12SelectionDAG18ReplaceAllUsesWithEPNS_6SDNodeES2_
libLLVM.so.11:_ZN4llvm12SelectionDAG18UpdateNodeOperandsEPNS_6SDNodeENS_7SDValueE
libLLVM.so.11:_ZN4llvm12SelectionDAG18UpdateNodeOperandsEPNS_6SDNodeENS_7SDValueES3_
libLLVM.so.11:_ZN4llvm12SelectionDAG18UpdateNodeOperandsEPNS_6SDNodeENS_7SDValueES3_S3_
libLLVM.so.11:_ZN4llvm12SelectionDAG18UpdateNodeOperandsEPNS_6SDNodeENS_7SDValueES3_S3_S3_
libLLVM.so.11:_ZN4llvm12SelectionDAG18UpdateNodeOperandsEPNS_6SDNodeENS_7SDValueES3_S3_S3_S3_
libLLVM.so.11:_ZN4llvm12SelectionDAG18UpdateNodeOperandsEPNS_6SDNodeENS_8ArrayRefINS_7SDValueEEE
libLLVM.so.11:_ZN4llvm12SelectionDAG18foldConstantFPMathEjRKNS_5SDLocENS_3EVTENS_7SDValueES5_
libLLVM.so.11:_ZN4llvm12SelectionDAG18getFPExtendOrRoundENS_7SDValueERKNS_5SDLocENS_3EVTE
libLLVM.so.11:_ZN4llvm12SelectionDAG18getZeroExtendInRegENS_7SDValueERKNS_5SDLocENS_3EVTE
libLLVM.so.11:_ZN4llvm12SelectionDAG18mutateStrictFPToFPEPNS_6SDNodeE
libLLVM.so.11:_ZN4llvm12SelectionDAG19FindNodeOrInsertPosERKNS_16FoldingSetNodeIDERKNS_5SDLocERPv
libLLVM.so.11:_ZN4llvm12SelectionDAG19FindNodeOrInsertPosERKNS_16FoldingSetNodeIDERPv
libLLVM.so.11:_ZN4llvm12SelectionDAG19getConstantDbgValueEPNS_10DIVariableEPNS_12DIExpressionEPKNS_5ValueERKNS_8DebugLocEj
libLLVM.so.11:_ZN4llvm12SelectionDAG19getMemIntrinsicNodeEjRKNS_5SDLocENS_8SDVTListENS_8ArrayRefINS_7SDValueEEENS_3EVTENS_18MachinePointerInfoENS_5AlignENS_17MachineMemOperand5FlagsEyRKNS_9AAMDNodesE
libLLVM.so.11:_ZN4llvm12SelectionDAG19getMemIntrinsicNodeEjRKNS_5SDLocENS_8SDVTListENS_8ArrayRefINS_7SDValueEEENS_3EVTEPNS_17MachineMemOperandE
libLLVM.so.11:_ZN4llvm12SelectionDAG19matchBinOpReductionEPNS_6SDNodeERNS_3ISD8NodeTypeENS_8ArrayRefIS4_EEb
libLLVM.so.11:_ZN4llvm12SelectionDAG20CreateStackTemporaryENS_3EVTES1_
libLLVM.so.11:_ZN4llvm12SelectionDAG20CreateStackTemporaryENS_3EVTEj
libLLVM.so.11:_ZN4llvm12SelectionDAG20CreateStackTemporaryENS_8TypeSizeENS_5AlignE
libLLVM.so.11:_ZN4llvm12SelectionDAG20FindModifiedNodeSlotEPNS_6SDNodeENS_7SDValueERPv
libLLVM.so.11:_ZN4llvm12SelectionDAG20FindModifiedNodeSlotEPNS_6SDNodeENS_7SDValueES3_RPv
libLLVM.so.11:_ZN4llvm12SelectionDAG20FindModifiedNodeSlotEPNS_6SDNodeENS_8ArrayRefINS_7SDValueEEERPv
libLLVM.so.11:_ZN4llvm12SelectionDAG20getIndexedMaskedLoadENS_7SDValueERKNS_5SDLocES1_S1_NS_3ISD14MemIndexedModeE
libLLVM.so.11:_ZN4llvm12SelectionDAG20getMemBasePlusOffsetENS_7SDValueES1_RKNS_5SDLocENS_11SDNodeFlagsE
libLLVM.so.11:_ZN4llvm12SelectionDAG20getMemBasePlusOffsetENS_7SDValueExRKNS_5SDLocENS_11SDNodeFlagsE
libLLVM.so.11:_ZN4llvm12SelectionDAG20getSplatSourceVectorENS_7SDValueERi
libLLVM.so.11:_ZN4llvm12SelectionDAG20getVectorIdxConstantEyRKNS_5SDLocEb
libLLVM.so.11:_ZN4llvm12SelectionDAG21ExtractVectorElementsENS_7SDValueERNS_15SmallVectorImplIS1_EEjjNS_3EVTE
libLLVM.so.11:_ZN4llvm12SelectionDAG21RemoveNodeFromCSEMapsEPNS_6SDNodeE
libLLVM.so.11:_ZN4llvm12SelectionDAG21getFrameIndexDbgValueEPNS_10DIVariableEPNS_12DIExpressionEjbRKNS_8DebugLocEj
libLLVM.so.11:_ZN4llvm12SelectionDAG21getIndexedMaskedStoreENS_7SDValueERKNS_5SDLocES1_S1_NS_3ISD14MemIndexedModeE
libLLVM.so.11:_ZN4llvm12SelectionDAG21getShiftAmountOperandENS_3EVTENS_7SDValueE
libLLVM.so.11:_ZN4llvm12SelectionDAG21getTargetInsertSubregEiRKNS_5SDLocENS_3EVTENS_7SDValueES5_
libLLVM.so.11:_ZN4llvm12SelectionDAG22AssignTopologicalOrderEv
libLLVM.so.11:_ZN4llvm12SelectionDAG22CreateTopologicalOrderERSt6vectorIPNS_6SDNodeESaIS3_EE
libLLVM.so.11:_ZN4llvm12SelectionDAG22DAGNodeDeletedListener6anchorEv
libLLVM.so.11:_ZN4llvm12SelectionDAG22DeleteNodeNotInCSEMapsEPNS_6SDNodeE
libLLVM.so.11:_ZN4llvm12SelectionDAG22FoldConstantArithmeticEjRKNS_5SDLocENS_3EVTENS_8ArrayRefINS_7SDValueEEE
libLLVM.so.11:_ZN4llvm12SelectionDAG22UnrollVectorOverflowOpEPNS_6SDNodeEj
libLLVM.so.11:_ZN4llvm12SelectionDAG22getShiftAmountConstantEyNS_3EVTERKNS_5SDLocEb
libLLVM.so.11:_ZN4llvm12SelectionDAG22getTargetExtractSubregEiRKNS_5SDLocENS_3EVTENS_7SDValueE
libLLVM.so.11:_ZN4llvm12SelectionDAG22setSubgraphColorHelperEPNS_6SDNodeEPKcRNS_8DenseSetIS2_NS_12DenseMapInfoIS2_EEEEiRb
libLLVM.so.11:_ZN4llvm12SelectionDAG23getTargetExternalSymbolEPKcNS_3EVTEj
libLLVM.so.11:_ZN4llvm12SelectionDAG24AddModifiedNodeToCSEMapsEPNS_6SDNodeE
libLLVM.so.11:_ZN4llvm12SelectionDAG24UpdateSDLocOnMergeSDNodeEPNS_6SDNodeERKNS_5SDLocE
libLLVM.so.11:_ZN4llvm12SelectionDAG24getCommutedVectorShuffleERKNS_19ShuffleVectorSDNodeE
libLLVM.so.11:_ZN4llvm12SelectionDAG24getStrictFPExtendOrRoundENS_7SDValueES1_RKNS_5SDLocENS_3EVTE
libLLVM.so.11:_ZN4llvm12SelectionDAG25ReplaceAllUsesOfValueWithENS_7SDValueES1_
libLLVM.so.11:_ZN4llvm12SelectionDAG26ReplaceAllUsesOfValuesWithEPKNS_7SDValueES3_j
libLLVM.so.11:_ZN4llvm12SelectionDAG27getStackArgumentTokenFactorENS_7SDValueE
libLLVM.so.11:_ZN4llvm12SelectionDAG28FoldConstantVectorArithmeticEjRKNS_5SDLocENS_3EVTENS_8ArrayRefINS_7SDValueEEENS_11SDNodeFlagsE
libLLVM.so.11:_ZN4llvm12SelectionDAG28makeEquivalentMemoryOrderingEPNS_10LoadSDNodeENS_7SDValueE
libLLVM.so.11:_ZN4llvm12SelectionDAG30getSymbolFunctionGlobalAddressENS_7SDValueEPPNS_8FunctionE
libLLVM.so.11:_ZN4llvm12SelectionDAG35isConstantFPBuildVectorOrConstantFPENS_7SDValueE
libLLVM.so.11:_ZN4llvm12SelectionDAG37isConstantIntBuildVectorOrConstantIntENS_7SDValueE
libLLVM.so.11:_ZN4llvm12SelectionDAG4initERNS_15MachineFunctionERNS_25OptimizationRemarkEmitterEPNS_4PassEPKNS_17TargetLibraryInfoEPNS_24LegacyDivergenceAnalysisEPNS_18ProfileSummaryInfoEPNS_18BlockFrequencyInfoE
libLLVM.so.11:_ZN4llvm12SelectionDAG5clearEv
libLLVM.so.11:_ZN4llvm12SelectionDAG6getNOTERKNS_5SDLocENS_7SDValueENS_3EVTE
libLLVM.so.11:_ZN4llvm12SelectionDAG7CombineENS_12CombineLevelEPNS_9AAResultsENS_10CodeGenOpt5LevelE
libLLVM.so.11:_ZN4llvm12SelectionDAG7getLoadENS_3EVTERKNS_5SDLocENS_7SDValueES5_NS_18MachinePointerInfoENS_10MaybeAlignENS_17MachineMemOperand5FlagsERKNS_9AAMDNodesEPKNS_6MDNodeE
libLLVM.so.11:_ZN4llvm12SelectionDAG7getLoadENS_3EVTERKNS_5SDLocENS_7SDValueES5_PNS_17MachineMemOperandE
libLLVM.so.11:_ZN4llvm12SelectionDAG7getLoadENS_3ISD14MemIndexedModeENS1_11LoadExtTypeENS_3EVTERKNS_5SDLocENS_7SDValueES8_S8_NS_18MachinePointerInfoES4_NS_5AlignENS_17MachineMemOperand5FlagsERKNS_9AAMDNodesEPKNS_6MDNodeE
libLLVM.so.11:_ZN4llvm12SelectionDAG7getLoadENS_3ISD14MemIndexedModeENS1_11LoadExtTypeENS_3EVTERKNS_5SDLocENS_7SDValueES8_S8_S4_PNS_17MachineMemOperandE
libLLVM.so.11:_ZN4llvm12SelectionDAG7getNodeEjRKNS_5SDLocENS_3EVTE
libLLVM.so.11:_ZN4llvm12SelectionDAG7getNodeEjRKNS_5SDLocENS_3EVTENS_7SDValueENS_11SDNodeFlagsE
libLLVM.so.11:_ZN4llvm12SelectionDAG7getNodeEjRKNS_5SDLocENS_3EVTENS_7SDValueES5_NS_11SDNodeFlagsE
libLLVM.so.11:_ZN4llvm12SelectionDAG7getNodeEjRKNS_5SDLocENS_3EVTENS_7SDValueES5_S5_NS_11SDNodeFlagsE
libLLVM.so.11:_ZN4llvm12SelectionDAG7getNodeEjRKNS_5SDLocENS_3EVTENS_7SDValueES5_S5_S5_
libLLVM.so.11:_ZN4llvm12SelectionDAG7getNodeEjRKNS_5SDLocENS_3EVTENS_7SDValueES5_S5_S5_S5_
libLLVM.so.11:_ZN4llvm12SelectionDAG7getNodeEjRKNS_5SDLocENS_3EVTENS_8ArrayRefINS_5SDUseEEE
libLLVM.so.11:_ZN4llvm12SelectionDAG7getNodeEjRKNS_5SDLocENS_3EVTENS_8ArrayRefINS_7SDValueEEENS_11SDNodeFlagsE
libLLVM.so.11:_ZN4llvm12SelectionDAG7getNodeEjRKNS_5SDLocENS_8ArrayRefINS_3EVTEEENS4_INS_7SDValueEEE
libLLVM.so.11:_ZN4llvm12SelectionDAG7getNodeEjRKNS_5SDLocENS_8SDVTListE
libLLVM.so.11:_ZN4llvm12SelectionDAG7getNodeEjRKNS_5SDLocENS_8SDVTListENS_7SDValueE
libLLVM.so.11:_ZN4llvm12SelectionDAG7getNodeEjRKNS_5SDLocENS_8SDVTListENS_7SDValueES5_
libLLVM.so.11:_ZN4llvm12SelectionDAG7getNodeEjRKNS_5SDLocENS_8SDVTListENS_7SDValueES5_S5_
libLLVM.so.11:_ZN4llvm12SelectionDAG7getNodeEjRKNS_5SDLocENS_8SDVTListENS_7SDValueES5_S5_S5_
libLLVM.so.11:_ZN4llvm12SelectionDAG7getNodeEjRKNS_5SDLocENS_8SDVTListENS_7SDValueES5_S5_S5_S5_
libLLVM.so.11:_ZN4llvm12SelectionDAG7getNodeEjRKNS_5SDLocENS_8SDVTListENS_8ArrayRefINS_7SDValueEEENS_11SDNodeFlagsE
libLLVM.so.11:_ZN4llvm12SelectionDAG7isUndefEjNS_8ArrayRefINS_7SDValueEEE
libLLVM.so.11:_ZN4llvm12SelectionDAG8LegalizeEv
libLLVM.so.11:_ZN4llvm12SelectionDAG8getStoreENS_7SDValueERKNS_5SDLocES1_S1_NS_18MachinePointerInfoENS_5AlignENS_17MachineMemOperand5FlagsERKNS_9AAMDNodesE
libLLVM.so.11:_ZN4llvm12SelectionDAG8getStoreENS_7SDValueERKNS_5SDLocES1_S1_PNS_17MachineMemOperandE
libLLVM.so.11:_ZN4llvm12SelectionDAG8getVAArgENS_3EVTERKNS_5SDLocENS_7SDValueES5_S5_j
libLLVM.so.11:_ZN4llvm12SelectionDAG9FoldSetCCENS_3EVTENS_7SDValueES2_NS_3ISD8CondCodeERKNS_5SDLocE
libLLVM.so.11:_ZN4llvm12SelectionDAG9getAtomicEjRKNS_5SDLocENS_3EVTENS_7SDValueES5_S5_PNS_17MachineMemOperandE
libLLVM.so.11:_ZN4llvm12SelectionDAG9getAtomicEjRKNS_5SDLocENS_3EVTENS_8SDVTListENS_8ArrayRefINS_7SDValueEEEPNS_17MachineMemOperandE
libLLVM.so.11:_ZN4llvm12SelectionDAG9getAtomicEjRKNS_5SDLocENS_3EVTES4_NS_7SDValueES5_PNS_17MachineMemOperandE
libLLVM.so.11:_ZN4llvm12SelectionDAG9getFreezeENS_7SDValueE
libLLVM.so.11:_ZN4llvm12SelectionDAG9getMDNodeEPKNS_6MDNodeE
libLLVM.so.11:_ZN4llvm12SelectionDAG9getMemcpyENS_7SDValueERKNS_5SDLocES1_S1_S1_NS_5AlignEbbbNS_18MachinePointerInfoES6_
libLLVM.so.11:_ZN4llvm12SelectionDAG9getMemsetENS_7SDValueERKNS_5SDLocES1_S1_S1_NS_5AlignEbbNS_18MachinePointerInfoE
libLLVM.so.11:_ZN4llvm12SelectionDAG9getVTListENS_3EVTE
libLLVM.so.11:_ZN4llvm12SelectionDAG9getVTListENS_3EVTES1_
libLLVM.so.11:_ZN4llvm12SelectionDAG9getVTListENS_3EVTES1_S1_
libLLVM.so.11:_ZN4llvm12SelectionDAG9getVTListENS_3EVTES1_S1_S1_
libLLVM.so.11:_ZN4llvm12SelectionDAG9getVTListENS_8ArrayRefINS_3EVTEEE
libLLVM.so.11:_ZN4llvm12SelectionDAG9viewGraphERKNSt7__cxx1112basic_stringIcSt11char_traitsIcESaIcEEE
libLLVM.so.11:_ZN4llvm12SelectionDAG9viewGraphEv
libLLVM.so.11:_ZN4llvm12SelectionDAGC1ERKNS_13TargetMachineENS_10CodeGenOpt5LevelE
libLLVM.so.11:_ZN4llvm12SelectionDAGC2ERKNS_13TargetMachineENS_10CodeGenOpt5LevelE
libLLVM.so.11:_ZN4llvm12SelectionDAGD1Ev
libLLVM.so.11:_ZN4llvm12SelectionDAGD2Ev
libLLVM.so.11:_ZN4llvm12SimplifyCallEPNS_8CallBaseERKNS_13SimplifyQueryE
libLLVM.so.11:_ZN4llvm12SimplifyUnOpEjPNS_5ValueENS_13FastMathFlagsERKNS_13SimplifyQueryE
libLLVM.so.11:_ZN4llvm12SimplifyUnOpEjPNS_5ValueERKNS_13SimplifyQueryE
libLLVM.so.11:_ZN4llvm12StructLayoutC1EPNS_10StructTypeERKNS_10DataLayoutE
libLLVM.so.11:_ZN4llvm12StructLayoutC2EPNS_10StructTypeERKNS_10DataLayoutE
libLLVM.so.11:_ZN4llvm12TBAAVerifier17visitTBAAMetadataERNS_11InstructionEPKNS_6MDNodeE
libLLVM.so.11:_ZN4llvm12TBAAVerifier18verifyTBAABaseNodeERNS_11InstructionEPKNS_6MDNodeEb
libLLVM.so.11:_ZN4llvm12TBAAVerifier21isValidScalarTBAANodeEPKNS_6MDNodeE
libLLVM.so.11:_ZN4llvm12TBAAVerifier22verifyTBAABaseNodeImplERNS_11InstructionEPKNS_6MDNodeEb
libLLVM.so.11:_ZN4llvm12TBAAVerifier28getFieldNodeFromTBAABaseNodeERNS_11InstructionEPKNS_6MDNodeERNS_5APIntEb
libLLVM.so.11:_ZN4llvm12TargetFolder6anchorEv
libLLVM.so.11:_ZN4llvm12TrigramIndex6insertENSt7__cxx1112basic_stringIcSt11char_traitsIcESaIcEEE
libLLVM.so.11:_ZN4llvm12VPBasicBlock21createEmptyBasicBlockERNS_16VPTransformState8CFGStateE
libLLVM.so.11:_ZN4llvm12VPBasicBlock7executeEPNS_16VPTransformStateE
libLLVM.so.11:_ZN4llvm12VPRecipeBase11insertAfterEPS0_
libLLVM.so.11:_ZN4llvm12VPRecipeBase12insertBeforeEPS0_
libLLVM.so.11:_ZN4llvm12VPRecipeBase15eraseFromParentEv
libLLVM.so.11:_ZN4llvm12VPRecipeBase16removeFromParentEv
libLLVM.so.11:_ZN4llvm12VPRecipeBase9moveAfterEPS0_
libLLVM.so.11:_ZN4llvm12VPlanPrinter10dumpRegionEPKNS_13VPRegionBlockE
libLLVM.so.11:_ZN4llvm12VPlanPrinter14dumpBasicBlockEPKNS_12VPBasicBlockE
libLLVM.so.11:_ZN4llvm12VPlanPrinter15getOrCreateNameEPKNS_11VPBlockBaseE
libLLVM.so.11:_ZN4llvm12VPlanPrinter17printAsIngredientERNS_11raw_ostreamEPNS_5ValueE
libLLVM.so.11:_ZN4llvm12VPlanPrinter4dumpEv
libLLVM.so.11:_ZN4llvm12VPlanPrinter6getUIDEPKNS_11VPBlockBaseE
libLLVM.so.11:_ZN4llvm12VPlanPrinter8drawEdgeEPKNS_11VPBlockBaseES3_bRKNS_5TwineE
libLLVM.so.11:_ZN4llvm12VPlanPrinter9dumpBlockEPKNS_11VPBlockBaseE
libLLVM.so.11:_ZN4llvm12VPlanPrinter9dumpEdgesEPKNS_11VPBlockBaseE
libLLVM.so.11:_ZN4llvm12VerifierPass3runERNS_6ModuleERNS_15AnalysisManagerIS1_JEEE
libLLVM.so.11:_ZN4llvm12VerifierPass3runERNS_8FunctionERNS_15AnalysisManagerIS1_JEEE
libLLVM.so.11:_ZN4llvm12VersionTuple8tryParseENS_9StringRefE
libLLVM.so.11:_ZN4llvm12appendToUsedERNS_6ModuleENS_8ArrayRefIPNS_11GlobalValueEEE
libLLVM.so.11:_ZN4llvm12changeToCallEPNS_10InvokeInstEPNS_14DomTreeUpdaterE
libLLVM.so.11:_ZN4llvm12emitSNPrintfEPNS_5ValueES1_S1_NS_8ArrayRefIS1_EERNS_13IRBuilderBaseEPKNS_17TargetLibraryInfoE
libLLVM.so.11:_ZN4llvm12emitVSPrintfEPNS_5ValueES1_S1_RNS_13IRBuilderBaseEPKNS_17TargetLibraryInfoE
libLLVM.so.11:_ZN4llvm12findDbgUsersERNS_15SmallVectorImplIPNS_20DbgVariableIntrinsicEEEPNS_5ValueE
libLLVM.so.11:_ZN4llvm12getHeatColorB5cxx11Ed
libLLVM.so.11:_ZN4llvm12getHeatColorB5cxx11Eyy
libLLVM.so.11:_ZN4llvm12getLLTForMVTENS_3MVTE
libLLVM.so.11:_ZN4llvm12getMVTForLLTENS_3LLTE
libLLVM.so.11:_ZN4llvm12getOpcodeDefEjNS_8RegisterERKNS_19MachineRegisterInfoE
libLLVM.so.11:_ZN4llvm12getPassTimerEPNS_4PassE
libLLVM.so.11:_ZN4llvm12getPtrStrideERNS_25PredicatedScalarEvolutionEPNS_5ValueEPKNS_4LoopERKNS_8DenseMapIPKS2_S3_NS_12DenseMapInfoIS9_EENS_6detail12DenseMapPairIS9_S3_EEEEbb
libLLVM.so.11:_ZN4llvm12get_threadidEv
libLLVM.so.11:_ZN4llvm12ilist_traitsINS_12MachineInstrEE10deleteNodeEPS1_
libLLVM.so.11:_ZN4llvm12ilist_traitsINS_12MachineInstrEE13addNodeToListEPS1_
libLLVM.so.11:_ZN4llvm12ilist_traitsINS_12MachineInstrEE18removeNodeFromListEPS1_
libLLVM.so.11:_ZN4llvm12ilist_traitsINS_12MachineInstrEE21transferNodesFromListERS2_NS_14ilist_iteratorINS_12ilist_detail12node_optionsIS1_Lb1ELb1EvEELb0ELb0EEES8_
libLLVM.so.11:_ZN4llvm12isBitwiseNotENS_7SDValueEb
libLLVM.so.11:_ZN4llvm12isSplatValueEPKNS_5ValueEij
libLLVM.so.11:_ZN4llvm12lintFunctionERKNS_8FunctionE
libLLVM.so.11:_ZN4llvm12machineToStrENS_4COFF12MachineTypesE
libLLVM.so.11:_ZN4llvm12printRegUnitEjPKNS_18TargetRegisterInfoE
libLLVM.so.11:_ZN4llvm12shouldInlineERNS_8CallBaseENS_12function_refIFNS_10InlineCostES1_EEERNS_25OptimizationRemarkEmitterEb
libLLVM.so.11:_ZN4llvm12simplifyLoopEPNS_4LoopEPNS_13DominatorTreeEPNS_8LoopInfoEPNS_15ScalarEvolutionEPNS_15AssumptionCacheEPNS_16MemorySSAUpdaterEb
libLLVM.so.11:_ZN4llvm12splitCodeGenESt10unique_ptrINS_6ModuleESt14default_deleteIS1_EENS_8ArrayRefIPNS_17raw_pwrite_streamEEES8_RKSt8functionIFS0_INS_13TargetMachineES2_ISA_EEvEENS_15CodeGenFileTypeEb
libLLVM.so.11:_ZN4llvm12to_hexStringB5cxx11Eyb
libLLVM.so.11:_ZN4llvm12verifyModuleERKNS_6ModuleEPNS_11raw_ostreamEPb
libLLVM.so.11:_ZN4llvm12writeArchiveENS_9StringRefENS_8ArrayRefINS_16NewArchiveMemberEEEbNS_6object7Archive4KindEbbSt10unique_ptrINS_12MemoryBufferESt14default_deleteIS8_EE
libLLVM.so.11:_ZN4llvm12write_doubleERNS_11raw_ostreamEdNS_10FloatStyleENS_8OptionalIjEE
libLLVM.so.11:_ZN4llvm13AAHeapToStack17createForPositionERKNS_10IRPositionERNS_10AttributorE
libLLVM.so.11:_ZN4llvm13AnalysisUsage12addPreservedENS_9StringRefE
libLLVM.so.11:_ZN4llvm13AnalysisUsage13addRequiredIDEPKv
libLLVM.so.11:_ZN4llvm13AnalysisUsage13addRequiredIDERc
libLLVM.so.11:_ZN4llvm13AnalysisUsage15setPreservesCFGEv
libLLVM.so.11:_ZN4llvm13AnalysisUsage23addRequiredTransitiveIDERc
libLLVM.so.11:_ZN4llvm13AtomicRMWInst16getOperationNameENS0_5BinOpE
libLLVM.so.11:_ZN4llvm13AtomicRMWInst4InitENS0_5BinOpEPNS_5ValueES3_NS_5AlignENS_14AtomicOrderingEh
libLLVM.so.11:_ZN4llvm13AtomicRMWInstC1ENS0_5BinOpEPNS_5ValueES3_NS_5AlignENS_14AtomicOrderingEhPNS_10BasicBlockE
libLLVM.so.11:_ZN4llvm13AtomicRMWInstC1ENS0_5BinOpEPNS_5ValueES3_NS_5AlignENS_14AtomicOrderingEhPNS_11InstructionE
libLLVM.so.11:_ZN4llvm13AtomicRMWInstC2ENS0_5BinOpEPNS_5ValueES3_NS_5AlignENS_14AtomicOrderingEhPNS_10BasicBlockE
libLLVM.so.11:_ZN4llvm13AtomicRMWInstC2ENS0_5BinOpEPNS_5ValueES3_NS_5AlignENS_14AtomicOrderingEhPNS_11InstructionE
libLLVM.so.11:_ZN4llvm13AttributeList16addAllocSizeAttrERNS_11LLVMContextEjjRKNS_8OptionalIjEE
libLLVM.so.11:_ZN4llvm13AttributeList3getERNS_11LLVMContextENS_12AttributeSetES3_NS_8ArrayRefIS3_EE
libLLVM.so.11:_ZN4llvm13AttributeList3getERNS_11LLVMContextENS_8ArrayRefIS0_EE
libLLVM.so.11:_ZN4llvm13AttributeList3getERNS_11LLVMContextENS_8ArrayRefISt4pairIjNS_12AttributeSetEEEE
libLLVM.so.11:_ZN4llvm13AttributeList3getERNS_11LLVMContextENS_8ArrayRefISt4pairIjNS_9AttributeEEEE
libLLVM.so.11:_ZN4llvm13AttributeList3getERNS_11LLVMContextEjNS_8ArrayRefINS_9Attribute8AttrKindEEE
libLLVM.so.11:_ZN4llvm13AttributeList3getERNS_11LLVMContextEjNS_8ArrayRefINS_9Attribute8AttrKindEEENS3_IyEE
libLLVM.so.11:_ZN4llvm13AttributeList3getERNS_11LLVMContextEjNS_8ArrayRefINS_9StringRefEEE
libLLVM.so.11:_ZN4llvm13AttributeList3getERNS_11LLVMContextEjRKNS_11AttrBuilderE
libLLVM.so.11:_ZN4llvm13AttributeList7getImplERNS_11LLVMContextENS_8ArrayRefINS_12AttributeSetEEE
libLLVM.so.11:_ZN4llvm13BasicAAResult10aliasCheckEPKNS_5ValueENS_12LocationSizeENS_9AAMDNodesES3_S4_S5_RNS_11AAQueryInfoES3_S3_
libLLVM.so.11:_ZN4llvm13BasicAAResult10invalidateERNS_8FunctionERKNS_17PreservedAnalysesERNS_15AnalysisManagerIS1_JEE11InvalidatorE
libLLVM.so.11:_ZN4llvm13BasicAAResult11aliasSelectEPKNS_10SelectInstENS_12LocationSizeERKNS_9AAMDNodesEPKNS_5ValueES4_S7_SA_RNS_11AAQueryInfoE
libLLVM.so.11:_ZN4llvm13BasicAAResult13getModRefInfoEPKNS_8CallBaseERKNS_14MemoryLocationERNS_11AAQueryInfoE
libLLVM.so.11:_ZN4llvm13BasicAAResult13getModRefInfoEPKNS_8CallBaseES3_RNS_11AAQueryInfoE
libLLVM.so.11:_ZN4llvm13BasicAAResult16getArgModRefInfoEPKNS_8CallBaseEj
libLLVM.so.11:_ZN4llvm13BasicAAResult17getModRefBehaviorEPKNS_8CallBaseE
libLLVM.so.11:_ZN4llvm13BasicAAResult17getModRefBehaviorEPKNS_8FunctionE
libLLVM.so.11:_ZN4llvm13BasicAAResult18GetIndexDifferenceERNS_15SmallVectorImplINS0_16VariableGEPIndexEEERKS3_
libLLVM.so.11:_ZN4llvm13BasicAAResult19GetLinearExpressionEPKNS_5ValueERNS_5APIntES5_RjS6_RKNS_10DataLayoutEjPNS_15AssumptionCacheEPNS_13DominatorTreeERbSE_
libLLVM.so.11:_ZN4llvm13BasicAAResult22DecomposeGEPExpressionEPKNS_5ValueERNS0_13DecomposedGEPERKNS_10DataLayoutEPNS_15AssumptionCacheEPNS_13DominatorTreeE
libLLVM.so.11:_ZN4llvm13BasicAAResult22pointsToConstantMemoryERKNS_14MemoryLocationERNS_11AAQueryInfoEb
libLLVM.so.11:_ZN4llvm13BasicAAResult23constantOffsetHeuristicERKNS_15SmallVectorImplINS0_16VariableGEPIndexEEENS_12LocationSizeES6_RKNS_5APIntEPNS_15AssumptionCacheEPNS_13DominatorTreeE
libLLVM.so.11:_ZN4llvm13BasicAAResult25isGEPBaseAtNegativeOffsetEPKNS_11GEPOperatorERKNS0_13DecomposedGEPES6_NS_12LocationSizeE
libLLVM.so.11:_ZN4llvm13BasicAAResult29isValueEqualInPotentialCyclesEPKNS_5ValueES3_
libLLVM.so.11:_ZN4llvm13BasicAAResult5aliasERKNS_14MemoryLocationES3_RNS_11AAQueryInfoE
libLLVM.so.11:_ZN4llvm13BasicAAResult8aliasGEPEPKNS_11GEPOperatorENS_12LocationSizeERKNS_9AAMDNodesEPKNS_5ValueES4_S7_SA_SA_RNS_11AAQueryInfoE
libLLVM.so.11:_ZN4llvm13BasicAAResult8aliasPHIEPKNS_7PHINodeENS_12LocationSizeERKNS_9AAMDNodesEPKNS_5ValueES4_S7_SA_RNS_11AAQueryInfoE
libLLVM.so.11:_ZN4llvm13BitcodeModule10getLTOInfoEv
libLLVM.so.11:_ZN4llvm13BitcodeModule10getSummaryEv
libLLVM.so.11:_ZN4llvm13BitcodeModule11parseModuleERNS_11LLVMContextENS_12function_refIFNS_8OptionalINSt7__cxx1112basic_stringIcSt11char_traitsIcESaIcEEEEENS_9StringRefEEEE
libLLVM.so.11:_ZN4llvm13BitcodeModule11readSummaryERNS_18ModuleSummaryIndexENS_9StringRefEy
libLLVM.so.11:_ZN4llvm13BitcodeModule13getLazyModuleERNS_11LLVMContextEbb
libLLVM.so.11:_ZN4llvm13BitcodeModule13getModuleImplERNS_11LLVMContextEbbbNS_12function_refIFNS_8OptionalINSt7__cxx1112basic_stringIcSt11char_traitsIcESaIcEEEEENS_9StringRefEEEE
libLLVM.so.11:_ZN4llvm13BitcodeWriter10copyStrtabENS_9StringRefE
libLLVM.so.11:_ZN4llvm13BitcodeWriter10writeIndexEPKNS_18ModuleSummaryIndexEPKSt3mapINSt7__cxx1112basic_stringIcSt11char_traitsIcESaIcEEENS_8DenseMapIyPNS_18GlobalValueSummaryENS_12DenseMapInfoIyEENS_6detail12DenseMapPairIySD_EEEESt4lessISA_ESaISt4pairIKSA_SJ_EEE
libLLVM.so.11:_ZN4llvm13BitcodeWriter11writeModuleERKNS_6ModuleEbPKNS_18ModuleSummaryIndexEbPSt5arrayIjLj5EE
libLLVM.so.11:_ZN4llvm13BitcodeWriter11writeStrtabEv
libLLVM.so.11:_ZN4llvm13BitcodeWriter11writeSymtabEv
libLLVM.so.11:_ZN4llvm13BitcodeWriter20writeThinLinkBitcodeERKNS_6ModuleERKNS_18ModuleSummaryIndexERKSt5arrayIjLj5EE
libLLVM.so.11:_ZN4llvm13BitcodeWriter9writeBlobEjjNS_9StringRefE
libLLVM.so.11:_ZN4llvm13BitcodeWriterC1ERNS_15SmallVectorImplIcEE
libLLVM.so.11:_ZN4llvm13BitcodeWriterC2ERNS_15SmallVectorImplIcEE
libLLVM.so.11:_ZN4llvm13BitcodeWriterD1Ev
libLLVM.so.11:_ZN4llvm13BitcodeWriterD2Ev
libLLVM.so.11:_ZN4llvm13CFGViewerPass3runERNS_8FunctionERNS_15AnalysisManagerIS1_JEEE
libLLVM.so.11:_ZN4llvm13CGProfilePass3runERNS_6ModuleERNS_15AnalysisManagerIS1_JEEE
libLLVM.so.11:_ZN4llvm13CSEConfigFull12shouldCSEOpcEj
libLLVM.so.11:_ZN4llvm13CSEMIRBuilder10buildInstrEjNS_8ArrayRefINS_5DstOpEEENS1_INS_5SrcOpEEENS_8OptionalIjEE
libLLVM.so.11:_ZN4llvm13CSEMIRBuilder13buildConstantERKNS_5DstOpERKNS_11ConstantIntE
libLLVM.so.11:_ZN4llvm13CSEMIRBuilder14buildFConstantERKNS_5DstOpERKNS_10ConstantFPE
libLLVM.so.11:_ZN4llvm13CSEMIRBuilder23checkCopyToDefsPossibleENS_8ArrayRefINS_5DstOpEEE
libLLVM.so.11:_ZN4llvm13CSEMIRBuilder23getDominatingInstrForIDERNS_16FoldingSetNodeIDERPv
libLLVM.so.11:_ZN4llvm13CSEMIRBuilder24generateCopiesIfRequiredENS_8ArrayRefINS_5DstOpEEERNS_19MachineInstrBuilderE
libLLVM.so.11:_ZN4llvm13CSEMIRBuilder9memoizeMIENS_19MachineInstrBuilderEPv
libLLVM.so.11:_ZN4llvm13CallGraphNode15replaceCallEdgeERNS_8CallBaseES2_PS0_
libLLVM.so.11:_ZN4llvm13CallGraphNode17removeCallEdgeForERNS_8CallBaseE
libLLVM.so.11:_ZN4llvm13CallGraphNode19removeAnyCallEdgeToEPS0_
libLLVM.so.11:_ZN4llvm13CallGraphNode23removeOneAbstractEdgeToEPS0_
libLLVM.so.11:_ZN4llvm13CloneFunctionEPNS_8FunctionERNS_8ValueMapIPKNS_5ValueENS_14WeakTrackingVHENS_14ValueMapConfigIS5_NS_3sys10SmartMutexILb0EEEEEEEPNS_14ClonedCodeInfoE
libLLVM.so.11:_ZN4llvm13CoalescerPair12setRegistersEPKNS_12MachineInstrE
libLLVM.so.11:_ZN4llvm13CoalescerPair4flipEv
libLLVM.so.11:_ZN4llvm13CodeExtractor17constructFunctionERKNS_9SetVectorIPNS_5ValueESt6vectorIS3_SaIS3_EENS_8DenseSetIS3_NS_12DenseMapInfoIS3_EEEEEESD_PNS_10BasicBlockESF_SF_PNS_8FunctionEPNS_6ModuleE
libLLVM.so.11:_ZN4llvm13CodeExtractor17extractCodeRegionERKNS_26CodeExtractorAnalysisCacheE
libLLVM.so.11:_ZN4llvm13CodeExtractor17splitReturnBlocksEv
libLLVM.so.11:_ZN4llvm13CodeExtractor18moveCodeToFunctionEPNS_8FunctionE
libLLVM.so.11:_ZN4llvm13CodeExtractor21verifyAssumptionCacheERKNS_8FunctionES3_PNS_15AssumptionCacheE
libLLVM.so.11:_ZN4llvm13CodeExtractor25severSplitPHINodesOfEntryERPNS_10BasicBlockE
libLLVM.so.11:_ZN4llvm13CodeExtractor25severSplitPHINodesOfExitsERKNS_15SmallPtrSetImplIPNS_10BasicBlockEEE
libLLVM.so.11:_ZN4llvm13CodeExtractor26emitCallAndSwitchStatementEPNS_8FunctionEPNS_10BasicBlockERNS_9SetVectorIPNS_5ValueESt6vectorIS7_SaIS7_EENS_8DenseSetIS7_NS_12DenseMapInfoIS7_EEEEEESG_
libLLVM.so.11:_ZN4llvm13CodeExtractor28findOrCreateBlockForHoistingEPNS_10BasicBlockE
libLLVM.so.11:_ZN4llvm13CodeExtractor33calculateNewCallTerminatorWeightsEPNS_10BasicBlockERNS_8DenseMapIS2_NS_14BlockFrequencyENS_12DenseMapInfoIS2_EENS_6detail12DenseMapPairIS2_S4_EEEEPNS_21BranchProbabilityInfoE
libLLVM.so.11:_ZN4llvm13CodeExtractorC1ENS_8ArrayRefIPNS_10BasicBlockEEEPNS_13DominatorTreeEbPNS_18BlockFrequencyInfoEPNS_21BranchProbabilityInfoEPNS_15AssumptionCacheEbbNSt7__cxx1112basic_stringIcSt11char_traitsIcESaIcEEE
libLLVM.so.11:_ZN4llvm13CodeExtractorC1ERNS_13DominatorTreeERNS_4LoopEbPNS_18BlockFrequencyInfoEPNS_21BranchProbabilityInfoEPNS_15AssumptionCacheENSt7__cxx1112basic_stringIcSt11char_traitsIcESaIcEEE
libLLVM.so.11:_ZN4llvm13CodeExtractorC2ENS_8ArrayRefIPNS_10BasicBlockEEEPNS_13DominatorTreeEbPNS_18BlockFrequencyInfoEPNS_21BranchProbabilityInfoEPNS_15AssumptionCacheEbbNSt7__cxx1112basic_stringIcSt11char_traitsIcESaIcEEE
libLLVM.so.11:_ZN4llvm13CodeExtractorC2ERNS_13DominatorTreeERNS_4LoopEbPNS_18BlockFrequencyInfoEPNS_21BranchProbabilityInfoEPNS_15AssumptionCacheENSt7__cxx1112basic_stringIcSt11char_traitsIcESaIcEEE
libLLVM.so.11:_ZN4llvm13ConstantArray19destroyConstantImplEv
libLLVM.so.11:_ZN4llvm13ConstantArray23handleOperandChangeImplEPNS_5ValueES2_
libLLVM.so.11:_ZN4llvm13ConstantArray3getEPNS_9ArrayTypeENS_8ArrayRefIPNS_8ConstantEEE
libLLVM.so.11:_ZN4llvm13ConstantArray7getImplEPNS_9ArrayTypeENS_8ArrayRefIPNS_8ConstantEEE
libLLVM.so.11:_ZN4llvm13ConstantArrayC1EPNS_9ArrayTypeENS_8ArrayRefIPNS_8ConstantEEE
libLLVM.so.11:_ZN4llvm13ConstantArrayC2EPNS_9ArrayTypeENS_8ArrayRefIPNS_8ConstantEEE
libLLVM.so.11:_ZN4llvm13ConstantRange13fromKnownBitsERKNS_9KnownBitsEb
libLLVM.so.11:_ZN4llvm13ConstantRange19makeExactICmpRegionENS_7CmpInst9PredicateERKNS_5APIntE
libLLVM.so.11:_ZN4llvm13ConstantRange21makeAllowedICmpRegionENS_7CmpInst9PredicateERKS0_
libLLVM.so.11:_ZN4llvm13ConstantRange21makeExactNoWrapRegionENS_11Instruction9BinaryOpsERKNS_5APIntEj
libLLVM.so.11:_ZN4llvm13ConstantRange24makeSatisfyingICmpRegionENS_7CmpInst9PredicateERKS0_
libLLVM.so.11:_ZN4llvm13ConstantRange26makeGuaranteedNoWrapRegionENS_11Instruction9BinaryOpsERKS0_j
libLLVM.so.11:_ZN4llvm13ConstantRangeC1ENS_5APIntE
libLLVM.so.11:_ZN4llvm13ConstantRangeC1ENS_5APIntES1_
libLLVM.so.11:_ZN4llvm13ConstantRangeC1Ejb
libLLVM.so.11:_ZN4llvm13ConstantRangeC2ENS_5APIntE
libLLVM.so.11:_ZN4llvm13ConstantRangeC2ENS_5APIntES1_
libLLVM.so.11:_ZN4llvm13ConstantRangeC2Ejb
libLLVM.so.11:_ZN4llvm13CoroEarlyPass3runERNS_8FunctionERNS_15AnalysisManagerIS1_JEEE
libLLVM.so.11:_ZN4llvm13CoroElidePass3runERNS_8FunctionERNS_15AnalysisManagerIS1_JEEE
libLLVM.so.11:_ZN4llvm13CoroSplitPass3runERNS_13LazyCallGraph3SCCERNS_15AnalysisManagerIS2_JRS1_EEES5_RNS_17CGSCCUpdateResultE
libLLVM.so.11:_ZN4llvm13DFAPacketizer16getUsedResourcesEj
libLLVM.so.11:_ZN4llvm13DFAPacketizer16reserveResourcesEPKNS_11MCInstrDescE
libLLVM.so.11:_ZN4llvm13DFAPacketizer16reserveResourcesERNS_12MachineInstrE
libLLVM.so.11:_ZN4llvm13DFAPacketizer19canReserveResourcesEPKNS_11MCInstrDescE
libLLVM.so.11:_ZN4llvm13DFAPacketizer19canReserveResourcesERNS_12MachineInstrE
libLLVM.so.11:_ZN4llvm13DICommonBlock7getImplERNS_11LLVMContextEPNS_8MetadataES4_PNS_8MDStringES4_jNS3_11StorageTypeEb
libLLVM.so.11:_ZN4llvm13DICompileUnit15getEmissionKindENS_9StringRefE
libLLVM.so.11:_ZN4llvm13DICompileUnit16getNameTableKindENS_9StringRefE
libLLVM.so.11:_ZN4llvm13DICompileUnit18emissionKindStringENS0_17DebugEmissionKindE
libLLVM.so.11:_ZN4llvm13DICompileUnit19nameTableKindStringENS0_18DebugNameTableKindE
libLLVM.so.11:_ZN4llvm13DICompileUnit7getImplERNS_11LLVMContextEjPNS_8MetadataEPNS_8MDStringEbS6_jS6_jS4_S4_S4_S4_S4_ybbjbS6_S6_NS3_11StorageTypeEb
libLLVM.so.11:_ZN4llvm13DIDerivedType7getImplERNS_11LLVMContextEjPNS_8MDStringEPNS_8MetadataEjS6_S6_yjyNS_8OptionalIjEENS_6DINode7DIFlagsES6_NS5_11StorageTypeEb
libLLVM.so.11:_ZN4llvm13DWARFGdbIndex4dumpERNS_11raw_ostreamE
libLLVM.so.11:_ZN4llvm13DWARFGdbIndex5parseENS_13DataExtractorE
libLLVM.so.11:_ZN4llvm13DWARFGdbIndex9parseImplENS_13DataExtractorE
libLLVM.so.11:_ZN4llvm13DWARFTypeUnit4dumpERNS_11raw_ostreamENS_13DIDumpOptionsE
libLLVM.so.11:_ZN4llvm13DWARFVerifier12DieRangeInfo6insertERKNS_17DWARFAddressRangeE
libLLVM.so.11:_ZN4llvm13DWARFVerifier12DieRangeInfo6insertERKS1_
libLLVM.so.11:_ZN4llvm13DWARFVerifier15handleDebugInfoEv
libLLVM.so.11:_ZN4llvm13DWARFVerifier15handleDebugLineEv
libLLVM.so.11:_ZN4llvm13DWARFVerifier15verifyDieRangesERKNS_8DWARFDieERNS0_12DieRangeInfoE
libLLVM.so.11:_ZN4llvm13DWARFVerifier16verifyDebugNamesERKNS_12DWARFSectionERKNS_13DataExtractorE
libLLVM.so.11:_ZN4llvm13DWARFVerifier16verifyUnitHeaderENS_18DWARFDataExtractorEPyjRhRb
libLLVM.so.11:_ZN4llvm13DWARFVerifier17handleAccelTablesEv
libLLVM.so.11:_ZN4llvm13DWARFVerifier17handleDebugAbbrevEv
libLLVM.so.11:_ZN4llvm13DWARFVerifier17verifyUnitSectionERKNS_12DWARFSectionENS_16DWARFSectionKindE
libLLVM.so.11:_ZN4llvm13DWARFVerifier18verifyUnitContentsERNS_9DWARFUnitE
libLLVM.so.11:_ZN4llvm13DWARFVerifier19verifyAbbrevSectionEPKNS_16DWARFDebugAbbrevE
libLLVM.so.11:_ZN4llvm13DWARFVerifier19verifyDebugInfoFormERKNS_8DWARFDieERNS_14DWARFAttributeE
libLLVM.so.11:_ZN4llvm13DWARFVerifier19verifyDebugLineRowsEv
libLLVM.so.11:_ZN4llvm13DWARFVerifier21verifyAppleAccelTableEPKNS_12DWARFSectionEPNS_13DataExtractorEPKc
libLLVM.so.11:_ZN4llvm13DWARFVerifier22verifyNameIndexAbbrevsERKNS_15DWARFDebugNames9NameIndexE
libLLVM.so.11:_ZN4llvm13DWARFVerifier22verifyNameIndexBucketsERKNS_15DWARFDebugNames9NameIndexERKNS_13DataExtractorE
libLLVM.so.11:_ZN4llvm13DWARFVerifier22verifyNameIndexEntriesERKNS_15DWARFDebugNames9NameIndexERKNS1_14NameTableEntryE
libLLVM.so.11:_ZN4llvm13DWARFVerifier23verifyDebugInfoCallSiteERKNS_8DWARFDieE
libLLVM.so.11:_ZN4llvm13DWARFVerifier23verifyDebugNamesCUListsERKNS_15DWARFDebugNamesE
libLLVM.so.11:_ZN4llvm13DWARFVerifier24verifyDebugInfoAttributeERKNS_8DWARFDieERNS_14DWARFAttributeE
libLLVM.so.11:_ZN4llvm13DWARFVerifier24verifyNameIndexAttributeERKNS_15DWARFDebugNames9NameIndexERKNS1_6AbbrevENS1_17AttributeEncodingE
libLLVM.so.11:_ZN4llvm13DWARFVerifier25verifyDebugInfoReferencesEv
libLLVM.so.11:_ZN4llvm13DWARFVerifier26verifyDebugLineStmtOffsetsEv
libLLVM.so.11:_ZN4llvm13DWARFVerifier27verifyNameIndexCompletenessERKNS_8DWARFDieERKNS_15DWARFDebugNames9NameIndexE
libLLVM.so.11:_ZN4llvm13DWARFVerifierC1ERNS_11raw_ostreamERNS_12DWARFContextENS_13DIDumpOptionsE
libLLVM.so.11:_ZN4llvm13DWARFVerifierC2ERNS_11raw_ostreamERNS_12DWARFContextENS_13DIDumpOptionsE
libLLVM.so.11:_ZN4llvm13DebugLocEntry8finalizeERKNS_10AsmPrinterERNS_14DebugLocStream11ListBuilderEPKNS_11DIBasicTypeERNS_16DwarfCompileUnitE
libLLVM.so.11:_ZN4llvm13DominatorTree10invalidateERNS_8FunctionERKNS_17PreservedAnalysesERNS_15AnalysisManagerIS1_JEE11InvalidatorE
libLLVM.so.11:_ZN4llvm13DominatorTree9viewGraphERKNS_5TwineES3_
libLLVM.so.11:_ZN4llvm13DominatorTree9viewGraphEv
libLLVM.so.11:_ZN4llvm13DwarfStreamer11emitAbbrevsERKSt6vectorISt10unique_ptrINS_9DIEAbbrevESt14default_deleteIS3_EESaIS6_EEj
libLLVM.so.11:_ZN4llvm13DwarfStreamer11emitStringsERKNS_24NonRelocatableStringpoolE
libLLVM.so.11:_ZN4llvm13DwarfStreamer12emitSwiftASTENS_9StringRefE
libLLVM.so.11:_ZN4llvm13DwarfStreamer13emitAppleObjcERNS_10AccelTableINS_31AppleAccelTableStaticOffsetDataEEE
libLLVM.so.11:_ZN4llvm13DwarfStreamer14emitAppleNamesERNS_10AccelTableINS_31AppleAccelTableStaticOffsetDataEEE
libLLVM.so.11:_ZN4llvm13DwarfStreamer14emitAppleTypesERNS_10AccelTableINS_29AppleAccelTableStaticTypeDataEEE
libLLVM.so.11:_ZN4llvm13DwarfStreamer14emitDebugNamesERNS_10AccelTableINS_26DWARF5AccelTableStaticDataEEE
libLLVM.so.11:_ZN4llvm13DwarfStreamer17emitRangesEntriesExyRKNS_11IntervalMapIyxLj8ENS_23IntervalMapHalfOpenInfoIyEEE14const_iteratorERKSt6vectorINS_19DWARFDebugRangeList14RangeListEntryESaISA_EEj
libLLVM.so.11:_ZN4llvm13DwarfStreamer18translateLineTableENS_13DataExtractorEy
libLLVM.so.11:_ZN4llvm13DwarfStreamer19emitAppleNamespacesERNS_10AccelTableINS_31AppleAccelTableStaticOffsetDataEEE
libLLVM.so.11:_ZN4llvm13DwarfStreamer19emitPubNamesForUnitERKNS_11CompileUnitE
libLLVM.so.11:_ZN4llvm13DwarfStreamer19emitPubTypesForUnitERKNS_11CompileUnitE
libLLVM.so.11:_ZN4llvm13DwarfStreamer19emitSectionContentsENS_9StringRefES1_
libLLVM.so.11:_ZN4llvm13DwarfStreamer20emitLineTableForUnitENS_22MCDwarfLineTableParamsENS_9StringRefEjRSt6vectorINS_14DWARFDebugLine3RowESaIS5_EEj
libLLVM.so.11:_ZN4llvm13DwarfStreamer20emitLocationsForUnitERKNS_11CompileUnitERNS_12DWARFContextESt8functionIFvNS_9StringRefERNS_15SmallVectorImplIhEEEE
libLLVM.so.11:_ZN4llvm13DwarfStreamer21emitCompileUnitHeaderERNS_11CompileUnitE
libLLVM.so.11:_ZN4llvm13DwarfStreamer21emitPubSectionForUnitEPNS_9MCSectionENS_9StringRefERKNS_11CompileUnitERKSt6vectorINS4_9AccelInfoESaIS8_EE
libLLVM.so.11:_ZN4llvm13DwarfStreamer21emitUnitRangesEntriesERNS_11CompileUnitEb
libLLVM.so.11:_ZN4llvm13DwarfStreamer24switchToDebugInfoSectionEj
libLLVM.so.11:_ZN4llvm13DwarfStreamer25emitPaperTrailWarningsDieERNS_3DIEE
libLLVM.so.11:_ZN4llvm13DwarfStreamer4initENS_6TripleE
libLLVM.so.11:_ZN4llvm13DwarfStreamer6finishEv
libLLVM.so.11:_ZN4llvm13DwarfStreamer7emitCIEENS_9StringRefE
libLLVM.so.11:_ZN4llvm13DwarfStreamer7emitDIEERNS_3DIEE
libLLVM.so.11:_ZN4llvm13DwarfStreamer7emitFDEEjjjNS_9StringRefE
libLLVM.so.11:_ZN4llvm13DwarfTypeUnit10emitHeaderEb
libLLVM.so.11:_ZN4llvm13DwarfTypeUnit13addGlobalNameENS_9StringRefERKNS_3DIEEPKNS_7DIScopeE
libLLVM.so.11:_ZN4llvm13DwarfTypeUnit13addGlobalTypeEPKNS_6DITypeERKNS_3DIEEPKNS_7DIScopeE
libLLVM.so.11:_ZN4llvm13DwarfTypeUnit19getOrCreateSourceIDEPKNS_6DIFileE
libLLVM.so.11:_ZN4llvm13DwarfTypeUnit20finishNonUnitTypeDIEERNS_3DIEEPKNS_15DICompositeTypeE
libLLVM.so.11:_ZN4llvm13DwarfTypeUnitC1ERNS_16DwarfCompileUnitEPNS_10AsmPrinterEPNS_10DwarfDebugEPNS_9DwarfFileEPNS_19MCDwarfDwoLineTableE
libLLVM.so.11:_ZN4llvm13DwarfTypeUnitC2ERNS_16DwarfCompileUnitEPNS_10AsmPrinterEPNS_10DwarfDebugEPNS_9DwarfFileEPNS_19MCDwarfDwoLineTableE
libLLVM.so.11:_ZN4llvm13EngineBuilder12selectTargetERKNS_6TripleENS_9StringRefES4_RKNS_15SmallVectorImplINSt7__cxx1112basic_stringIcSt11char_traitsIcESaIcEEEEE
libLLVM.so.11:_ZN4llvm13EngineBuilder12selectTargetEv
libLLVM.so.11:_ZN4llvm13EngineBuilder16setMemoryManagerESt10unique_ptrINS_18MCJITMemoryManagerESt14default_deleteIS2_EE
libLLVM.so.11:_ZN4llvm13EngineBuilder17setSymbolResolverESt10unique_ptrINS_23LegacyJITSymbolResolverESt14default_deleteIS2_EE
libLLVM.so.11:_ZN4llvm13EngineBuilder21setMCJITMemoryManagerESt10unique_ptrINS_19RTDyldMemoryManagerESt14default_deleteIS2_EE
libLLVM.so.11:_ZN4llvm13EngineBuilder6createEPNS_13TargetMachineE
libLLVM.so.11:_ZN4llvm13EngineBuilderC1ESt10unique_ptrINS_6ModuleESt14default_deleteIS2_EE
libLLVM.so.11:_ZN4llvm13EngineBuilderC1Ev
libLLVM.so.11:_ZN4llvm13EngineBuilderC2ESt10unique_ptrINS_6ModuleESt14default_deleteIS2_EE
libLLVM.so.11:_ZN4llvm13EngineBuilderC2Ev
libLLVM.so.11:_ZN4llvm13EngineBuilderD1Ev
libLLVM.so.11:_ZN4llvm13EngineBuilderD2Ev
libLLVM.so.11:_ZN4llvm13ErrorInfoBase6anchorEv
libLLVM.so.11:_ZN4llvm13FPPassManager11runOnModuleERNS_6ModuleE
libLLVM.so.11:_ZN4llvm13FPPassManager13runOnFunctionERNS_8FunctionE
libLLVM.so.11:_ZN4llvm13FPPassManager14doFinalizationERNS_6ModuleE
libLLVM.so.11:_ZN4llvm13FPPassManager16doInitializationERNS_6ModuleE
libLLVM.so.11:_ZN4llvm13FPPassManager17dumpPassStructureEj
libLLVM.so.11:_ZN4llvm13FPPassManager7cleanupEv
libLLVM.so.11:_ZN4llvm13FileCheckDiagC1ERKNS_9SourceMgrERKNS_5Check13FileCheckTypeENS_5SMLocENS0_9MatchTypeENS_7SMRangeE
libLLVM.so.11:_ZN4llvm13FileCheckDiagC2ERKNS_9SourceMgrERKNS_5Check13FileCheckTypeENS_5SMLocENS0_9MatchTypeENS_7SMRangeE
libLLVM.so.11:_ZN4llvm13FileCollector11addFileImplENS_9StringRefE
libLLVM.so.11:_ZN4llvm13FileCollector11getRealPathENS_9StringRefERNS_15SmallVectorImplIcEE
libLLVM.so.11:_ZN4llvm13FileCollector12addDirectoryERKNS_5TwineE
libLLVM.so.11:_ZN4llvm13FileCollector12writeMappingENS_9StringRefE
libLLVM.so.11:_ZN4llvm13FileCollector16addDirectoryImplERKNS_5TwineENS_18IntrusiveRefCntPtrINS_3vfs10FileSystemEEERSt10error_code
libLLVM.so.11:_ZN4llvm13FileCollector18createCollectorVFSENS_18IntrusiveRefCntPtrINS_3vfs10FileSystemEEESt10shared_ptrIS0_E
libLLVM.so.11:_ZN4llvm13FileCollector7addFileERKNS_5TwineE
libLLVM.so.11:_ZN4llvm13FileCollector9copyFilesEb
libLLVM.so.11:_ZN4llvm13FileCollectorC1ENSt7__cxx1112basic_stringIcSt11char_traitsIcESaIcEEES6_
libLLVM.so.11:_ZN4llvm13FileCollectorC2ENSt7__cxx1112basic_stringIcSt11char_traitsIcESaIcEEES6_
libLLVM.so.11:_ZN4llvm13Float2IntPass12unknownRangeEv
libLLVM.so.11:_ZN4llvm13Float2IntPass12walkForwardsEv
libLLVM.so.11:_ZN4llvm13Float2IntPass13validateRangeENS_13ConstantRangeE
libLLVM.so.11:_ZN4llvm13Float2IntPass13walkBackwardsEv
libLLVM.so.11:_ZN4llvm13Float2IntPass20validateAndTransformEv
libLLVM.so.11:_ZN4llvm13Float2IntPass3runERNS_8FunctionERNS_15AnalysisManagerIS1_JEEE
libLLVM.so.11:_ZN4llvm13Float2IntPass4seenEPNS_11InstructionENS_13ConstantRangeE
libLLVM.so.11:_ZN4llvm13Float2IntPass7cleanupEv
libLLVM.so.11:_ZN4llvm13Float2IntPass7convertEPNS_11InstructionEPNS_4TypeE
libLLVM.so.11:_ZN4llvm13Float2IntPass7runImplERNS_8FunctionERKNS_13DominatorTreeE
libLLVM.so.11:_ZN4llvm13Float2IntPass8badRangeEv
libLLVM.so.11:_ZN4llvm13Float2IntPass9findRootsERNS_8FunctionERKNS_13DominatorTreeE
libLLVM.so.11:_ZN4llvm13GVNExpression10ExpressionD0Ev
libLLVM.so.11:_ZN4llvm13GVNExpression10ExpressionD1Ev
libLLVM.so.11:_ZN4llvm13GVNExpression10ExpressionD2Ev
libLLVM.so.11:_ZN4llvm13GVNExpression13PHIExpressionD0Ev
libLLVM.so.11:_ZN4llvm13GVNExpression13PHIExpressionD1Ev
libLLVM.so.11:_ZN4llvm13GVNExpression13PHIExpressionD2Ev
libLLVM.so.11:_ZN4llvm13GVNExpression14CallExpressionD0Ev
libLLVM.so.11:_ZN4llvm13GVNExpression14CallExpressionD1Ev
libLLVM.so.11:_ZN4llvm13GVNExpression14CallExpressionD2Ev
libLLVM.so.11:_ZN4llvm13GVNExpression14LoadExpressionD0Ev
libLLVM.so.11:_ZN4llvm13GVNExpression14LoadExpressionD1Ev
libLLVM.so.11:_ZN4llvm13GVNExpression14LoadExpressionD2Ev
libLLVM.so.11:_ZN4llvm13GVNExpression15BasicExpressionD0Ev
libLLVM.so.11:_ZN4llvm13GVNExpression15BasicExpressionD1Ev
libLLVM.so.11:_ZN4llvm13GVNExpression15BasicExpressionD2Ev
libLLVM.so.11:_ZN4llvm13GVNExpression15StoreExpressionD0Ev
libLLVM.so.11:_ZN4llvm13GVNExpression15StoreExpressionD1Ev
libLLVM.so.11:_ZN4llvm13GVNExpression15StoreExpressionD2Ev
libLLVM.so.11:_ZN4llvm13GVNExpression24AggregateValueExpressionD0Ev
libLLVM.so.11:_ZN4llvm13GVNExpression24AggregateValueExpressionD1Ev
libLLVM.so.11:_ZN4llvm13GVNExpression24AggregateValueExpressionD2Ev
libLLVM.so.11:_ZN4llvm13GenericDINode15recalculateHashEv
libLLVM.so.11:_ZN4llvm13GenericDINode7getImplERNS_11LLVMContextEjPNS_8MDStringENS_8ArrayRefIPNS_8MetadataEEENS6_11StorageTypeEb
libLLVM.so.11:_ZN4llvm13GetReturnInfoEjPNS_4TypeENS_13AttributeListERNS_15SmallVectorImplINS_3ISD9OutputArgEEERKNS_14TargetLoweringERKNS_10DataLayoutE
libLLVM.so.11:_ZN4llvm13GetStatisticsEv
libLLVM.so.11:_ZN4llvm13GlobalDCEPass11ScanVTablesERNS_6ModuleE
libLLVM.so.11:_ZN4llvm13GlobalDCEPass14ScanVTableLoadEPNS_8FunctionEPNS_8MetadataEy
libLLVM.so.11:_ZN4llvm13GlobalDCEPass19ComputeDependenciesEPNS_5ValueERNS_15SmallPtrSetImplIPNS_11GlobalValueEEE
libLLVM.so.11:_ZN4llvm13GlobalDCEPass20UpdateGVDependenciesERNS_11GlobalValueE
libLLVM.so.11:_ZN4llvm13GlobalDCEPass23RemoveUnusedGlobalValueERNS_11GlobalValueE
libLLVM.so.11:_ZN4llvm13GlobalDCEPass29ScanTypeCheckedLoadIntrinsicsERNS_6ModuleE
libLLVM.so.11:_ZN4llvm13GlobalDCEPass30AddVirtualFunctionDependenciesERNS_6ModuleE
libLLVM.so.11:_ZN4llvm13GlobalDCEPass3runERNS_6ModuleERNS_15AnalysisManagerIS1_JEEE
libLLVM.so.11:_ZN4llvm13GlobalDCEPass8MarkLiveERNS_11GlobalValueEPNS_15SmallVectorImplIPS1_EE
libLLVM.so.11:_ZN4llvm13GlobalOptPass3runERNS_6ModuleERNS_15AnalysisManagerIS1_JEEE
libLLVM.so.11:_ZN4llvm13IRBuilderBase12CreateMemCpyEPNS_5ValueENS_10MaybeAlignES2_S3_S2_bPNS_6MDNodeES5_S5_S5_
libLLVM.so.11:_ZN4llvm13IRBuilderBase12CreateMemSetEPNS_5ValueES2_S2_NS_10MaybeAlignEbPNS_6MDNodeES5_S5_
libLLVM.so.11:_ZN4llvm13IRBuilderBase12CreateNAryOpEjNS_8ArrayRefIPNS_5ValueEEERKNS_5TwineEPNS_6MDNodeE
libLLVM.so.11:_ZN4llvm13IRBuilderBase12CreateSelectEPNS_5ValueES2_S2_RKNS_5TwineEPNS_11InstructionE
libLLVM.so.11:_ZN4llvm13IRBuilderBase13CreateMemMoveEPNS_5ValueENS_10MaybeAlignES2_S3_S2_bPNS_6MDNodeES5_S5_
libLLVM.so.11:_ZN4llvm13IRBuilderBase13CreatePtrDiffEPNS_5ValueES2_RKNS_5TwineE
libLLVM.so.11:_ZN4llvm13IRBuilderBase14CreateGCResultEPNS_11InstructionEPNS_4TypeERKNS_5TwineE
libLLVM.so.11:_ZN4llvm13IRBuilderBase14CreateOrReduceEPNS_5ValueE
libLLVM.so.11:_ZN4llvm13IRBuilderBase15CreateAddReduceEPNS_5ValueE
libLLVM.so.11:_ZN4llvm13IRBuilderBase15CreateAndReduceEPNS_5ValueE
libLLVM.so.11:_ZN4llvm13IRBuilderBase15CreateIntrinsicEjNS_8ArrayRefIPNS_4TypeEEENS1_IPNS_5ValueEEEPNS_11InstructionERKNS_5TwineE
libLLVM.so.11:_ZN4llvm13IRBuilderBase15CreateMulReduceEPNS_5ValueE
libLLVM.so.11:_ZN4llvm13IRBuilderBase15CreateXorReduceEPNS_5ValueE
libLLVM.so.11:_ZN4llvm13IRBuilderBase16CreateAssumptionEPNS_5ValueE
libLLVM.so.11:_ZN4llvm13IRBuilderBase16CreateFAddReduceEPNS_5ValueES2_
libLLVM.so.11:_ZN4llvm13IRBuilderBase16CreateFCmpHelperENS_7CmpInst9PredicateEPNS_5ValueES4_RKNS_5TwineEPNS_6MDNodeEb
libLLVM.so.11:_ZN4llvm13IRBuilderBase16CreateFMulReduceEPNS_5ValueES2_
libLLVM.so.11:_ZN4llvm13IRBuilderBase16CreateGCRelocateEPNS_11InstructionEiiPNS_4TypeERKNS_5TwineE
libLLVM.so.11:_ZN4llvm13IRBuilderBase16CreateMaskedLoadEPNS_5ValueENS_5AlignES2_S2_RKNS_5TwineE
libLLVM.so.11:_ZN4llvm13IRBuilderBase17CreateFPMaxReduceEPNS_5ValueEb
libLLVM.so.11:_ZN4llvm13IRBuilderBase17CreateFPMinReduceEPNS_5ValueEb
libLLVM.so.11:_ZN4llvm13IRBuilderBase17CreateLifetimeEndEPNS_5ValueEPNS_11ConstantIntE
libLLVM.so.11:_ZN4llvm13IRBuilderBase17CreateMaskedStoreEPNS_5ValueES2_NS_5AlignES2_
libLLVM.so.11:_ZN4llvm13IRBuilderBase17CreateVectorSplatEjPNS_5ValueERKNS_5TwineE
libLLVM.so.11:_ZN4llvm13IRBuilderBase18CreateGlobalStringENS_9StringRefERKNS_5TwineEjPNS_6ModuleE
libLLVM.so.11:_ZN4llvm13IRBuilderBase18CreateIntMaxReduceEPNS_5ValueEb
libLLVM.so.11:_ZN4llvm13IRBuilderBase18CreateIntMinReduceEPNS_5ValueEb
libLLVM.so.11:_ZN4llvm13IRBuilderBase18CreateMaskedGatherEPNS_5ValueENS_5AlignES2_S2_RKNS_5TwineE
libLLVM.so.11:_ZN4llvm13IRBuilderBase18CreateMemCpyInlineEPNS_5ValueENS_10MaybeAlignES2_S3_S2_
libLLVM.so.11:_ZN4llvm13IRBuilderBase19CreateLifetimeStartEPNS_5ValueEPNS_11ConstantIntE
libLLVM.so.11:_ZN4llvm13IRBuilderBase19CreateMaskedScatterEPNS_5ValueES2_NS_5AlignES2_
libLLVM.so.11:_ZN4llvm13IRBuilderBase20CreateExtractIntegerERKNS_10DataLayoutEPNS_5ValueEPNS_11IntegerTypeEyRKNS_5TwineE
libLLVM.so.11:_ZN4llvm13IRBuilderBase20CreateInvariantStartEPNS_5ValueEPNS_11ConstantIntE
libLLVM.so.11:_ZN4llvm13IRBuilderBase20CreateUnaryIntrinsicEjPNS_5ValueEPNS_11InstructionERKNS_5TwineE
libLLVM.so.11:_ZN4llvm13IRBuilderBase21CreateBinaryIntrinsicEjPNS_5ValueES2_PNS_11InstructionERKNS_5TwineE
libLLVM.so.11:_ZN4llvm13IRBuilderBase21CreateMaskedIntrinsicEjNS_8ArrayRefIPNS_5ValueEEENS1_IPNS_4TypeEEERKNS_5TwineE
libLLVM.so.11:_ZN4llvm13IRBuilderBase21getCastedInt8PtrValueEPNS_5ValueE
libLLVM.so.11:_ZN4llvm13IRBuilderBase22CreateConstrainedFPCmpEjNS_7CmpInst9PredicateEPNS_5ValueES4_RKNS_5TwineENS_8OptionalINS_2fp17ExceptionBehaviorEEE
libLLVM.so.11:_ZN4llvm13IRBuilderBase22CreateGCStatepointCallEyjPNS_5ValueENS_8ArrayRefINS_3UseEEENS_8OptionalINS3_IS2_EEEES7_RKNS_5TwineE
libLLVM.so.11:_ZN4llvm13IRBuilderBase22CreateGCStatepointCallEyjPNS_5ValueENS_8ArrayRefIS2_EENS_8OptionalIS4_EES4_RKNS_5TwineE
libLLVM.so.11:_ZN4llvm13IRBuilderBase22CreateGCStatepointCallEyjPNS_5ValueEjNS_8ArrayRefINS_3UseEEENS_8OptionalIS5_EES7_NS3_IS2_EERKNS_5TwineE
libLLVM.so.11:_ZN4llvm13IRBuilderBase23CreateConstrainedFPCallEPNS_8FunctionENS_8ArrayRefIPNS_5ValueEEERKNS_5TwineENS_8OptionalINS_12RoundingModeEEENSA_INS_2fp17ExceptionBehaviorEEE
libLLVM.so.11:_ZN4llvm13IRBuilderBase23CreateConstrainedFPCastEjPNS_5ValueEPNS_4TypeEPNS_11InstructionERKNS_5TwineEPNS_6MDNodeENS_8OptionalINS_12RoundingModeEEENSC_INS_2fp17ExceptionBehaviorEEE
libLLVM.so.11:_ZN4llvm13IRBuilderBase24CreateConstrainedFPBinOpEjPNS_5ValueES2_PNS_11InstructionERKNS_5TwineEPNS_6MDNodeENS_8OptionalINS_12RoundingModeEEENSA_INS_2fp17ExceptionBehaviorEEE
libLLVM.so.11:_ZN4llvm13IRBuilderBase24CreateGCStatepointInvokeEyjPNS_5ValueEPNS_10BasicBlockES4_NS_8ArrayRefINS_3UseEEENS_8OptionalINS5_IS2_EEEES9_RKNS_5TwineE
libLLVM.so.11:_ZN4llvm13IRBuilderBase24CreateGCStatepointInvokeEyjPNS_5ValueEPNS_10BasicBlockES4_NS_8ArrayRefIS2_EENS_8OptionalIS6_EES6_RKNS_5TwineE
libLLVM.so.11:_ZN4llvm13IRBuilderBase24CreateGCStatepointInvokeEyjPNS_5ValueEPNS_10BasicBlockES4_jNS_8ArrayRefINS_3UseEEENS_8OptionalIS7_EES9_NS5_IS2_EERKNS_5TwineE
libLLVM.so.11:_ZN4llvm13IRBuilderBase25CreateAlignmentAssumptionERKNS_10DataLayoutEPNS_5ValueES5_S5_PS5_
libLLVM.so.11:_ZN4llvm13IRBuilderBase25CreateAlignmentAssumptionERKNS_10DataLayoutEPNS_5ValueEjS5_PS5_
libLLVM.so.11:_ZN4llvm13IRBuilderBase25CreateStripInvariantGroupEPNS_5ValueE
libLLVM.so.11:_ZN4llvm13IRBuilderBase27CreateLaunderInvariantGroupEPNS_5ValueE
libLLVM.so.11:_ZN4llvm13IRBuilderBase30CreatePreserveArrayAccessIndexEPNS_4TypeEPNS_5ValueEjjPNS_6MDNodeE
libLLVM.so.11:_ZN4llvm13IRBuilderBase30CreatePreserveUnionAccessIndexEPNS_5ValueEjPNS_6MDNodeE
libLLVM.so.11:_ZN4llvm13IRBuilderBase31CreateAlignmentAssumptionHelperERKNS_10DataLayoutEPNS_5ValueES5_PNS_4TypeES5_PS5_
libLLVM.so.11:_ZN4llvm13IRBuilderBase31CreatePreserveStructAccessIndexEPNS_4TypeEPNS_5ValueEjjPNS_6MDNodeE
libLLVM.so.11:_ZN4llvm13IRBuilderBase34CreateElementUnorderedAtomicMemCpyEPNS_5ValueENS_5AlignES2_S3_S2_jPNS_6MDNodeES5_S5_S5_
libLLVM.so.11:_ZN4llvm13IRBuilderBase34CreateElementUnorderedAtomicMemSetEPNS_5ValueES2_S2_NS_5AlignEjPNS_6MDNodeES5_S5_
libLLVM.so.11:_ZN4llvm13IRBuilderBase35CreateElementUnorderedAtomicMemMoveEPNS_5ValueENS_5AlignES2_S3_S2_jPNS_6MDNodeES5_S5_S5_
libLLVM.so.11:_ZN4llvm13ImmutablePass14initializePassEv
libLLVM.so.11:_ZN4llvm13ImmutablePassD0Ev
libLLVM.so.11:_ZN4llvm13ImmutablePassD1Ev
libLLVM.so.11:_ZN4llvm13ImmutablePassD2Ev
libLLVM.so.11:_ZN4llvm13InlineAdvisor20freeDeletedFunctionsEv
libLLVM.so.11:_ZN4llvm13InlineAdvisor21markFunctionAsDeletedEPNS_8FunctionE
libLLVM.so.11:_ZN4llvm13LPPassManager13runOnFunctionERNS_8FunctionE
libLLVM.so.11:_ZN4llvm13LPPassManager17dumpPassStructureEj
libLLVM.so.11:_ZN4llvm13LPPassManager17markLoopAsDeletedERNS_4LoopE
libLLVM.so.11:_ZN4llvm13LPPassManager7addLoopERNS_4LoopE
libLLVM.so.11:_ZN4llvm13LPPassManagerC1Ev
libLLVM.so.11:_ZN4llvm13LPPassManagerC2Ev
libLLVM.so.11:_ZN4llvm13LazyCallGraph10createNodeERNS_8FunctionE
libLLVM.so.11:_ZN4llvm13LazyCallGraph10insertEdgeERNS0_4NodeES2_NS0_4Edge4KindE
libLLVM.so.11:_ZN4llvm13LazyCallGraph10insertIntoERNS_8FunctionERPNS0_4NodeE
libLLVM.so.11:_ZN4llvm13LazyCallGraph10invalidateERNS_6ModuleERKNS_17PreservedAnalysesERNS_15AnalysisManagerIS1_JEE11InvalidatorE
libLLVM.so.11:_ZN4llvm13LazyCallGraph10removeEdgeERNS0_4NodeES2_
libLLVM.so.11:_ZN4llvm13LazyCallGraph12EdgeSequence11setEdgeKindERNS0_4NodeENS0_4Edge4KindE
libLLVM.so.11:_ZN4llvm13LazyCallGraph12EdgeSequence18insertEdgeInternalERNS0_4NodeENS0_4Edge4KindE
libLLVM.so.11:_ZN4llvm13LazyCallGraph12EdgeSequence18removeEdgeInternalERNS0_4NodeE
libLLVM.so.11:_ZN4llvm13LazyCallGraph12addNodeToSCCERNS0_3SCCERNS0_4NodeE
libLLVM.so.11:_ZN4llvm13LazyCallGraph12buildRefSCCsEv
libLLVM.so.11:_ZN4llvm13LazyCallGraph15updateGraphPtrsEv
libLLVM.so.11:_ZN4llvm13LazyCallGraph18removeDeadFunctionERNS_8FunctionE
libLLVM.so.11:_ZN4llvm13LazyCallGraph21addNewFunctionIntoSCCERNS_8FunctionERNS0_3SCCE
libLLVM.so.11:_ZN4llvm13LazyCallGraph24addNewFunctionIntoRefSCCERNS_8FunctionERNS0_6RefSCCE
libLLVM.so.11:_ZN4llvm13LazyCallGraph4Node12populateSlowEv
libLLVM.so.11:_ZN4llvm13LazyCallGraph4Node15replaceFunctionERNS_8FunctionE
libLLVM.so.11:_ZN4llvm13LazyCallGraph6RefSCC18insertOutgoingEdgeERNS0_4NodeES3_NS0_4Edge4KindE
libLLVM.so.11:_ZN4llvm13LazyCallGraph6RefSCC18removeOutgoingEdgeERNS0_4NodeES3_
libLLVM.so.11:_ZN4llvm13LazyCallGraph6RefSCC19replaceNodeFunctionERNS0_4NodeERNS_8FunctionE
libLLVM.so.11:_ZN4llvm13LazyCallGraph6RefSCC20insertTrivialRefEdgeERNS0_4NodeES3_
libLLVM.so.11:_ZN4llvm13LazyCallGraph6RefSCC21insertIncomingRefEdgeERNS0_4NodeES3_
libLLVM.so.11:_ZN4llvm13LazyCallGraph6RefSCC21insertInternalRefEdgeERNS0_4NodeES3_
libLLVM.so.11:_ZN4llvm13LazyCallGraph6RefSCC21insertTrivialCallEdgeERNS0_4NodeES3_
libLLVM.so.11:_ZN4llvm13LazyCallGraph6RefSCC21removeInternalRefEdgeERNS0_4NodeENS_8ArrayRefIPS2_EE
libLLVM.so.11:_ZN4llvm13LazyCallGraph6RefSCC23switchInternalEdgeToRefERNS0_4NodeES3_
libLLVM.so.11:_ZN4llvm13LazyCallGraph6RefSCC23switchOutgoingEdgeToRefERNS0_4NodeES3_
libLLVM.so.11:_ZN4llvm13LazyCallGraph6RefSCC24switchInternalEdgeToCallERNS0_4NodeES3_NS_12function_refIFvNS_8ArrayRefIPNS0_3SCCEEEEEE
libLLVM.so.11:_ZN4llvm13LazyCallGraph6RefSCC24switchOutgoingEdgeToCallERNS0_4NodeES3_
libLLVM.so.11:_ZN4llvm13LazyCallGraph6RefSCC26handleTrivialEdgeInsertionERNS0_4NodeES3_
libLLVM.so.11:_ZN4llvm13LazyCallGraph6RefSCC30switchTrivialInternalEdgeToRefERNS0_4NodeES3_
libLLVM.so.11:_ZN4llvm13LazyCallGraph6RefSCCC1ERS0_
libLLVM.so.11:_ZN4llvm13LazyCallGraph6RefSCCC2ERS0_
libLLVM.so.11:_ZN4llvm13LazyCallGraph9buildSCCsERNS0_6RefSCCENS_14iterator_rangeISt16reverse_iteratorIPPNS0_4NodeEEEE
libLLVM.so.11:_ZN4llvm13LazyCallGraphC1EOS0_
libLLVM.so.11:_ZN4llvm13LazyCallGraphC1ERNS_6ModuleENS_12function_refIFRNS_17TargetLibraryInfoERNS_8FunctionEEEE
libLLVM.so.11:_ZN4llvm13LazyCallGraphC2EOS0_
libLLVM.so.11:_ZN4llvm13LazyCallGraphC2ERNS_6ModuleENS_12function_refIFRNS_17TargetLibraryInfoERNS_8FunctionEEEE
libLLVM.so.11:_ZN4llvm13LazyCallGraphaSEOS0_
libLLVM.so.11:_ZN4llvm13LazyValueInfo10eraseBlockEPNS_10BasicBlockE
libLLVM.so.11:_ZN4llvm13LazyValueInfo10invalidateERNS_8FunctionERKNS_17PreservedAnalysesERNS_15AnalysisManagerIS1_JEE11InvalidatorE
libLLVM.so.11:_ZN4llvm13LazyValueInfo10threadEdgeEPNS_10BasicBlockES2_S2_
libLLVM.so.11:_ZN4llvm13LazyValueInfo11getConstantEPNS_5ValueEPNS_10BasicBlockEPNS_11InstructionE
libLLVM.so.11:_ZN4llvm13LazyValueInfo13releaseMemoryEv
libLLVM.so.11:_ZN4llvm13LazyValueInfo14getPredicateAtEjPNS_5ValueEPNS_8ConstantEPNS_11InstructionE
libLLVM.so.11:_ZN4llvm13LazyValueInfo16getConstantRangeEPNS_5ValueEPNS_10BasicBlockEPNS_11InstructionEb
libLLVM.so.11:_ZN4llvm13LazyValueInfo17getConstantOnEdgeEPNS_5ValueEPNS_10BasicBlockES4_PNS_11InstructionE
libLLVM.so.11:_ZN4llvm13LazyValueInfo18getPredicateOnEdgeEjPNS_5ValueEPNS_8ConstantEPNS_10BasicBlockES6_PNS_11InstructionE
libLLVM.so.11:_ZN4llvm13LazyValueInfo22getConstantRangeOnEdgeEPNS_5ValueEPNS_10BasicBlockES4_PNS_11InstructionE
libLLVM.so.11:_ZN4llvm13LazyValueInfo8printLVIERNS_8FunctionERNS_13DominatorTreeERNS_11raw_ostreamE
libLLVM.so.11:_ZN4llvm13LazyValueInfoD1Ev
libLLVM.so.11:_ZN4llvm13LazyValueInfoD2Ev
libLLVM.so.11:_ZN4llvm13LegalizerInfo10findActionERKSt6vectorISt4pairItNS_15LegalizeActions14LegalizeActionEESaIS5_EEj
libLLVM.so.11:_ZN4llvm13LegalizerInfo13computeTablesEv
libLLVM.so.11:_ZN4llvm13LegalizerInfo22aliasActionDefinitionsEjj
libLLVM.so.11:_ZN4llvm13LegalizerInfo27getActionDefinitionsBuilderESt16initializer_listIjE
libLLVM.so.11:_ZN4llvm13LegalizerInfo27getActionDefinitionsBuilderEj
libLLVM.so.11:_ZN4llvm13LegalizerInfo41increaseToLargerTypesAndDecreaseToLargestERKSt6vectorISt4pairItNS_15LegalizeActions14LegalizeActionEESaIS5_EES4_S4_
libLLVM.so.11:_ZN4llvm13LegalizerInfo43decreaseToSmallerTypesAndIncreaseToSmallestERKSt6vectorISt4pairItNS_15LegalizeActions14LegalizeActionEESaIS5_EES4_S4_
libLLVM.so.11:_ZN4llvm13LegalizerInfoC1Ev
libLLVM.so.11:_ZN4llvm13LegalizerInfoC2Ev
libLLVM.so.11:_ZN4llvm13LexicalScopes10initializeERKNS_15MachineFunctionE
libLLVM.so.11:_ZN4llvm13LexicalScopes16findLexicalScopeEPKNS_10DILocationE
libLLVM.so.11:_ZN4llvm13LexicalScopes18constructScopeNestEPNS_12LexicalScopeE
libLLVM.so.11:_ZN4llvm13LexicalScopes20extractLexicalScopesERNS_15SmallVectorImplISt4pairIPKNS_12MachineInstrES5_EEERNS_8DenseMapIS5_PNS_12LexicalScopeENS_12DenseMapInfoIS5_EENS_6detail12DenseMapPairIS5_SB_EEEE
libLLVM.so.11:_ZN4llvm13LexicalScopes21getMachineBasicBlocksEPKNS_10DILocationERNS_15SmallPtrSetImplIPKNS_17MachineBasicBlockEEE
libLLVM.so.11:_ZN4llvm13LexicalScopes23assignInstructionRangesERNS_15SmallVectorImplISt4pairIPKNS_12MachineInstrES5_EEERNS_8DenseMapIS5_PNS_12LexicalScopeENS_12DenseMapInfoIS5_EENS_6detail12DenseMapPairIS5_SB_EEEE
libLLVM.so.11:_ZN4llvm13LexicalScopes23getOrCreateInlinedScopeEPKNS_12DILocalScopeEPKNS_10DILocationE
libLLVM.so.11:_ZN4llvm13LexicalScopes23getOrCreateLexicalScopeEPKNS_12DILocalScopeEPKNS_10DILocationE
libLLVM.so.11:_ZN4llvm13LexicalScopes23getOrCreateRegularScopeEPKNS_12DILocalScopeE
libLLVM.so.11:_ZN4llvm13LexicalScopes24getOrCreateAbstractScopeEPKNS_12DILocalScopeE
libLLVM.so.11:_ZN4llvm13LexicalScopes5resetEv
libLLVM.so.11:_ZN4llvm13LexicalScopes9dominatesEPKNS_10DILocationEPNS_17MachineBasicBlockE
libLLVM.so.11:_ZN4llvm13LiveIntervals10handleMoveERNS_12MachineInstrEb
libLLVM.so.11:_ZN4llvm13LiveIntervals10pruneValueERNS_9LiveRangeENS_9SlotIndexEPNS_15SmallVectorImplIS3_EE
libLLVM.so.11:_ZN4llvm13LiveIntervals12addKillFlagsEPKNS_10VirtRegMapE
libLLVM.so.11:_ZN4llvm13LiveIntervals12shrinkToUsesEPNS_12LiveIntervalEPNS_15SmallVectorImplIPNS_12MachineInstrEEE
libLLVM.so.11:_ZN4llvm13LiveIntervals12shrinkToUsesERNS_12LiveInterval8SubRangeEj
libLLVM.so.11:_ZN4llvm13LiveIntervals13releaseMemoryEv
libLLVM.so.11:_ZN4llvm13LiveIntervals14createIntervalEj
libLLVM.so.11:_ZN4llvm13LiveIntervals14getSpillWeightEbbPKNS_25MachineBlockFrequencyInfoEPKNS_17MachineBasicBlockE
libLLVM.so.11:_ZN4llvm13LiveIntervals14getSpillWeightEbbPKNS_25MachineBlockFrequencyInfoERKNS_12MachineInstrE
libLLVM.so.11:_ZN4llvm13LiveIntervals15computeRegMasksEv
libLLVM.so.11:_ZN4llvm13LiveIntervals15computeVirtRegsEv
libLLVM.so.11:_ZN4llvm13LiveIntervals15extendToIndicesERNS_9LiveRangeENS_8ArrayRefINS_9SlotIndexEEES5_
libLLVM.so.11:_ZN4llvm13LiveIntervals15removeVRegDefAtERNS_12LiveIntervalENS_9SlotIndexE
libLLVM.so.11:_ZN4llvm13LiveIntervals17computeDeadValuesERNS_12LiveIntervalEPNS_15SmallVectorImplIPNS_12MachineInstrEEE
libLLVM.so.11:_ZN4llvm13LiveIntervals18removePhysRegDefAtEjNS_9SlotIndexE
libLLVM.so.11:_ZN4llvm13LiveIntervals19computeRegUnitRangeERNS_9LiveRangeEj
libLLVM.so.11:_ZN4llvm13LiveIntervals19repairOldRegInRangeENS_26MachineInstrBundleIteratorINS_12MachineInstrELb0EEES3_NS_9SlotIndexERNS_9LiveRangeEjNS_11LaneBitmaskE
libLLVM.so.11:_ZN4llvm13LiveIntervals20extendSegmentsToUsesERNS_9LiveRangeERNS_11SmallVectorISt4pairINS_9SlotIndexEPNS_6VNInfoEELj16EEEjNS_11LaneBitmaskE
libLLVM.so.11:_ZN4llvm13LiveIntervals20runOnMachineFunctionERNS_15MachineFunctionE
libLLVM.so.11:_ZN4llvm13LiveIntervals21computeLiveInRegUnitsEv
libLLVM.so.11:_ZN4llvm13LiveIntervals22addSegmentToEndOfBlockEjRNS_12MachineInstrE
libLLVM.so.11:_ZN4llvm13LiveIntervals22computeVirtRegIntervalERNS_12LiveIntervalE
libLLVM.so.11:_ZN4llvm13LiveIntervals22repairIntervalsInRangeEPNS_17MachineBasicBlockENS_26MachineInstrBundleIteratorINS_12MachineInstrELb0EEES5_NS_8ArrayRefINS_8RegisterEEE
libLLVM.so.11:_ZN4llvm13LiveIntervals23handleMoveIntoNewBundleERNS_12MachineInstrEb
libLLVM.so.11:_ZN4llvm13LiveIntervals23splitSeparateComponentsERNS_12LiveIntervalERNS_15SmallVectorImplIPS1_EE
libLLVM.so.11:_ZN4llvm13LiveIntervals24checkRegMaskInterferenceERNS_12LiveIntervalERNS_9BitVectorE
libLLVM.so.11:_ZN4llvm13LiveIntervals31constructMainRangeFromSubrangesERNS_12LiveIntervalE
libLLVM.so.11:_ZN4llvm13LiveIntervalsC1Ev
libLLVM.so.11:_ZN4llvm13LiveIntervalsC2Ev
libLLVM.so.11:_ZN4llvm13LiveIntervalsD0Ev
libLLVM.so.11:_ZN4llvm13LiveIntervalsD1Ev
libLLVM.so.11:_ZN4llvm13LiveIntervalsD2Ev
libLLVM.so.11:_ZN4llvm13LiveRangeCalc12isDefOnEntryERNS_9LiveRangeENS_8ArrayRefINS_9SlotIndexEEERNS_17MachineBasicBlockERNS_9BitVectorES9_
libLLVM.so.11:_ZN4llvm13LiveRangeCalc15calculateValuesEv
libLLVM.so.11:_ZN4llvm13LiveRangeCalc15resetLiveOutMapEv
libLLVM.so.11:_ZN4llvm13LiveRangeCalc16findReachingDefsERNS_9LiveRangeERNS_17MachineBasicBlockENS_9SlotIndexEjNS_8ArrayRefIS5_EE
libLLVM.so.11:_ZN4llvm13LiveRangeCalc17updateFromLiveInsEv
libLLVM.so.11:_ZN4llvm13LiveRangeCalc18isJointlyDominatedEPKNS_17MachineBasicBlockENS_8ArrayRefINS_9SlotIndexEEERKNS_11SlotIndexesE
libLLVM.so.11:_ZN4llvm13LiveRangeCalc5resetEPKNS_15MachineFunctionEPNS_11SlotIndexesEPNS_20MachineDominatorTreeEPNS_20BumpPtrAllocatorImplINS_15MallocAllocatorELj4096ELj4096ELj128EEE
libLLVM.so.11:_ZN4llvm13LiveRangeCalc6extendERNS_9LiveRangeENS_9SlotIndexEjNS_8ArrayRefIS3_EE
libLLVM.so.11:_ZN4llvm13LiveRangeCalc9updateSSAEv
libLLVM.so.11:_ZN4llvm13LiveRangeEdit10createFromENS_8RegisterE
libLLVM.so.11:_ZN4llvm13LiveRangeEdit10foldAsLoadEPNS_12LiveIntervalERNS_15SmallVectorImplIPNS_12MachineInstrEEE
libLLVM.so.11:_ZN4llvm13LiveRangeEdit12eraseVirtRegENS_8RegisterE
libLLVM.so.11:_ZN4llvm13LiveRangeEdit14scanRemattableEPNS_9AAResultsE
libLLVM.so.11:_ZN4llvm13LiveRangeEdit15rematerializeAtERNS_17MachineBasicBlockENS_26MachineInstrBundleIteratorINS_12MachineInstrELb0EEEjRKNS0_5RematERKNS_18TargetRegisterInfoEb
libLLVM.so.11:_ZN4llvm13LiveRangeEdit16eliminateDeadDefEPNS_12MachineInstrERNS_9SetVectorIPNS_12LiveIntervalENS_11SmallVectorIS5_Lj8EEENS_11SmallPtrSetIS5_Lj8EEEEEPNS_9AAResultsE
libLLVM.so.11:_ZN4llvm13LiveRangeEdit17eliminateDeadDefsERNS_15SmallVectorImplIPNS_12MachineInstrEEENS_8ArrayRefINS_8RegisterEEEPNS_9AAResultsE
libLLVM.so.11:_ZN4llvm13LiveRangeEdit18canRematerializeAtERNS0_5RematEPNS_6VNInfoENS_9SlotIndexEb
libLLVM.so.11:_ZN4llvm13LiveRangeEdit19anyRematerializableEPNS_9AAResultsE
libLLVM.so.11:_ZN4llvm13LiveRangeEdit21checkRematerializableEPNS_6VNInfoEPKNS_12MachineInstrEPNS_9AAResultsE
libLLVM.so.11:_ZN4llvm13LiveRangeEdit23createEmptyIntervalFromENS_8RegisterEb
libLLVM.so.11:_ZN4llvm13LiveRangeEdit24calculateRegClassAndHintERNS_15MachineFunctionERKNS_15MachineLoopInfoERKNS_25MachineBlockFrequencyInfoE
libLLVM.so.11:_ZN4llvm13LiveRangeEdit26MRI_NoteNewVirtualRegisterENS_8RegisterE
libLLVM.so.11:_ZN4llvm13LiveRangeEdit8Delegate6anchorEv
libLLVM.so.11:_ZN4llvm13LiveRegMatrix13releaseMemoryEv
libLLVM.so.11:_ZN4llvm13LiveRegMatrix17checkInterferenceENS_9SlotIndexES1_j
libLLVM.so.11:_ZN4llvm13LiveRegMatrix17checkInterferenceERNS_12LiveIntervalEj
libLLVM.so.11:_ZN4llvm13LiveRegMatrix20runOnMachineFunctionERNS_15MachineFunctionE
libLLVM.so.11:_ZN4llvm13LiveRegMatrix24checkRegMaskInterferenceERNS_12LiveIntervalEj
libLLVM.so.11:_ZN4llvm13LiveRegMatrix24checkRegUnitInterferenceERNS_12LiveIntervalEj
libLLVM.so.11:_ZN4llvm13LiveRegMatrix5queryERKNS_9LiveRangeEj
libLLVM.so.11:_ZN4llvm13LiveRegMatrix6assignERNS_12LiveIntervalEj
libLLVM.so.11:_ZN4llvm13LiveRegMatrix8unassignERNS_12LiveIntervalE
libLLVM.so.11:_ZN4llvm13LiveRegMatrixC1Ev
libLLVM.so.11:_ZN4llvm13LiveRegMatrixC2Ev
libLLVM.so.11:_ZN4llvm13LiveVariables10getVarInfoEj
libLLVM.so.11:_ZN4llvm13LiveVariables10runOnBlockEPNS_17MachineBasicBlockEj
libLLVM.so.11:_ZN4llvm13LiveVariables10runOnInstrERNS_12MachineInstrERNS_15SmallVectorImplIjEE
libLLVM.so.11:_ZN4llvm13LiveVariables11addNewBlockEPNS_17MachineBasicBlockES2_S2_
libLLVM.so.11:_ZN4llvm13LiveVariables11addNewBlockEPNS_17MachineBasicBlockES2_S2_RSt6vectorINS_15SparseBitVectorILj128EEESaIS5_EE
libLLVM.so.11:_ZN4llvm13LiveVariables13HandleRegMaskERKNS_14MachineOperandE
libLLVM.so.11:_ZN4llvm13LiveVariables15analyzePHINodesERKNS_15MachineFunctionE
libLLVM.so.11:_ZN4llvm13LiveVariables16HandlePhysRegDefEjPNS_12MachineInstrERNS_15SmallVectorImplIjEE
libLLVM.so.11:_ZN4llvm13LiveVariables16HandlePhysRegUseEjRNS_12MachineInstrE
libLLVM.so.11:_ZN4llvm13LiveVariables16HandleVirtRegDefEjRNS_12MachineInstrE
libLLVM.so.11:_ZN4llvm13LiveVariables16HandleVirtRegUseEjPNS_17MachineBasicBlockERNS_12MachineInstrE
libLLVM.so.11:_ZN4llvm13LiveVariables17HandlePhysRegKillEjPNS_12MachineInstrE
libLLVM.so.11:_ZN4llvm13LiveVariables17UpdatePhysRegDefsERNS_12MachineInstrERNS_15SmallVectorImplIjEE
libLLVM.so.11:_ZN4llvm13LiveVariables18FindLastPartialDefEjRNS_8SmallSetIjLj4ESt4lessIjEEE
libLLVM.so.11:_ZN4llvm13LiveVariables20FindLastRefOrPartRefEj
libLLVM.so.11:_ZN4llvm13LiveVariables20runOnMachineFunctionERNS_15MachineFunctionE
libLLVM.so.11:_ZN4llvm13LiveVariables22replaceKillInstructionEjRNS_12MachineInstrES2_
libLLVM.so.11:_ZN4llvm13LiveVariables23MarkVirtRegAliveInBlockERNS0_7VarInfoEPNS_17MachineBasicBlockES4_
libLLVM.so.11:_ZN4llvm13LiveVariables23MarkVirtRegAliveInBlockERNS0_7VarInfoEPNS_17MachineBasicBlockES4_RSt6vectorIS4_SaIS4_EE
libLLVM.so.11:_ZN4llvm13LiveVariables28removeVirtualRegistersKilledERNS_12MachineInstrE
libLLVM.so.11:_ZN4llvm13LiveVariables7VarInfo8isLiveInERKNS_17MachineBasicBlockEjRNS_19MachineRegisterInfoE
libLLVM.so.11:_ZN4llvm13LiveVariables9isLiveOutEjRKNS_17MachineBasicBlockE
libLLVM.so.11:_ZN4llvm13LoopBlocksDFS7performEPNS_8LoopInfoE
libLLVM.so.11:_ZN4llvm13LoopTraversal11isBlockDoneEPNS_17MachineBasicBlockE
libLLVM.so.11:_ZN4llvm13LoopTraversal8traverseERNS_15MachineFunctionE
libLLVM.so.11:_ZN4llvm13MCAsmInfoCOFF6anchorEv
libLLVM.so.11:_ZN4llvm13MCAsmInfoCOFFC1Ev
libLLVM.so.11:_ZN4llvm13MCAsmInfoCOFFC2Ev
libLLVM.so.11:_ZN4llvm13MCAsmInfoWasm6anchorEv
libLLVM.so.11:_ZN4llvm13MCAsmInfoWasmC1Ev
libLLVM.so.11:_ZN4llvm13MCAsmInfoWasmC2Ev
libLLVM.so.11:_ZN4llvm13MCCodeEmitterC2Ev
libLLVM.so.11:_ZN4llvm13MCCodeEmitterD0Ev
libLLVM.so.11:_ZN4llvm13MCCodeEmitterD1Ev
libLLVM.so.11:_ZN4llvm13MCCodeEmitterD2Ev
libLLVM.so.11:_ZN4llvm13MCELFStreamer10finishImplEv
libLLVM.so.11:_ZN4llvm13MCELFStreamer11emitELFSizeEPNS_8MCSymbolEPKNS_6MCExprE
libLLVM.so.11:_ZN4llvm13MCELFStreamer12InitSectionsEb
libLLVM.so.11:_ZN4llvm13MCELFStreamer12emitZerofillEPNS_9MCSectionEPNS_8MCSymbolEyjNS_5SMLocE
libLLVM.so.11:_ZN4llvm13MCELFStreamer13changeSectionEPNS_9MCSectionEPKNS_6MCExprE
libLLVM.so.11:_ZN4llvm13MCELFStreamer13emitThumbFuncEPNS_8MCSymbolE
libLLVM.so.11:_ZN4llvm13MCELFStreamer13emitValueImplEPKNS_6MCExprEjNS_5SMLocE
libLLVM.so.11:_ZN4llvm13MCELFStreamer13mergeFragmentEPNS_14MCDataFragmentES2_
libLLVM.so.11:_ZN4llvm13MCELFStreamer14emitBundleLockEb
libLLVM.so.11:_ZN4llvm13MCELFStreamer14emitInstToDataERKNS_6MCInstERKNS_15MCSubtargetInfoE
libLLVM.so.11:_ZN4llvm13MCELFStreamer14emitLabelAtPosEPNS_8MCSymbolENS_5SMLocEPNS_10MCFragmentEy
libLLVM.so.11:_ZN4llvm13MCELFStreamer14emitSymbolDescEPNS_8MCSymbolEj
libLLVM.so.11:_ZN4llvm13MCELFStreamer14emitTBSSSymbolEPNS_9MCSectionEPNS_8MCSymbolEyj
libLLVM.so.11:_ZN4llvm13MCELFStreamer16emitBundleUnlockEv
libLLVM.so.11:_ZN4llvm13MCELFStreamer16emitCommonSymbolEPNS_8MCSymbolEyj
libLLVM.so.11:_ZN4llvm13MCELFStreamer17emitAssemblerFlagENS_15MCAssemblerFlagE
libLLVM.so.11:_ZN4llvm13MCELFStreamer17emitWeakReferenceEPNS_8MCSymbolEPKS1_
libLLVM.so.11:_ZN4llvm13MCELFStreamer17finalizeCGProfileEv
libLLVM.so.11:_ZN4llvm13MCELFStreamer18emitCGProfileEntryEPKNS_15MCSymbolRefExprES3_y
libLLVM.so.11:_ZN4llvm13MCELFStreamer18emitInstToFragmentERKNS_6MCInstERKNS_15MCSubtargetInfoE
libLLVM.so.11:_ZN4llvm13MCELFStreamer19emitBundleAlignModeEj
libLLVM.so.11:_ZN4llvm13MCELFStreamer19emitSymbolAttributeEPNS_8MCSymbolENS_12MCSymbolAttrE
libLLVM.so.11:_ZN4llvm13MCELFStreamer20emitValueToAlignmentEjxjj
libLLVM.so.11:_ZN4llvm13MCELFStreamer21emitLocalCommonSymbolEPNS_8MCSymbolEyj
libLLVM.so.11:_ZN4llvm13MCELFStreamer21fixSymbolsInTLSFixupsEPKNS_6MCExprE
libLLVM.so.11:_ZN4llvm13MCELFStreamer22emitELFSymverDirectiveENS_9StringRefEPKNS_8MCSymbolE
libLLVM.so.11:_ZN4llvm13MCELFStreamer22finalizeCGProfileEntryERPKNS_15MCSymbolRefExprE
libLLVM.so.11:_ZN4llvm13MCELFStreamer9emitIdentENS_9StringRefE
libLLVM.so.11:_ZN4llvm13MCELFStreamer9emitLabelEPNS_8MCSymbolENS_5SMLocE
libLLVM.so.11:_ZN4llvm13MCELFStreamerC1ERNS_9MCContextESt10unique_ptrINS_12MCAsmBackendESt14default_deleteIS4_EES3_INS_14MCObjectWriterES5_IS8_EES3_INS_13MCCodeEmitterES5_ISB_EE
libLLVM.so.11:_ZN4llvm13MCELFStreamerC2ERNS_9MCContextESt10unique_ptrINS_12MCAsmBackendESt14default_deleteIS4_EES3_INS_14MCObjectWriterES5_IS8_EES3_INS_13MCCodeEmitterES5_ISB_EE
libLLVM.so.11:_ZN4llvm13MCInstPrinter15printAnnotationERNS_11raw_ostreamENS_9StringRefE
libLLVM.so.11:_ZN4llvm13MCInstPrinter18matchAliasPatternsEPKNS_6MCInstEPKNS_15MCSubtargetInfoERKNS_17AliasMatchingDataE
libLLVM.so.11:_ZN4llvm13MCInstPrinterD0Ev
libLLVM.so.11:_ZN4llvm13MCInstPrinterD1Ev
libLLVM.so.11:_ZN4llvm13MCInstPrinterD2Ev
libLLVM.so.11:_ZN4llvm13MCParserUtils25parseAssignmentExpressionENS_9StringRefEbRNS_11MCAsmParserERPNS_8MCSymbolERPKNS_6MCExprE
libLLVM.so.11:_ZN4llvm13MCSymbolXCOFF19setRepresentedCsectEPNS_14MCSectionXCOFFE
libLLVM.so.11:_ZN4llvm13MIRParserImpl11parseMDNodeERNS_25PerFunctionMIParsingStateERPNS_6MDNodeERKNS_4yaml11StringValueE
libLLVM.so.11:_ZN4llvm13MIRParserImpl13parseIRModuleENS_12function_refIFNS_8OptionalINSt7__cxx1112basic_stringIcSt11char_traitsIcESaIcEEEEENS_9StringRefEEEE
libLLVM.so.11:_ZN4llvm13MIRParserImpl16reportDiagnosticERKNS_12SMDiagnosticE
libLLVM.so.11:_ZN4llvm13MIRParserImpl17parseMBBReferenceERNS_25PerFunctionMIParsingStateERPNS_17MachineBasicBlockERKNS_4yaml11StringValueE
libLLVM.so.11:_ZN4llvm13MIRParserImpl17parseRegisterInfoERNS_25PerFunctionMIParsingStateERKNS_4yaml15MachineFunctionE
libLLVM.so.11:_ZN4llvm13MIRParserImpl17setupRegisterInfoERKNS_25PerFunctionMIParsingStateERKNS_4yaml15MachineFunctionE
libLLVM.so.11:_ZN4llvm13MIRParserImpl19createDummyFunctionENS_9StringRefERNS_6ModuleE
libLLVM.so.11:_ZN4llvm13MIRParserImpl19initializeFrameInfoERNS_25PerFunctionMIParsingStateERKNS_4yaml15MachineFunctionE
libLLVM.so.11:_ZN4llvm13MIRParserImpl20diagFromMIStringDiagERKNS_12SMDiagnosticENS_7SMRangeE
libLLVM.so.11:_ZN4llvm13MIRParserImpl20parseMachineFunctionERNS_6ModuleERNS_17MachineModuleInfoE
libLLVM.so.11:_ZN4llvm13MIRParserImpl21parseMachineFunctionsERNS_6ModuleERNS_17MachineModuleInfoE
libLLVM.so.11:_ZN4llvm13MIRParserImpl22initializeCallSiteInfoERNS_25PerFunctionMIParsingStateERKNS_4yaml15MachineFunctionE
libLLVM.so.11:_ZN4llvm13MIRParserImpl22initializeConstantPoolERNS_25PerFunctionMIParsingStateERNS_19MachineConstantPoolERKNS_4yaml15MachineFunctionE
libLLVM.so.11:_ZN4llvm13MIRParserImpl23diagFromBlockStringDiagERKNS_12SMDiagnosticENS_7SMRangeE
libLLVM.so.11:_ZN4llvm13MIRParserImpl23initializeJumpTableInfoERNS_25PerFunctionMIParsingStateERKNS_4yaml16MachineJumpTableE
libLLVM.so.11:_ZN4llvm13MIRParserImpl24parseCalleeSavedRegisterERNS_25PerFunctionMIParsingStateERSt6vectorINS_15CalleeSavedInfoESaIS4_EERKNS_4yaml11StringValueEbi
libLLVM.so.11:_ZN4llvm13MIRParserImpl25computeFunctionPropertiesERNS_15MachineFunctionE
libLLVM.so.11:_ZN4llvm13MIRParserImpl25initializeMachineFunctionERKNS_4yaml15MachineFunctionERNS_15MachineFunctionE
libLLVM.so.11:_ZN4llvm13MIRParserImpl5errorENS_5SMLocERKNS_5TwineE
libLLVM.so.11:_ZN4llvm13MIRParserImpl5errorERKNS_12SMDiagnosticENS_7SMRangeE
libLLVM.so.11:_ZN4llvm13MIRParserImpl5errorERKNS_5TwineE
libLLVM.so.11:_ZN4llvm13MIRParserImplC1ESt10unique_ptrINS_12MemoryBufferESt14default_deleteIS2_EENS_9StringRefERNS_11LLVMContextESt8functionIFvRNS_8FunctionEEE
libLLVM.so.11:_ZN4llvm13MIRParserImplC2ESt10unique_ptrINS_12MemoryBufferESt14default_deleteIS2_EENS_9StringRefERNS_11LLVMContextESt8functionIFvRNS_8FunctionEEE
libLLVM.so.11:_ZN4llvm13MachineRegionC1EPNS_17MachineBasicBlockES2_PNS_17MachineRegionInfoEPNS_20MachineDominatorTreeEPS0_
libLLVM.so.11:_ZN4llvm13MachineRegionC2EPNS_17MachineBasicBlockES2_PNS_17MachineRegionInfoEPNS_20MachineDominatorTreeEPS0_
libLLVM.so.11:_ZN4llvm13MachineRegionD1Ev
libLLVM.so.11:_ZN4llvm13MachineRegionD2Ev
libLLVM.so.11:_ZN4llvm13MemCpyOptPass12processStoreEPNS_9StoreInstERNS_14ilist_iteratorINS_12ilist_detail12node_optionsINS_11InstructionELb0ELb0EvEELb0ELb0EEE
libLLVM.so.11:_ZN4llvm13MemCpyOptPass13processMemCpyEPNS_10MemCpyInstERNS_14ilist_iteratorINS_12ilist_detail12node_optionsINS_11InstructionELb0ELb0EvEELb0ELb0EEE
libLLVM.so.11:_ZN4llvm13MemCpyOptPass13processMemSetEPNS_10MemSetInstERNS_14ilist_iteratorINS_12ilist_detail12node_optionsINS_11InstructionELb0ELb0EvEELb0ELb0EEE
libLLVM.so.11:_ZN4llvm13MemCpyOptPass14processMemMoveEPNS_11MemMoveInstE
libLLVM.so.11:_ZN4llvm13MemCpyOptPass17iterateOnFunctionERNS_8FunctionE
libLLVM.so.11:_ZN4llvm13MemCpyOptPass20performCallSlotOptznEPNS_11InstructionEPNS_5ValueES4_yNS_5AlignEPNS_8CallInstE
libLLVM.so.11:_ZN4llvm13MemCpyOptPass20processByValArgumentERNS_8CallBaseEj
libLLVM.so.11:_ZN4llvm13MemCpyOptPass20tryMergingIntoMemsetEPNS_11InstructionEPNS_5ValueES4_
libLLVM.so.11:_ZN4llvm13MemCpyOptPass26performMemCpyToMemSetOptznEPNS_10MemCpyInstEPNS_10MemSetInstE
libLLVM.so.11:_ZN4llvm13MemCpyOptPass29processMemCpyMemCpyDependenceEPNS_10MemCpyInstES2_
libLLVM.so.11:_ZN4llvm13MemCpyOptPass29processMemSetMemCpyDependenceEPNS_10MemCpyInstEPNS_10MemSetInstE
libLLVM.so.11:_ZN4llvm13MemCpyOptPass3runERNS_8FunctionERNS_15AnalysisManagerIS1_JEEE
libLLVM.so.11:_ZN4llvm13MemCpyOptPass7runImplERNS_8FunctionEPNS_23MemoryDependenceResultsEPNS_17TargetLibraryInfoESt8functionIFRNS_9AAResultsEvEES7_IFRNS_15AssumptionCacheEvEES7_IFRNS_13DominatorTreeEvEE
libLLVM.so.11:_ZN4llvm13MemorySSAUtil19defClobbersUseOrDefEPNS_9MemoryDefEPKNS_14MemoryUseOrDefERNS_9AAResultsE
libLLVM.so.11:_ZN4llvm13OpenMPOptPass3runERNS_13LazyCallGraph3SCCERNS_15AnalysisManagerIS2_JRS1_EEES5_RNS_17CGSCCUpdateResultE
libLLVM.so.11:_ZN4llvm13PMDataManager12dumpPassInfoEPNS_4PassENS_19PassDebuggingStringES3_NS_9StringRefE
libLLVM.so.11:_ZN4llvm13PMDataManager15getOnTheFlyPassEPNS_4PassEPKvRNS_8FunctionE
libLLVM.so.11:_ZN4llvm13PMDataManager16findAnalysisPassEPKvb
libLLVM.so.11:_ZN4llvm13PMDataManager16removeDeadPassesEPNS_4PassENS_9StringRefENS_19PassDebuggingStringE
libLLVM.so.11:_ZN4llvm13PMDataManager18initSizeRemarkInfoERNS_6ModuleERNS_9StringMapISt4pairIjjENS_15MallocAllocatorEEE
libLLVM.so.11:_ZN4llvm13PMDataManager22initializeAnalysisImplEPNS_4PassE
libLLVM.so.11:_ZN4llvm13PMDataManager23recordAvailableAnalysisEPNS_4PassE
libLLVM.so.11:_ZN4llvm13PMDataManager23verifyPreservedAnalysisEPNS_4PassE
libLLVM.so.11:_ZN4llvm13PMDataManager25addLowerLevelRequiredPassEPNS_4PassES2_
libLLVM.so.11:_ZN4llvm13PMDataManager26removeNotPreservedAnalysisEPNS_4PassE
libLLVM.so.11:_ZN4llvm13PMDataManager27emitInstrCountChangedRemarkEPNS_4PassERNS_6ModuleExjRNS_9StringMapISt4pairIjjENS_15MallocAllocatorEEEPNS_8FunctionE
libLLVM.so.11:_ZN4llvm13PMDataManager27preserveHigherLevelAnalysisEPNS_4PassE
libLLVM.so.11:_ZN4llvm13PMDataManager30collectRequiredAndUsedAnalysesERNS_15SmallVectorImplIPNS_4PassEEERNS1_IPKvEES3_
libLLVM.so.11:_ZN4llvm13PMDataManager3addEPNS_4PassEb
libLLVM.so.11:_ZN4llvm13PMDataManager8freePassEPNS_4PassENS_9StringRefENS_19PassDebuggingStringE
libLLVM.so.11:_ZN4llvm13PMDataManagerD0Ev
libLLVM.so.11:_ZN4llvm13PMDataManagerD1Ev
libLLVM.so.11:_ZN4llvm13PMDataManagerD2Ev
libLLVM.so.11:_ZN4llvm13PredicateInfoC1ERNS_8FunctionERNS_13DominatorTreeERNS_15AssumptionCacheE
libLLVM.so.11:_ZN4llvm13PredicateInfoC2ERNS_8FunctionERNS_13DominatorTreeERNS_15AssumptionCacheE
libLLVM.so.11:_ZN4llvm13PredicateInfoD1Ev
libLLVM.so.11:_ZN4llvm13PredicateInfoD2Ev
libLLVM.so.11:_ZN4llvm13PressureDiffs14addInstructionEjRKNS_16RegisterOperandsERKNS_19MachineRegisterInfoE
libLLVM.so.11:_ZN4llvm13PressureDiffs4initEj
libLLVM.so.11:_ZN4llvm13PrintLoopPass3runERNS_4LoopERNS_15AnalysisManagerIS1_JRNS_27LoopStandardAnalysisResultsEEEES5_RNS_10LPMUpdaterE
libLLVM.so.11:_ZN4llvm13PrintLoopPassC1ERNS_11raw_ostreamERKNSt7__cxx1112basic_stringIcSt11char_traitsIcESaIcEEE
libLLVM.so.11:_ZN4llvm13PrintLoopPassC1Ev
libLLVM.so.11:_ZN4llvm13PrintLoopPassC2ERNS_11raw_ostreamERKNSt7__cxx1112basic_stringIcSt11char_traitsIcESaIcEEE
libLLVM.so.11:_ZN4llvm13PrintLoopPassC2Ev
libLLVM.so.11:_ZN4llvm13RGPassManager13runOnFunctionERNS_8FunctionE
libLLVM.so.11:_ZN4llvm13RGPassManager17dumpPassStructureEj
libLLVM.so.11:_ZN4llvm13RGPassManagerC1Ev
libLLVM.so.11:_ZN4llvm13RGPassManagerC2Ev
libLLVM.so.11:_ZN4llvm13RegBankSelect11MappingCost12addLocalCostEy
libLLVM.so.11:_ZN4llvm13RegBankSelect11MappingCost14ImpossibleCostEv
libLLVM.so.11:_ZN4llvm13RegBankSelect11MappingCost15addNonLocalCostEy
libLLVM.so.11:_ZN4llvm13RegBankSelect11MappingCost8saturateEv
libLLVM.so.11:_ZN4llvm13RegBankSelect11MappingCostC1ERKNS_14BlockFrequencyE
libLLVM.so.11:_ZN4llvm13RegBankSelect11MappingCostC2ERKNS_14BlockFrequencyE
libLLVM.so.11:_ZN4llvm13RegBankSelect11assignInstrERNS_12MachineInstrE
libLLVM.so.11:_ZN4llvm13RegBankSelect12applyMappingERNS_12MachineInstrERKNS_16RegisterBankInfo18InstructionMappingERNS_15SmallVectorImplINS0_18RepairingPlacementEEE
libLLVM.so.11:_ZN4llvm13RegBankSelect14computeMappingERNS_12MachineInstrERKNS_16RegisterBankInfo18InstructionMappingERNS_15SmallVectorImplINS0_18RepairingPlacementEEEPKNS0_11MappingCostE
libLLVM.so.11:_ZN4llvm13RegBankSelect15EdgeInsertPoint11materializeEv
libLLVM.so.11:_ZN4llvm13RegBankSelect15findBestMappingERNS_12MachineInstrERNS_11SmallVectorIPKNS_16RegisterBankInfo18InstructionMappingELj4EEERNS_15SmallVectorImplINS0_18RepairingPlacementEEE
libLLVM.so.11:_ZN4llvm13RegBankSelect16InstrInsertPoint11materializeEv
libLLVM.so.11:_ZN4llvm13RegBankSelect16InstrInsertPointC1ERNS_12MachineInstrEb
libLLVM.so.11:_ZN4llvm13RegBankSelect16InstrInsertPointC2ERNS_12MachineInstrEb
libLLVM.so.11:_ZN4llvm13RegBankSelect18RepairingPlacement14addInsertPointERNS0_11InsertPointE
libLLVM.so.11:_ZN4llvm13RegBankSelect18RepairingPlacement14addInsertPointERNS_12MachineInstrEb
libLLVM.so.11:_ZN4llvm13RegBankSelect18RepairingPlacement14addInsertPointERNS_17MachineBasicBlockES3_
libLLVM.so.11:_ZN4llvm13RegBankSelect18RepairingPlacement14addInsertPointERNS_17MachineBasicBlockEb
libLLVM.so.11:_ZN4llvm13RegBankSelect18RepairingPlacementC1ERNS_12MachineInstrEjRKNS_18TargetRegisterInfoERNS_4PassENS1_13RepairingKindE
libLLVM.so.11:_ZN4llvm13RegBankSelect18RepairingPlacementC2ERNS_12MachineInstrEjRKNS_18TargetRegisterInfoERNS_4PassENS1_13RepairingKindE
libLLVM.so.11:_ZN4llvm13RegBankSelect20runOnMachineFunctionERNS_15MachineFunctionE
libLLVM.so.11:_ZN4llvm13RegBankSelect4initERNS_15MachineFunctionE
libLLVM.so.11:_ZN4llvm13RegBankSelect9repairRegERNS_14MachineOperandERKNS_16RegisterBankInfo12ValueMappingERNS0_18RepairingPlacementERKNS_14iterator_rangeIPKNS_8RegisterEEE
libLLVM.so.11:_ZN4llvm13RegBankSelectC1ENS0_4ModeE
libLLVM.so.11:_ZN4llvm13RegBankSelectC2ENS0_4ModeE
libLLVM.so.11:_ZN4llvm13SCEVPredicateC2ENS_19FoldingSetNodeIDRefENS0_17SCEVPredicateKindE
libLLVM.so.11:_ZN4llvm13ScaledNumbers10multiply64Eyy
libLLVM.so.11:_ZN4llvm13ScaledNumbers11compareImplEyyi
libLLVM.so.11:_ZN4llvm13ScaledNumbers8divide32Ejj
libLLVM.so.11:_ZN4llvm13ScaledNumbers8divide64Eyy
libLLVM.so.11:_ZN4llvm13SchedBoundary11checkHazardEPNS_5SUnitE
libLLVM.so.11:_ZN4llvm13SchedBoundary11releaseNodeEPNS_5SUnitEjbj
libLLVM.so.11:_ZN4llvm13SchedBoundary11removeReadyEPNS_5SUnitE
libLLVM.so.11:_ZN4llvm13SchedBoundary13countResourceEjjj
libLLVM.so.11:_ZN4llvm13SchedBoundary14findMaxLatencyENS_8ArrayRefIPNS_5SUnitEEE
libLLVM.so.11:_ZN4llvm13SchedBoundary14pickOnlyChoiceEv
libLLVM.so.11:_ZN4llvm13SchedBoundary14releasePendingEv
libLLVM.so.11:_ZN4llvm13SchedBoundary20getNextResourceCycleEjj
libLLVM.so.11:_ZN4llvm13SchedBoundary20incExecutedResourcesEjj
libLLVM.so.11:_ZN4llvm13SchedBoundary21getLatencyStallCyclesEPNS_5SUnitE
libLLVM.so.11:_ZN4llvm13SchedBoundary21getOtherResourceCountERj
libLLVM.so.11:_ZN4llvm13SchedBoundary30getNextResourceCycleByInstanceEjj
libLLVM.so.11:_ZN4llvm13SchedBoundary4initEPNS_13ScheduleDAGMIEPKNS_16TargetSchedModelEPNS_14SchedRemainderE
libLLVM.so.11:_ZN4llvm13SchedBoundary5resetEv
libLLVM.so.11:_ZN4llvm13SchedBoundary8bumpNodeEPNS_5SUnitE
libLLVM.so.11:_ZN4llvm13SchedBoundary9bumpCycleEj
libLLVM.so.11:_ZN4llvm13SchedBoundaryD1Ev
libLLVM.so.11:_ZN4llvm13SchedBoundaryD2Ev
libLLVM.so.11:_ZN4llvm13ScheduleDAGMI10initQueuesENS_8ArrayRefIPNS_5SUnitEEES4_
libLLVM.so.11:_ZN4llvm13ScheduleDAGMI10startBlockEPNS_17MachineBasicBlockE
libLLVM.so.11:_ZN4llvm13ScheduleDAGMI11enterRegionEPNS_17MachineBasicBlockENS_26MachineInstrBundleIteratorINS_12MachineInstrELb0EEES5_j
libLLVM.so.11:_ZN4llvm13ScheduleDAGMI11finishBlockEv
libLLVM.so.11:_ZN4llvm13ScheduleDAGMI11releasePredEPNS_5SUnitEPNS_4SDepE
libLLVM.so.11:_ZN4llvm13ScheduleDAGMI11releaseSuccEPNS_5SUnitEPNS_4SDepE
libLLVM.so.11:_ZN4llvm13ScheduleDAGMI12updateQueuesEPNS_5SUnitEb
libLLVM.so.11:_ZN4llvm13ScheduleDAGMI14postprocessDAGEv
libLLVM.so.11:_ZN4llvm13ScheduleDAGMI15checkSchedLimitEv
libLLVM.so.11:_ZN4llvm13ScheduleDAGMI15moveInstructionEPNS_12MachineInstrENS_26MachineInstrBundleIteratorIS1_Lb0EEE
libLLVM.so.11:_ZN4llvm13ScheduleDAGMI16placeDebugValuesEv
libLLVM.so.11:_ZN4llvm13ScheduleDAGMI17releaseSuccessorsEPNS_5SUnitE
libLLVM.so.11:_ZN4llvm13ScheduleDAGMI19releasePredecessorsEPNS_5SUnitE
libLLVM.so.11:_ZN4llvm13ScheduleDAGMI21findRootsAndBiasEdgesERNS_15SmallVectorImplIPNS_5SUnitEEES5_
libLLVM.so.11:_ZN4llvm13ScheduleDAGMI8scheduleEv
libLLVM.so.11:_ZN4llvm13ScheduleDAGMI9viewGraphERKNS_5TwineES3_
libLLVM.so.11:_ZN4llvm13ScheduleDAGMI9viewGraphEv
libLLVM.so.11:_ZN4llvm13ScheduleDAGMID0Ev
libLLVM.so.11:_ZN4llvm13ScheduleDAGMID1Ev
libLLVM.so.11:_ZN4llvm13ScheduleDAGMID2Ev
libLLVM.so.11:_ZN4llvm13ScopedPrinter15printBinaryImplENS_9StringRefES1_NS_8ArrayRefIhEEbj
libLLVM.so.11:_ZN4llvm13SimpleDDGNodeC1EOS0_
libLLVM.so.11:_ZN4llvm13SimpleDDGNodeC1ERKS0_
libLLVM.so.11:_ZN4llvm13SimpleDDGNodeC1ERNS_11InstructionE
libLLVM.so.11:_ZN4llvm13SimpleDDGNodeC2EOS0_
libLLVM.so.11:_ZN4llvm13SimpleDDGNodeC2ERKS0_
libLLVM.so.11:_ZN4llvm13SimpleDDGNodeC2ERNS_11InstructionE
libLLVM.so.11:_ZN4llvm13SimpleDDGNodeD0Ev
libLLVM.so.11:_ZN4llvm13SimpleDDGNodeD1Ev
libLLVM.so.11:_ZN4llvm13SimpleDDGNodeD2Ev
libLLVM.so.11:_ZN4llvm13SimplifyBinOpEjPNS_5ValueES1_NS_13FastMathFlagsERKNS_13SimplifyQueryE
libLLVM.so.11:_ZN4llvm13SimplifyBinOpEjPNS_5ValueES1_RKNS_13SimplifyQueryE
libLLVM.so.11:_ZN4llvm13StackLifetime14collectMarkersEv
libLLVM.so.11:_ZN4llvm13StackLifetime22calculateLiveIntervalsEv
libLLVM.so.11:_ZN4llvm13StackLifetime22calculateLocalLivenessEv
libLLVM.so.11:_ZN4llvm13StackLifetime3runEv
libLLVM.so.11:_ZN4llvm13StackLifetime5printERNS_11raw_ostreamE
libLLVM.so.11:_ZN4llvm13StackLifetimeC1ERKNS_8FunctionENS_8ArrayRefIPKNS_10AllocaInstEEENS0_12LivenessTypeE
libLLVM.so.11:_ZN4llvm13StackLifetimeC2ERKNS_8FunctionENS_8ArrayRefIPKNS_10AllocaInstEEENS0_12LivenessTypeE
libLLVM.so.11:_ZN4llvm13StackMapOpersC1EPKNS_12MachineInstrE
libLLVM.so.11:_ZN4llvm13StackMapOpersC2EPKNS_12MachineInstrE
libLLVM.so.11:_ZN4llvm13StringMapImpl11RehashTableEj
libLLVM.so.11:_ZN4llvm13StringMapImpl15LookupBucketForENS_9StringRefE
libLLVM.so.11:_ZN4llvm13StringMapImpl4initEj
libLLVM.so.11:_ZN4llvm13StringMapImpl9RemoveKeyENS_9StringRefE
libLLVM.so.11:_ZN4llvm13StringMapImpl9RemoveKeyEPNS_18StringMapEntryBaseE
libLLVM.so.11:_ZN4llvm13StringMapImplC1Ejj
libLLVM.so.11:_ZN4llvm13StringMapImplC2Ejj
libLLVM.so.11:_ZN4llvm13TargetMachine11setOptLevelENS_10CodeGenOpt5LevelE
libLLVM.so.11:_ZN4llvm13TargetMachine19getTargetIRAnalysisEv
libLLVM.so.11:_ZN4llvm13TargetMachine22getTargetTransformInfoERKNS_8FunctionE
libLLVM.so.11:_ZN4llvm13TargetMachineC1ERKNS_6TargetENS_9StringRefERKNS_6TripleES4_S4_RKNS_13TargetOptionsE
libLLVM.so.11:_ZN4llvm13TargetMachineC2ERKNS_6TargetENS_9StringRefERKNS_6TripleES4_S4_RKNS_13TargetOptionsE
libLLVM.so.11:_ZN4llvm13TargetMachineD0Ev
libLLVM.so.11:_ZN4llvm13TargetMachineD1Ev
libLLVM.so.11:_ZN4llvm13TargetMachineD2Ev
libLLVM.so.11:_ZN4llvm13UnaryOperator6CreateENS_11Instruction8UnaryOpsEPNS_5ValueERKNS_5TwineEPNS_10BasicBlockE
libLLVM.so.11:_ZN4llvm13UnaryOperator6CreateENS_11Instruction8UnaryOpsEPNS_5ValueERKNS_5TwineEPS1_
libLLVM.so.11:_ZN4llvm13UnaryOperator8AssertOKEv
libLLVM.so.11:_ZN4llvm13UnaryOperatorC1ENS_11Instruction8UnaryOpsEPNS_5ValueEPNS_4TypeERKNS_5TwineEPNS_10BasicBlockE
libLLVM.so.11:_ZN4llvm13UnaryOperatorC1ENS_11Instruction8UnaryOpsEPNS_5ValueEPNS_4TypeERKNS_5TwineEPS1_
libLLVM.so.11:_ZN4llvm13UnaryOperatorC2ENS_11Instruction8UnaryOpsEPNS_5ValueEPNS_4TypeERKNS_5TwineEPNS_10BasicBlockE
libLLVM.so.11:_ZN4llvm13UnaryOperatorC2ENS_11Instruction8UnaryOpsEPNS_5ValueEPNS_4TypeERKNS_5TwineEPS1_
libLLVM.so.11:_ZN4llvm13VPBlendRecipe7executeERNS_16VPTransformStateE
libLLVM.so.11:_ZN4llvm13VPInstruction19generateInstructionERNS_16VPTransformStateEj
libLLVM.so.11:_ZN4llvm13VPInstruction7executeERNS_16VPTransformStateE
libLLVM.so.11:_ZN4llvm13VPRegionBlock7executeEPNS_16VPTransformStateE
libLLVM.so.11:_ZN4llvm13VPSlotTracker10assignSlotEPKNS_7VPValueE
libLLVM.so.11:_ZN4llvm13VPSlotTracker11assignSlotsEPKNS_11VPBlockBaseE
libLLVM.so.11:_ZN4llvm13VPSlotTracker11assignSlotsEPKNS_12VPBasicBlockE
libLLVM.so.11:_ZN4llvm13VPSlotTracker11assignSlotsEPKNS_13VPRegionBlockE
libLLVM.so.11:_ZN4llvm13VPSlotTracker11assignSlotsERKNS_5VPlanE
libLLVM.so.11:_ZN4llvm13VPWidenRecipe7executeERNS_16VPTransformStateE
libLLVM.so.11:_ZN4llvm13ValueProfData13deserializeToERNS_15InstrProfRecordEPNS_15InstrProfSymtabE
libLLVM.so.11:_ZN4llvm13ValueProfData13serializeFromERKNS_15InstrProfRecordE
libLLVM.so.11:_ZN4llvm13ValueProfData14checkIntegrityEv
libLLVM.so.11:_ZN4llvm13ValueProfData15swapBytesToHostENS_7support10endiannessE
libLLVM.so.11:_ZN4llvm13ValueProfData16getValueProfDataEPKhS2_NS_7support10endiannessE
libLLVM.so.11:_ZN4llvm13ValueProfData17swapBytesFromHostENS_7support10endiannessE
libLLVM.so.11:_ZN4llvm13ValueProfData7getSizeERKNS_15InstrProfRecordE
libLLVM.so.11:_ZN4llvm13WinEHFuncInfo17addIPToStateRangeEPKNS_10InvokeInstEPNS_8MCSymbolES5_
libLLVM.so.11:_ZN4llvm13WinEHFuncInfoC1Ev
libLLVM.so.11:_ZN4llvm13WinEHFuncInfoC2Ev
libLLVM.so.11:_ZN4llvm13canReplaceRegENS_8RegisterES0_RNS_19MachineRegisterInfoE
libLLVM.so.11:_ZN4llvm13collectCmpOpsEPNS_7CmpInstERNS_15SmallVectorImplIPNS_5ValueEEE
libLLVM.so.11:_ZN4llvm13createGVNPassEb
libLLVM.so.11:_ZN4llvm13createLAAPassEv
libLLVM.so.11:_ZN4llvm13createLibcallERNS_16MachineIRBuilderENS_5RTLIB7LibcallERKNS_12CallLowering7ArgInfoENS_8ArrayRefIS5_EE
libLLVM.so.11:_ZN4llvm13createLibcallERNS_16MachineIRBuilderEPKcRKNS_12CallLowering7ArgInfoENS_8ArrayRefIS5_EEj
libLLVM.so.11:_ZN4llvm13emitMemCpyChkEPNS_5ValueES1_S1_S1_RNS_13IRBuilderBaseERKNS_10DataLayoutEPKNS_17TargetLibraryInfoE
libLLVM.so.11:_ZN4llvm13emitVSNPrintfEPNS_5ValueES1_S1_S1_RNS_13IRBuilderBaseEPKNS_17TargetLibraryInfoE
libLLVM.so.11:_ZN4llvm13findDbgValuesERNS_15SmallVectorImplIPNS_12DbgValueInstEEEPNS_5ValueE
libLLVM.so.11:_ZN4llvm13getInlineCostERNS_8CallBaseEPNS_8FunctionERKNS_12InlineParamsERNS_19TargetTransformInfoENS_12function_refIFRNS_15AssumptionCacheERS2_EEENS9_IFRKNS_17TargetLibraryInfoESC_EEENS9_IFRNS_18BlockFrequencyInfoESC_EEEPNS_18ProfileSummaryInfoEPNS_25OptimizationRemarkEmitterE
libLLVM.so.11:_ZN4llvm13getInlineCostERNS_8CallBaseERKNS_12InlineParamsERNS_19TargetTransformInfoENS_12function_refIFRNS_15AssumptionCacheERNS_8FunctionEEEENS7_IFRKNS_17TargetLibraryInfoESB_EEENS7_IFRNS_18BlockFrequencyInfoESB_EEEPNS_18ProfileSummaryInfoEPNS_25OptimizationRemarkEmitterE
libLLVM.so.11:_ZN4llvm13getLLTForTypeERNS_4TypeERKNS_10DataLayoutE
libLLVM.so.11:_ZN4llvm13getMallocTypeEPKNS_8CallInstEPKNS_17TargetLibraryInfoE
libLLVM.so.11:_ZN4llvm13getMinMaxPredENS_19SelectPatternFlavorEb
libLLVM.so.11:_ZN4llvm13getNumOfCallsERNS_8FunctionES1_
libLLVM.so.11:_ZN4llvm13getObjectSizeEPKNS_5ValueERyRKNS_10DataLayoutEPKNS_17TargetLibraryInfoENS_14ObjectSizeOptsE
libLLVM.so.11:_ZN4llvm13getSplatIndexENS_8ArrayRefIiEE
libLLVM.so.11:_ZN4llvm13getSplatValueEPKNS_5ValueE
libLLVM.so.11:_ZN4llvm13initializeIPOERNS_12PassRegistryE
libLLVM.so.11:_ZN4llvm13inlineCostStrB5cxx11ERKNS_10InlineCostE
libLLVM.so.11:_ZN4llvm13isAllocLikeFnEPKNS_5ValueEPKNS_17TargetLibraryInfoEb
libLLVM.so.11:_ZN4llvm13isNoAliasCallEPKNS_5ValueE
libLLVM.so.11:_ZN4llvm13isOneConstantENS_7SDValueE
libLLVM.so.11:_ZN4llvm13isOpNewLikeFnEPKNS_5ValueEPKNS_17TargetLibraryInfoEb
libLLVM.so.11:_ZN4llvm13jitLinkForORCENS_6object12OwningBinaryINS0_10ObjectFileEEERNS_11RuntimeDyld13MemoryManagerERNS_17JITSymbolResolverEbNS_15unique_functionIFNS_5ErrorERKS2_St10unique_ptrINS4_16LoadedObjectInfoESt14default_deleteISE_EESt3mapINS_9StringRefENS_18JITEvaluatedSymbolESt4lessISJ_ESaISt4pairIKSJ_SK_EEEEEENS9_IFvS3_SA_EEE
libLLVM.so.11:_ZN4llvm13libDriverMainENS_8ArrayRefIPKcEE
libLLVM.so.11:_ZN4llvm13line_iterator7advanceEv
libLLVM.so.11:_ZN4llvm13line_iteratorC1ERKNS_12MemoryBufferEbc
libLLVM.so.11:_ZN4llvm13line_iteratorC2ERKNS_12MemoryBufferEbc
libLLVM.so.11:_ZN4llvm13llvm_shutdownEv
libLLVM.so.11:_ZN4llvm13mustTriggerUBEPKNS_11InstructionERKNS_8SmallSetIPKNS_5ValueELj16ESt4lessIS6_EEE
libLLVM.so.11:_ZN4llvm13parseAssemblyENS_15MemoryBufferRefERNS_12SMDiagnosticERNS_11LLVMContextEPNS_11SlotMappingENS_12function_refIFNS_8OptionalINSt7__cxx1112basic_stringIcSt11char_traitsIcESaIcEEEEENS_9StringRefEEEE
libLLVM.so.11:_ZN4llvm13readWideAPIntENS_8ArrayRefIyEEj
libLLVM.so.11:_ZN4llvm13slpvectorizer7BoUpSLP11getTreeCostEv
libLLVM.so.11:_ZN4llvm13slpvectorizer7BoUpSLP12getEntryCostEPNS1_9TreeEntryE
libLLVM.so.11:_ZN4llvm13slpvectorizer7BoUpSLP13buildTree_recENS_8ArrayRefIPNS_5ValueEEEjRKNS1_8EdgeInfoE
libLLVM.so.11:_ZN4llvm13slpvectorizer7BoUpSLP13scheduleBlockEPNS1_15BlockSchedulingE
libLLVM.so.11:_ZN4llvm13slpvectorizer7BoUpSLP13vectorizeTreeENS_8ArrayRefIPNS_5ValueEEE
libLLVM.so.11:_ZN4llvm13slpvectorizer7BoUpSLP13vectorizeTreeEPNS1_9TreeEntryE
libLLVM.so.11:_ZN4llvm13slpvectorizer7BoUpSLP13vectorizeTreeERNS_9MapVectorIPNS_5ValueENS_11SmallVectorIPNS_11InstructionELj2EEENS_8DenseMapIS4_jNS_12DenseMapInfoIS4_EENS_6detail12DenseMapPairIS4_jEEEESt6vectorISt4pairIS4_S8_ESaISI_EEEE
libLLVM.so.11:_ZN4llvm13slpvectorizer7BoUpSLP13vectorizeTreeEv
libLLVM.so.11:_ZN4llvm13slpvectorizer7BoUpSLP15BlockScheduling13resetScheduleEv
libLLVM.so.11:_ZN4llvm13slpvectorizer7BoUpSLP15BlockScheduling16cancelSchedulingENS_8ArrayRefIPNS_5ValueEEES5_
libLLVM.so.11:_ZN4llvm13slpvectorizer7BoUpSLP15BlockScheduling16initScheduleDataEPNS_11InstructionES4_PNS1_12ScheduleDataES6_
libLLVM.so.11:_ZN4llvm13slpvectorizer7BoUpSLP15BlockScheduling21calculateDependenciesEPNS1_12ScheduleDataEbPS1_
libLLVM.so.11:_ZN4llvm13slpvectorizer7BoUpSLP15BlockScheduling26allocateScheduleDataChunksEv
libLLVM.so.11:_ZN4llvm13slpvectorizer7BoUpSLP17eraseInstructionsENS_8ArrayRefIPNS_5ValueEEE
libLLVM.so.11:_ZN4llvm13slpvectorizer7BoUpSLP20getVectorElementSizeEPNS_5ValueE
libLLVM.so.11:_ZN4llvm13slpvectorizer7BoUpSLP22optimizeGatherSequenceEv
libLLVM.so.11:_ZN4llvm13slpvectorizer7BoUpSLP24computeMinimumValueSizesEv
libLLVM.so.11:_ZN4llvm13slpvectorizer7BoUpSLP25setInsertPointAfterBundleEPNS1_9TreeEntryE
libLLVM.so.11:_ZN4llvm13slpvectorizer7BoUpSLP30reorderInputsAccordingToOpcodeENS_8ArrayRefIPNS_5ValueEEERNS_15SmallVectorImplIS4_EES8_RKNS_10DataLayoutERNS_15ScalarEvolutionERKS1_
libLLVM.so.11:_ZN4llvm13slpvectorizer7BoUpSLP6GatherENS_8ArrayRefIPNS_5ValueEEEPNS_10VectorTypeE
libLLVM.so.11:_ZN4llvm13slpvectorizer7BoUpSLP9buildTreeENS_8ArrayRefIPNS_5ValueEEERNS_9MapVectorIS4_NS_11SmallVectorIPNS_11InstructionELj2EEENS_8DenseMapIS4_jNS_12DenseMapInfoIS4_EENS_6detail12DenseMapPairIS4_jEEEESt6vectorISt4pairIS4_SA_ESaISK_EEEES5_
libLLVM.so.11:_ZN4llvm13slpvectorizer7BoUpSLP9buildTreeENS_8ArrayRefIPNS_5ValueEEES5_
libLLVM.so.11:_ZN4llvm13slpvectorizer7BoUpSLPD1Ev
libLLVM.so.11:_ZN4llvm13slpvectorizer7BoUpSLPD2Ev
libLLVM.so.11:_ZN4llvm13write_integerERNS_11raw_ostreamEijNS_12IntegerStyleE
libLLVM.so.11:_ZN4llvm13write_integerERNS_11raw_ostreamEjjNS_12IntegerStyleE
libLLVM.so.11:_ZN4llvm13write_integerERNS_11raw_ostreamEljNS_12IntegerStyleE
libLLVM.so.11:_ZN4llvm13write_integerERNS_11raw_ostreamEmjNS_12IntegerStyleE
libLLVM.so.11:_ZN4llvm13write_integerERNS_11raw_ostreamExjNS_12IntegerStyleE
libLLVM.so.11:_ZN4llvm13write_integerERNS_11raw_ostreamEyjNS_12IntegerStyleE
libLLVM.so.11:_ZN4llvm14AAReachability17createForPositionERKNS_10IRPositionERNS_10AttributorE
libLLVM.so.11:_ZN4llvm14AccelTableBase18computeBucketCountEv
libLLVM.so.11:_ZN4llvm14AccelTableBase8finalizeEPNS_10AsmPrinterENS_9StringRefE
libLLVM.so.11:_ZN4llvm14AntiDepBreakerD0Ev
libLLVM.so.11:_ZN4llvm14AntiDepBreakerD1Ev
libLLVM.so.11:_ZN4llvm14AntiDepBreakerD2Ev
libLLVM.so.11:_ZN4llvm14AttributeFuncs16typeIncompatibleEPNS_4TypeE
libLLVM.so.11:_ZN4llvm14AttributeFuncs19areInlineCompatibleERKNS_8FunctionES3_
libLLVM.so.11:_ZN4llvm14AttributeFuncs26mergeAttributesForInliningERNS_8FunctionERKS1_
libLLVM.so.11:_ZN4llvm14AttributorPass3runERNS_6ModuleERNS_15AnalysisManagerIS1_JEEE
libLLVM.so.11:_ZN4llvm14BinaryOperator12CreateNSWNegEPNS_5ValueERKNS_5TwineEPNS_10BasicBlockE
libLLVM.so.11:_ZN4llvm14BinaryOperator12CreateNSWNegEPNS_5ValueERKNS_5TwineEPNS_11InstructionE
libLLVM.so.11:_ZN4llvm14BinaryOperator12CreateNUWNegEPNS_5ValueERKNS_5TwineEPNS_10BasicBlockE
libLLVM.so.11:_ZN4llvm14BinaryOperator12CreateNUWNegEPNS_5ValueERKNS_5TwineEPNS_11InstructionE
libLLVM.so.11:_ZN4llvm14BinaryOperator12swapOperandsEv
libLLVM.so.11:_ZN4llvm14BinaryOperator6CreateENS_11Instruction9BinaryOpsEPNS_5ValueES4_RKNS_5TwineEPNS_10BasicBlockE
libLLVM.so.11:_ZN4llvm14BinaryOperator6CreateENS_11Instruction9BinaryOpsEPNS_5ValueES4_RKNS_5TwineEPS1_
libLLVM.so.11:_ZN4llvm14BinaryOperator8AssertOKEv
libLLVM.so.11:_ZN4llvm14BinaryOperator9CreateNegEPNS_5ValueERKNS_5TwineEPNS_10BasicBlockE
libLLVM.so.11:_ZN4llvm14BinaryOperator9CreateNegEPNS_5ValueERKNS_5TwineEPNS_11InstructionE
libLLVM.so.11:_ZN4llvm14BinaryOperator9CreateNotEPNS_5ValueERKNS_5TwineEPNS_10BasicBlockE
libLLVM.so.11:_ZN4llvm14BinaryOperator9CreateNotEPNS_5ValueERKNS_5TwineEPNS_11InstructionE
libLLVM.so.11:_ZN4llvm14BinaryOperatorC1ENS_11Instruction9BinaryOpsEPNS_5ValueES4_PNS_4TypeERKNS_5TwineEPNS_10BasicBlockE
libLLVM.so.11:_ZN4llvm14BinaryOperatorC1ENS_11Instruction9BinaryOpsEPNS_5ValueES4_PNS_4TypeERKNS_5TwineEPS1_
libLLVM.so.11:_ZN4llvm14BinaryOperatorC2ENS_11Instruction9BinaryOpsEPNS_5ValueES4_PNS_4TypeERKNS_5TwineEPNS_10BasicBlockE
libLLVM.so.11:_ZN4llvm14BinaryOperatorC2ENS_11Instruction9BinaryOpsEPNS_5ValueES4_PNS_4TypeERKNS_5TwineEPS1_
libLLVM.so.11:_ZN4llvm14BlockFrequencydVENS_17BranchProbabilityE
libLLVM.so.11:_ZN4llvm14BlockFrequencymIES0_
libLLVM.so.11:_ZN4llvm14BlockFrequencymLENS_17BranchProbabilityE
libLLVM.so.11:_ZN4llvm14BlockFrequencypLES0_
libLLVM.so.11:_ZN4llvm14BlockFrequencyrSEj
libLLVM.so.11:_ZN4llvm14BreakFalseDeps11processDefsEPNS_12MachineInstrE
libLLVM.so.11:_ZN4llvm14BreakFalseDeps17processBasicBlockEPNS_17MachineBasicBlockE
libLLVM.so.11:_ZN4llvm14BreakFalseDeps17processUndefReadsEPNS_17MachineBasicBlockE
libLLVM.so.11:_ZN4llvm14BreakFalseDeps20runOnMachineFunctionERNS_15MachineFunctionE
libLLVM.so.11:_ZN4llvm14BreakFalseDeps21shouldBreakDependenceEPNS_12MachineInstrEjj
libLLVM.so.11:_ZN4llvm14BreakFalseDeps24pickBestRegisterForUndefEPNS_12MachineInstrEjj
libLLVM.so.11:_ZN4llvm14CFGPrinterPass3runERNS_8FunctionERNS_15AnalysisManagerIS1_JEEE
libLLVM.so.11:_ZN4llvm14CaptureTracker13shouldExploreEPKNS_3UseE
libLLVM.so.11:_ZN4llvm14CaptureTracker23isDereferenceableOrNullEPNS_5ValueERKNS_10DataLayoutE
libLLVM.so.11:_ZN4llvm14CaptureTrackerD0Ev
libLLVM.so.11:_ZN4llvm14CaptureTrackerD1Ev
libLLVM.so.11:_ZN4llvm14CaptureTrackerD2Ev
libLLVM.so.11:_ZN4llvm14CombinerHelper10tryCombineERNS_12MachineInstrE
libLLVM.so.11:_ZN4llvm14CombinerHelper13isPredecessorERKNS_12MachineInstrES3_
libLLVM.so.11:_ZN4llvm14CombinerHelper14matchEqualDefsERKNS_14MachineOperandES3_
libLLVM.so.11:_ZN4llvm14CombinerHelper14optimizeMemcpyERNS_12MachineInstrENS_8RegisterES3_jNS_5AlignES4_b
libLLVM.so.11:_ZN4llvm14CombinerHelper14optimizeMemsetERNS_12MachineInstrENS_8RegisterES3_jNS_5AlignEb
libLLVM.so.11:_ZN4llvm14CombinerHelper14tryCombineCopyERNS_12MachineInstrE
libLLVM.so.11:_ZN4llvm14CombinerHelper15matchConstantOpERKNS_14MachineOperandEx
libLLVM.so.11:_ZN4llvm14CombinerHelper15matchUndefStoreERNS_12MachineInstrE
libLLVM.so.11:_ZN4llvm14CombinerHelper15optimizeMemmoveERNS_12MachineInstrENS_8RegisterES3_jNS_5AlignES4_b
libLLVM.so.11:_ZN4llvm14CombinerHelper16applyCombineCopyERNS_12MachineInstrE
libLLVM.so.11:_ZN4llvm14CombinerHelper16matchCombineCopyERNS_12MachineInstrE
libLLVM.so.11:_ZN4llvm14CombinerHelper17matchBinOpSameValERNS_12MachineInstrE
libLLVM.so.11:_ZN4llvm14CombinerHelper18matchOperandIsZeroERNS_12MachineInstrEj
libLLVM.so.11:_ZN4llvm14CombinerHelper18matchSelectSameValERNS_12MachineInstrE
libLLVM.so.11:_ZN4llvm14CombinerHelper20applyCombineMulToShlERNS_12MachineInstrERj
libLLVM.so.11:_ZN4llvm14CombinerHelper20matchCombineMulToShlERNS_12MachineInstrERj
libLLVM.so.11:_ZN4llvm14CombinerHelper20replaceInstWithUndefERNS_12MachineInstrE
libLLVM.so.11:_ZN4llvm14CombinerHelper21applyPtrAddImmedChainERNS_12MachineInstrERNS_11PtrAddChainE
libLLVM.so.11:_ZN4llvm14CombinerHelper21applySimplifyAddToSubERNS_12MachineInstrERSt5tupleIJNS_8RegisterES4_EE
libLLVM.so.11:_ZN4llvm14CombinerHelper21findPreIndexCandidateERNS_12MachineInstrERNS_8RegisterES4_S4_
libLLVM.so.11:_ZN4llvm14CombinerHelper21matchPtrAddImmedChainERNS_12MachineInstrERNS_11PtrAddChainE
libLLVM.so.11:_ZN4llvm14CombinerHelper21matchSimplifyAddToSubERNS_12MachineInstrERSt5tupleIJNS_8RegisterES4_EE
libLLVM.so.11:_ZN4llvm14CombinerHelper22findPostIndexCandidateERNS_12MachineInstrERNS_8RegisterES4_S4_
libLLVM.so.11:_ZN4llvm14CombinerHelper22tryCombineMemCpyFamilyERNS_12MachineInstrEj
libLLVM.so.11:_ZN4llvm14CombinerHelper23replaceInstWithConstantERNS_12MachineInstrEx
libLLVM.so.11:_ZN4llvm14CombinerHelper23tryCombineConcatVectorsERNS_12MachineInstrE
libLLVM.so.11:_ZN4llvm14CombinerHelper23tryCombineShuffleVectorERNS_12MachineInstrE
libLLVM.so.11:_ZN4llvm14CombinerHelper24applySextAlreadyExtendedERNS_12MachineInstrE
libLLVM.so.11:_ZN4llvm14CombinerHelper24matchSextAlreadyExtendedERNS_12MachineInstrE
libLLVM.so.11:_ZN4llvm14CombinerHelper24replaceInstWithFConstantERNS_12MachineInstrEd
libLLVM.so.11:_ZN4llvm14CombinerHelper24tryCombineExtendingLoadsERNS_12MachineInstrE
libLLVM.so.11:_ZN4llvm14CombinerHelper24tryCombineShiftToUnmergeERNS_12MachineInstrEj
libLLVM.so.11:_ZN4llvm14CombinerHelper25applyCombineConcatVectorsERNS_12MachineInstrEbNS_8ArrayRefINS_8RegisterEEE
libLLVM.so.11:_ZN4llvm14CombinerHelper25applyCombineShuffleVectorERNS_12MachineInstrENS_8ArrayRefINS_8RegisterEEE
libLLVM.so.11:_ZN4llvm14CombinerHelper25matchCombineConcatVectorsERNS_12MachineInstrERbRNS_15SmallVectorImplINS_8RegisterEEE
libLLVM.so.11:_ZN4llvm14CombinerHelper25matchCombineShuffleVectorERNS_12MachineInstrERNS_15SmallVectorImplINS_8RegisterEEE
libLLVM.so.11:_ZN4llvm14CombinerHelper25tryElideBrByInvertingCondERNS_12MachineInstrE
libLLVM.so.11:_ZN4llvm14CombinerHelper26applyCombineExtendingLoadsERNS_12MachineInstrERNS_14PreferredTupleE
libLLVM.so.11:_ZN4llvm14CombinerHelper26applyCombineShiftToUnmergeERNS_12MachineInstrERKj
libLLVM.so.11:_ZN4llvm14CombinerHelper26matchAnyExplicitUseIsUndefERNS_12MachineInstrE
libLLVM.so.11:_ZN4llvm14CombinerHelper26matchCombineExtendingLoadsERNS_12MachineInstrERNS_14PreferredTupleE
libLLVM.so.11:_ZN4llvm14CombinerHelper26matchCombineShiftToUnmergeERNS_12MachineInstrEjRj
libLLVM.so.11:_ZN4llvm14CombinerHelper26tryCombineIndexedLoadStoreERNS_12MachineInstrE
libLLVM.so.11:_ZN4llvm14CombinerHelper27applyElideBrByInvertingCondERNS_12MachineInstrE
libLLVM.so.11:_ZN4llvm14CombinerHelper27matchElideBrByInvertingCondERNS_12MachineInstrE
libLLVM.so.11:_ZN4llvm14CombinerHelper27matchUndefShuffleVectorMaskERNS_12MachineInstrE
libLLVM.so.11:_ZN4llvm14CombinerHelper28applyCombineIndexedLoadStoreERNS_12MachineInstrERNS_25IndexedLoadStoreMatchInfoE
libLLVM.so.11:_ZN4llvm14CombinerHelper28matchAllExplicitUsesAreUndefERNS_12MachineInstrE
libLLVM.so.11:_ZN4llvm14CombinerHelper28matchCombineIndexedLoadStoreERNS_12MachineInstrERNS_25IndexedLoadStoreMatchInfoE
libLLVM.so.11:_ZN4llvm14CombinerHelper31replaceSingleDefInstWithOperandERNS_12MachineInstrEj
libLLVM.so.11:_ZN4llvm14CombinerHelper9dominatesERKNS_12MachineInstrES3_
libLLVM.so.11:_ZN4llvm14CombinerHelper9eraseInstERNS_12MachineInstrE
libLLVM.so.11:_ZN4llvm14CombinerHelperC1ERNS_19GISelChangeObserverERNS_16MachineIRBuilderEPNS_14GISelKnownBitsEPNS_20MachineDominatorTreeEPKNS_13LegalizerInfoE
libLLVM.so.11:_ZN4llvm14CombinerHelperC2ERNS_19GISelChangeObserverERNS_16MachineIRBuilderEPNS_14GISelKnownBitsEPNS_20MachineDominatorTreeEPKNS_13LegalizerInfoE
libLLVM.so.11:_ZN4llvm14ConstantFolder6anchorEv
libLLVM.so.11:_ZN4llvm14ConstantStruct18getTypeForElementsENS_8ArrayRefIPNS_8ConstantEEEb
libLLVM.so.11:_ZN4llvm14ConstantStruct18getTypeForElementsERNS_11LLVMContextENS_8ArrayRefIPNS_8ConstantEEEb
libLLVM.so.11:_ZN4llvm14ConstantStruct19destroyConstantImplEv
libLLVM.so.11:_ZN4llvm14ConstantStruct23handleOperandChangeImplEPNS_5ValueES2_
libLLVM.so.11:_ZN4llvm14ConstantStruct3getEPNS_10StructTypeENS_8ArrayRefIPNS_8ConstantEEE
libLLVM.so.11:_ZN4llvm14ConstantStructC1EPNS_10StructTypeENS_8ArrayRefIPNS_8ConstantEEE
libLLVM.so.11:_ZN4llvm14ConstantStructC2EPNS_10StructTypeENS_8ArrayRefIPNS_8ConstantEEE
libLLVM.so.11:_ZN4llvm14ConstantVector19destroyConstantImplEv
libLLVM.so.11:_ZN4llvm14ConstantVector23handleOperandChangeImplEPNS_5ValueES2_
libLLVM.so.11:_ZN4llvm14ConstantVector3getENS_8ArrayRefIPNS_8ConstantEEE
libLLVM.so.11:_ZN4llvm14ConstantVector7getImplENS_8ArrayRefIPNS_8ConstantEEE
libLLVM.so.11:_ZN4llvm14ConstantVector8getSplatENS_12ElementCountEPNS_8ConstantE
libLLVM.so.11:_ZN4llvm14ConstantVectorC1EPNS_10VectorTypeENS_8ArrayRefIPNS_8ConstantEEE
libLLVM.so.11:_ZN4llvm14ConstantVectorC2EPNS_10VectorTypeENS_8ArrayRefIPNS_8ConstantEEE
libLLVM.so.11:_ZN4llvm14CreateZ3SolverEv
libLLVM.so.11:_ZN4llvm14DILexicalBlock7getImplERNS_11LLVMContextEPNS_8MetadataES4_jjNS3_11StorageTypeEb
libLLVM.so.11:_ZN4llvm14DIObjCProperty7getImplERNS_11LLVMContextEPNS_8MDStringEPNS_8MetadataEjS4_S4_jS6_NS5_11StorageTypeEb
libLLVM.so.11:_ZN4llvm14DOTGraphTraitsIPNS_11DOTFuncInfoEE12isNodeHiddenEPKNS_10BasicBlockE
libLLVM.so.11:_ZN4llvm14DOTGraphTraitsIPNS_11DOTFuncInfoEE18computeHiddenNodesEPKNS_8FunctionE
libLLVM.so.11:_ZN4llvm14DOTGraphTraitsIPNS_11ScheduleDAGEE12getNodeLabelB5cxx11EPKNS_5SUnitEPKS1_
libLLVM.so.11:_ZN4llvm14DOTGraphTraitsIPNS_12SelectionDAGEE12getNodeLabelB5cxx11EPKNS_6SDNodeEPKS1_
libLLVM.so.11:_ZN4llvm14DWARFAttribute26mayHaveLocationDescriptionENS_5dwarf9AttributeE
libLLVM.so.11:_ZN4llvm14DWARFDebugLine12ParsingState11advanceAddrEyhy
libLLVM.so.11:_ZN4llvm14DWARFDebugLine12ParsingState17appendRowToMatrixEv
libLLVM.so.11:_ZN4llvm14DWARFDebugLine12ParsingState19handleSpecialOpcodeEhy
libLLVM.so.11:_ZN4llvm14DWARFDebugLine12ParsingState19resetRowAndSequenceEv
libLLVM.so.11:_ZN4llvm14DWARFDebugLine12ParsingState20advanceAddrForOpcodeEhy
libLLVM.so.11:_ZN4llvm14DWARFDebugLine12ParsingStateC1EPNS0_9LineTableEyNS_12function_refIFvNS_5ErrorEEEE
libLLVM.so.11:_ZN4llvm14DWARFDebugLine12ParsingStateC2EPNS0_9LineTableEyNS_12function_refIFvNS_5ErrorEEEE
libLLVM.so.11:_ZN4llvm14DWARFDebugLine13SectionParser14prepareToParseEy
libLLVM.so.11:_ZN4llvm14DWARFDebugLine13SectionParser15moveToNextTableEyRKNS0_8PrologueE
libLLVM.so.11:_ZN4llvm14DWARFDebugLine13SectionParser4skipENS_12function_refIFvNS_5ErrorEEEES5_
libLLVM.so.11:_ZN4llvm14DWARFDebugLine13SectionParser9parseNextENS_12function_refIFvNS_5ErrorEEEES5_PNS_11raw_ostreamEb
libLLVM.so.11:_ZN4llvm14DWARFDebugLine13SectionParserC1ERNS_18DWARFDataExtractorERKNS_12DWARFContextENS_14iterator_rangeIPSt10unique_ptrINS_9DWARFUnitESt14default_deleteIS9_EEEESE_
libLLVM.so.11:_ZN4llvm14DWARFDebugLine13SectionParserC2ERNS_18DWARFDataExtractorERKNS_12DWARFContextENS_14iterator_rangeIPSt10unique_ptrINS_9DWARFUnitESt14default_deleteIS9_EEEESE_
libLLVM.so.11:_ZN4llvm14DWARFDebugLine18ContentTypeTracker16trackContentTypeENS_5dwarf21LineNumberEntryFormatE
libLLVM.so.11:_ZN4llvm14DWARFDebugLine19getOrParseLineTableERNS_18DWARFDataExtractorEyRKNS_12DWARFContextEPKNS_9DWARFUnitENS_12function_refIFvNS_5ErrorEEEE
libLLVM.so.11:_ZN4llvm14DWARFDebugLine3Row10postAppendEv
libLLVM.so.11:_ZN4llvm14DWARFDebugLine3Row15dumpTableHeaderERNS_11raw_ostreamEj
libLLVM.so.11:_ZN4llvm14DWARFDebugLine3Row5resetEb
libLLVM.so.11:_ZN4llvm14DWARFDebugLine3RowC1Eb
libLLVM.so.11:_ZN4llvm14DWARFDebugLine3RowC2Eb
libLLVM.so.11:_ZN4llvm14DWARFDebugLine8Prologue5clearEv
libLLVM.so.11:_ZN4llvm14DWARFDebugLine8Prologue5parseENS_18DWARFDataExtractorEPyNS_12function_refIFvNS_5ErrorEEEERKNS_12DWARFContextEPKNS_9DWARFUnitE
libLLVM.so.11:_ZN4llvm14DWARFDebugLine8PrologueC1Ev
libLLVM.so.11:_ZN4llvm14DWARFDebugLine8PrologueC2Ev
libLLVM.so.11:_ZN4llvm14DWARFDebugLine8Sequence5resetEv
libLLVM.so.11:_ZN4llvm14DWARFDebugLine8SequenceC1Ev
libLLVM.so.11:_ZN4llvm14DWARFDebugLine8SequenceC2Ev
libLLVM.so.11:_ZN4llvm14DWARFDebugLine9LineTable5clearEv
libLLVM.so.11:_ZN4llvm14DWARFDebugLine9LineTable5parseERNS_18DWARFDataExtractorEPyRKNS_12DWARFContextEPKNS_9DWARFUnitENS_12function_refIFvNS_5ErrorEEEEPNS_11raw_ostreamEb
libLLVM.so.11:_ZN4llvm14DWARFDebugLine9LineTableC1Ev
libLLVM.so.11:_ZN4llvm14DWARFDebugLine9LineTableC2Ev
libLLVM.so.11:_ZN4llvm14DWARFFormValue12extractValueERKNS_18DWARFDataExtractorEPyNS_5dwarf10FormParamsEPKNS_12DWARFContextEPKNS_9DWARFUnitE
libLLVM.so.11:_ZN4llvm14DWARFFormValue14createFromUnitENS_5dwarf4FormEPKNS_9DWARFUnitEPy
libLLVM.so.11:_ZN4llvm14DWARFFormValue16createFromPValueENS_5dwarf4FormEPKc
libLLVM.so.11:_ZN4llvm14DWARFFormValue16createFromSValueENS_5dwarf4FormEx
libLLVM.so.11:_ZN4llvm14DWARFFormValue16createFromUValueENS_5dwarf4FormEy
libLLVM.so.11:_ZN4llvm14DWARFFormValue18dumpAddressSectionERKNS_11DWARFObjectERNS_11raw_ostreamENS_13DIDumpOptionsEy
libLLVM.so.11:_ZN4llvm14DWARFFormValue20createFromBlockValueENS_5dwarf4FormENS_8ArrayRefIhEE
libLLVM.so.11:_ZN4llvm14DWARFFormValue9skipValueENS_5dwarf4FormENS_13DataExtractorEPyNS1_10FormParamsE
libLLVM.so.11:_ZN4llvm14DWARFUnitIndex15getColumnHeaderENS_16DWARFSectionKindE
libLLVM.so.11:_ZN4llvm14DWARFUnitIndex5parseENS_13DataExtractorE
libLLVM.so.11:_ZN4llvm14DWARFUnitIndex6Header5parseENS_13DataExtractorEPy
libLLVM.so.11:_ZN4llvm14DWARFUnitIndex9parseImplENS_13DataExtractorE
libLLVM.so.11:_ZN4llvm14DebugLocStream11ListBuilderD1Ev
libLLVM.so.11:_ZN4llvm14DebugLocStream11ListBuilderD2Ev
libLLVM.so.11:_ZN4llvm14DebugLocStream12finalizeListERNS_10AsmPrinterE
libLLVM.so.11:_ZN4llvm14DebugLocStream13finalizeEntryEv
libLLVM.so.11:_ZN4llvm14DeleteDeadPHIsEPNS_10BasicBlockEPKNS_17TargetLibraryInfoEPNS_16MemorySSAUpdaterE
libLLVM.so.11:_ZN4llvm14DeltaAlgorithm13GetTestResultERKSt3setIjSt4lessIjESaIjEE
libLLVM.so.11:_ZN4llvm14DeltaAlgorithm3RunERKSt3setIjSt4lessIjESaIjEE
libLLVM.so.11:_ZN4llvm14DeltaAlgorithm5DeltaERKSt3setIjSt4lessIjESaIjEERKSt6vectorIS5_SaIS5_EE
libLLVM.so.11:_ZN4llvm14DeltaAlgorithm5SplitERKSt3setIjSt4lessIjESaIjEERSt6vectorIS5_SaIS5_EE
libLLVM.so.11:_ZN4llvm14DeltaAlgorithm6SearchERKSt3setIjSt4lessIjESaIjEERKSt6vectorIS5_SaIS5_EERS5_
libLLVM.so.11:_ZN4llvm14DeltaAlgorithmD0Ev
libLLVM.so.11:_ZN4llvm14DeltaAlgorithmD1Ev
libLLVM.so.11:_ZN4llvm14DeltaAlgorithmD2Ev
libLLVM.so.11:_ZN4llvm14DependenceInfo10Constraint11setDistanceEPKNS_4SCEVEPKNS_4LoopE
libLLVM.so.11:_ZN4llvm14DependenceInfo10Constraint6setAnyEPNS_15ScalarEvolutionE
libLLVM.so.11:_ZN4llvm14DependenceInfo10Constraint7setLineEPKNS_4SCEVES4_S4_PKNS_4LoopE
libLLVM.so.11:_ZN4llvm14DependenceInfo10Constraint8setEmptyEv
libLLVM.so.11:_ZN4llvm14DependenceInfo10Constraint8setPointEPKNS_4SCEVES4_PKNS_4LoopE
libLLVM.so.11:_ZN4llvm14DependenceInfo10invalidateERNS_8FunctionERKNS_17PreservedAnalysesERNS_15AnalysisManagerIS1_JEE11InvalidatorE
libLLVM.so.11:_ZN4llvm14DependenceInfo12classifyPairEPKNS_4SCEVEPKNS_4LoopES3_S6_RNS_14SmallBitVectorE
libLLVM.so.11:_ZN4llvm14DependenceInfo13propagateLineERPKNS_4SCEVES4_RNS0_10ConstraintERb
libLLVM.so.11:_ZN4llvm14DependenceInfo14checkSubscriptEPKNS_4SCEVEPKNS_4LoopERNS_14SmallBitVectorEb
libLLVM.so.11:_ZN4llvm14DependenceInfo14propagatePointERPKNS_4SCEVES4_RNS0_10ConstraintE
libLLVM.so.11:_ZN4llvm14DependenceInfo14tryDelinearizeEPNS_11InstructionES2_RNS_15SmallVectorImplINS0_9SubscriptEEE
libLLVM.so.11:_ZN4llvm14DependenceInfo17checkDstSubscriptEPKNS_4SCEVEPKNS_4LoopERNS_14SmallBitVectorE
libLLVM.so.11:_ZN4llvm14DependenceInfo17checkSrcSubscriptEPKNS_4SCEVEPKNS_4LoopERNS_14SmallBitVectorE
libLLVM.so.11:_ZN4llvm14DependenceInfo17getSplitIterationERKNS_10DependenceEj
libLLVM.so.11:_ZN4llvm14DependenceInfo17propagateDistanceERPKNS_4SCEVES4_RNS0_10ConstraintERb
libLLVM.so.11:_ZN4llvm14DependenceInfo18unifySubscriptTypeENS_8ArrayRefIPNS0_9SubscriptEEE
libLLVM.so.11:_ZN4llvm14DependenceInfo20intersectConstraintsEPNS0_10ConstraintEPKS1_
libLLVM.so.11:_ZN4llvm14DependenceInfo22establishNestingLevelsEPKNS_11InstructionES3_
libLLVM.so.11:_ZN4llvm14DependenceInfo23tryDelinearizeFixedSizeEPNS_11InstructionES2_PKNS_4SCEVES5_RNS_15SmallVectorImplIS5_EES8_
libLLVM.so.11:_ZN4llvm14DependenceInfo24removeMatchingExtensionsEPNS0_9SubscriptE
libLLVM.so.11:_ZN4llvm14DependenceInfo28tryDelinearizeParametricSizeEPNS_11InstructionES2_PKNS_4SCEVES5_RNS_15SmallVectorImplIS5_EES8_
libLLVM.so.11:_ZN4llvm14DependenceInfo7dependsEPNS_11InstructionES2_b
libLLVM.so.11:_ZN4llvm14DependenceInfo9propagateERPKNS_4SCEVES4_RNS_14SmallBitVectorERNS_15SmallVectorImplINS0_10ConstraintEEERb
libLLVM.so.11:_ZN4llvm14DiagnosticInfo6anchorEv
libLLVM.so.11:_ZN4llvm14DomTreeUpdater10deleteEdgeEPNS_10BasicBlockES2_
libLLVM.so.11:_ZN4llvm14DomTreeUpdater10getDomTreeEv
libLLVM.so.11:_ZN4llvm14DomTreeUpdater10insertEdgeEPNS_10BasicBlockES2_
libLLVM.so.11:_ZN4llvm14DomTreeUpdater11recalculateERNS_8FunctionE
libLLVM.so.11:_ZN4llvm14DomTreeUpdater12applyUpdatesENS_8ArrayRefINS_3cfg6UpdateIPNS_10BasicBlockEEEEE
libLLVM.so.11:_ZN4llvm14DomTreeUpdater14eraseDelBBNodeEPNS_10BasicBlockE
libLLVM.so.11:_ZN4llvm14DomTreeUpdater14getPostDomTreeEv
libLLVM.so.11:_ZN4llvm14DomTreeUpdater16callbackDeleteBBEPNS_10BasicBlockESt8functionIFvS2_EE
libLLVM.so.11:_ZN4llvm14DomTreeUpdater16validateDeleteBBEPNS_10BasicBlockE
libLLVM.so.11:_ZN4llvm14DomTreeUpdater17deleteEdgeRelaxedEPNS_10BasicBlockES2_
libLLVM.so.11:_ZN4llvm14DomTreeUpdater17insertEdgeRelaxedEPNS_10BasicBlockES2_
libLLVM.so.11:_ZN4llvm14DomTreeUpdater17tryFlushDeletedBBEv
libLLVM.so.11:_ZN4llvm14DomTreeUpdater19applyDomTreeUpdatesEv
libLLVM.so.11:_ZN4llvm14DomTreeUpdater19forceFlushDeletedBBEv
libLLVM.so.11:_ZN4llvm14DomTreeUpdater20dropOutOfDateUpdatesEv
libLLVM.so.11:_ZN4llvm14DomTreeUpdater22applyUpdatesPermissiveENS_8ArrayRefINS_3cfg6UpdateIPNS_10BasicBlockEEEEE
libLLVM.so.11:_ZN4llvm14DomTreeUpdater23applyPostDomTreeUpdatesEv
libLLVM.so.11:_ZN4llvm14DomTreeUpdater5flushEv
libLLVM.so.11:_ZN4llvm14DomTreeUpdater8deleteBBEPNS_10BasicBlockE
libLLVM.so.11:_ZN4llvm14FoldingSetBase10InsertNodeEPNS0_4NodeEPvRKNS0_14FoldingSetInfoE
libLLVM.so.11:_ZN4llvm14FoldingSetBase10RemoveNodeEPNS0_4NodeE
libLLVM.so.11:_ZN4llvm14FoldingSetBase13GrowHashTableERKNS0_14FoldingSetInfoE
libLLVM.so.11:_ZN4llvm14FoldingSetBase15GetOrInsertNodeEPNS0_4NodeERKNS0_14FoldingSetInfoE
libLLVM.so.11:_ZN4llvm14FoldingSetBase15GrowBucketCountEjRKNS0_14FoldingSetInfoE
libLLVM.so.11:_ZN4llvm14FoldingSetBase19FindNodeOrInsertPosERKNS_16FoldingSetNodeIDERPvRKNS0_14FoldingSetInfoE
libLLVM.so.11:_ZN4llvm14FoldingSetBase5clearEv
libLLVM.so.11:_ZN4llvm14FoldingSetBase7reserveEjRKNS0_14FoldingSetInfoE
libLLVM.so.11:_ZN4llvm14FoldingSetBaseC1EOS0_
libLLVM.so.11:_ZN4llvm14FoldingSetBaseC1Ej
libLLVM.so.11:_ZN4llvm14FoldingSetBaseC2EOS0_
libLLVM.so.11:_ZN4llvm14FoldingSetBaseC2Ej
libLLVM.so.11:_ZN4llvm14FoldingSetBaseD1Ev
libLLVM.so.11:_ZN4llvm14FoldingSetBaseD2Ev
libLLVM.so.11:_ZN4llvm14FoldingSetBaseaSEOS0_
libLLVM.so.11:_ZN4llvm14FullDependenceC1EPNS_11InstructionES2_bj
libLLVM.so.11:_ZN4llvm14FullDependenceC2EPNS_11InstructionES2_bj
libLLVM.so.11:_ZN4llvm14FuncletPadInst4initEPNS_5ValueENS_8ArrayRefIS2_EERKNS_5TwineE
libLLVM.so.11:_ZN4llvm14FuncletPadInstC1ENS_11Instruction13FuncletPadOpsEPNS_5ValueENS_8ArrayRefIS4_EEjRKNS_5TwineEPNS_10BasicBlockE
libLLVM.so.11:_ZN4llvm14FuncletPadInstC1ENS_11Instruction13FuncletPadOpsEPNS_5ValueENS_8ArrayRefIS4_EEjRKNS_5TwineEPS1_
libLLVM.so.11:_ZN4llvm14FuncletPadInstC1ERKS0_
libLLVM.so.11:_ZN4llvm14FuncletPadInstC2ENS_11Instruction13FuncletPadOpsEPNS_5ValueENS_8ArrayRefIS4_EEjRKNS_5TwineEPNS_10BasicBlockE
libLLVM.so.11:_ZN4llvm14FuncletPadInstC2ENS_11Instruction13FuncletPadOpsEPNS_5ValueENS_8ArrayRefIS4_EEjRKNS_5TwineEPS1_
libLLVM.so.11:_ZN4llvm14FuncletPadInstC2ERKS0_
libLLVM.so.11:_ZN4llvm14GCFunctionInfoC1ERKNS_8FunctionERNS_10GCStrategyE
libLLVM.so.11:_ZN4llvm14GCFunctionInfoC2ERKNS_8FunctionERNS_10GCStrategyE
libLLVM.so.11:_ZN4llvm14GCFunctionInfoD1Ev
libLLVM.so.11:_ZN4llvm14GCFunctionInfoD2Ev
libLLVM.so.11:_ZN4llvm14GISelKnownBits12getKnownBitsENS_8RegisterE
libLLVM.so.11:_ZN4llvm14GISelKnownBits12getKnownBitsENS_8RegisterERKNS_5APIntEj
libLLVM.so.11:_ZN4llvm14GISelKnownBits12getKnownBitsERNS_12MachineInstrE
libLLVM.so.11:_ZN4llvm14GISelKnownBits12getKnownOnesENS_8RegisterE
libLLVM.so.11:_ZN4llvm14GISelKnownBits13signBitIsZeroENS_8RegisterE
libLLVM.so.11:_ZN4llvm14GISelKnownBits14getKnownZeroesENS_8RegisterE
libLLVM.so.11:_ZN4llvm14GISelKnownBits18computeNumSignBitsENS_8RegisterERKNS_5APIntEj
libLLVM.so.11:_ZN4llvm14GISelKnownBits18computeNumSignBitsENS_8RegisterEj
libLLVM.so.11:_ZN4llvm14GISelKnownBits20computeKnownBitsImplENS_8RegisterERNS_9KnownBitsERKNS_5APIntEj
libLLVM.so.11:_ZN4llvm14GISelKnownBits21computeKnownAlignmentENS_8RegisterEj
libLLVM.so.11:_ZN4llvm14GISelKnownBitsC1ERNS_15MachineFunctionEj
libLLVM.so.11:_ZN4llvm14GISelKnownBitsC2ERNS_15MachineFunctionEj
libLLVM.so.11:_ZN4llvm14GVMaterializerD0Ev
libLLVM.so.11:_ZN4llvm14GVMaterializerD1Ev
libLLVM.so.11:_ZN4llvm14GVMaterializerD2Ev
libLLVM.so.11:_ZN4llvm14GetIfConditionEPNS_10BasicBlockERS1_S2_
libLLVM.so.11:_ZN4llvm14GetShadowBytesERKNS_15SmallVectorImplINS_28ASanStackVariableDescriptionEEERKNS_20ASanStackFrameLayoutE
libLLVM.so.11:_ZN4llvm14GlobalVariable12addDebugInfoEPNS_26DIGlobalVariableExpressionE
libLLVM.so.11:_ZN4llvm14GlobalVariable14setInitializerEPNS_8ConstantE
libLLVM.so.11:_ZN4llvm14GlobalVariable15eraseFromParentEv
libLLVM.so.11:_ZN4llvm14GlobalVariable16removeFromParentEv
libLLVM.so.11:_ZN4llvm14GlobalVariable17dropAllReferencesEv
libLLVM.so.11:_ZN4llvm14GlobalVariable18copyAttributesFromEPKS0_
libLLVM.so.11:_ZN4llvm14GlobalVariableC1EPNS_4TypeEbNS_11GlobalValue12LinkageTypesEPNS_8ConstantERKNS_5TwineENS3_15ThreadLocalModeEjb
libLLVM.so.11:_ZN4llvm14GlobalVariableC1ERNS_6ModuleEPNS_4TypeEbNS_11GlobalValue12LinkageTypesEPNS_8ConstantERKNS_5TwineEPS0_NS5_15ThreadLocalModeEjb
libLLVM.so.11:_ZN4llvm14GlobalVariableC2EPNS_4TypeEbNS_11GlobalValue12LinkageTypesEPNS_8ConstantERKNS_5TwineENS3_15ThreadLocalModeEjb
libLLVM.so.11:_ZN4llvm14GlobalVariableC2ERNS_6ModuleEPNS_4TypeEbNS_11GlobalValue12LinkageTypesEPNS_8ConstantERKNS_5TwineEPS0_NS5_15ThreadLocalModeEjb
libLLVM.so.11:_ZN4llvm14IndirectBrInst12growOperandsEv
libLLVM.so.11:_ZN4llvm14IndirectBrInst14addDestinationEPNS_10BasicBlockE
libLLVM.so.11:_ZN4llvm14IndirectBrInst17removeDestinationEj
libLLVM.so.11:_ZN4llvm14IndirectBrInst4initEPNS_5ValueEj
libLLVM.so.11:_ZN4llvm14IndirectBrInstC1EPNS_5ValueEjPNS_10BasicBlockE
libLLVM.so.11:_ZN4llvm14IndirectBrInstC1EPNS_5ValueEjPNS_11InstructionE
libLLVM.so.11:_ZN4llvm14IndirectBrInstC1ERKS0_
libLLVM.so.11:_ZN4llvm14IndirectBrInstC2EPNS_5ValueEjPNS_10BasicBlockE
libLLVM.so.11:_ZN4llvm14IndirectBrInstC2EPNS_5ValueEjPNS_11InstructionE
libLLVM.so.11:_ZN4llvm14IndirectBrInstC2ERKS0_
libLLVM.so.11:_ZN4llvm14InlineFunctionERNS_8CallBaseERNS_18InlineFunctionInfoEPNS_9AAResultsEbPNS_8FunctionE
libLLVM.so.11:_ZN4llvm14InstrProfiling10emitVNodesEv
libLLVM.so.11:_ZN4llvm14InstrProfiling12emitNameDataEv
libLLVM.so.11:_ZN4llvm14InstrProfiling14lowerIncrementEPNS_22InstrProfIncrementInstE
libLLVM.so.11:_ZN4llvm14InstrProfiling15emitRuntimeHookEv
libLLVM.so.11:_ZN4llvm14InstrProfiling15lowerIntrinsicsEPNS_8FunctionE
libLLVM.so.11:_ZN4llvm14InstrProfiling16emitRegistrationEv
libLLVM.so.11:_ZN4llvm14InstrProfiling17lowerCoverageDataEPNS_14GlobalVariableE
libLLVM.so.11:_ZN4llvm14InstrProfiling18emitInitializationEv
libLLVM.so.11:_ZN4llvm14InstrProfiling21lowerValueProfileInstEPNS_25InstrProfValueProfileInstE
libLLVM.so.11:_ZN4llvm14InstrProfiling24promoteCounterLoadStoresEPNS_8FunctionE
libLLVM.so.11:_ZN4llvm14InstrProfiling25computeNumValueSiteCountsEPNS_25InstrProfValueProfileInstE
libLLVM.so.11:_ZN4llvm14InstrProfiling25getOrCreateRegionCountersEPNS_22InstrProfIncrementInstE
libLLVM.so.11:_ZN4llvm14InstrProfiling3runERNS_6ModuleERNS_15AnalysisManagerIS1_JEEE
libLLVM.so.11:_ZN4llvm14InstrProfiling3runERNS_6ModuleESt8functionIFRKNS_17TargetLibraryInfoERNS_8FunctionEEE
libLLVM.so.11:_ZN4llvm14InstrProfiling8emitUsesEv
libLLVM.so.11:_ZN4llvm14JITSymbolFlags11fromSummaryEPNS_18GlobalValueSummaryE
libLLVM.so.11:_ZN4llvm14JITSymbolFlags15fromGlobalValueERKNS_11GlobalValueE
libLLVM.so.11:_ZN4llvm14JITSymbolFlags16fromObjectSymbolERKNS_6object9SymbolRefE
libLLVM.so.11:_ZN4llvm14LandingPadInst12growOperandsEj
libLLVM.so.11:_ZN4llvm14LandingPadInst4initEjRKNS_5TwineE
libLLVM.so.11:_ZN4llvm14LandingPadInst6CreateEPNS_4TypeEjRKNS_5TwineEPNS_10BasicBlockE
libLLVM.so.11:_ZN4llvm14LandingPadInst6CreateEPNS_4TypeEjRKNS_5TwineEPNS_11InstructionE
libLLVM.so.11:_ZN4llvm14LandingPadInst9addClauseEPNS_8ConstantE
libLLVM.so.11:_ZN4llvm14LandingPadInstC1EPNS_4TypeEjRKNS_5TwineEPNS_10BasicBlockE
libLLVM.so.11:_ZN4llvm14LandingPadInstC1EPNS_4TypeEjRKNS_5TwineEPNS_11InstructionE
libLLVM.so.11:_ZN4llvm14LandingPadInstC1ERKS0_
libLLVM.so.11:_ZN4llvm14LandingPadInstC2EPNS_4TypeEjRKNS_5TwineEPNS_10BasicBlockE
libLLVM.so.11:_ZN4llvm14LandingPadInstC2EPNS_4TypeEjRKNS_5TwineEPNS_11InstructionE
libLLVM.so.11:_ZN4llvm14LandingPadInstC2ERKS0_
libLLVM.so.11:_ZN4llvm14LoopAccessInfo11analyzeLoopEPNS_9AAResultsEPNS_8LoopInfoEPKNS_17TargetLibraryInfoEPNS_13DominatorTreeE
libLLVM.so.11:_ZN4llvm14LoopAccessInfo14canAnalyzeLoopEv
libLLVM.so.11:_ZN4llvm14LoopAccessInfo14recordAnalysisENS_9StringRefEPNS_11InstructionE
libLLVM.so.11:_ZN4llvm14LoopAccessInfo20collectStridedAccessEPNS_5ValueE
libLLVM.so.11:_ZN4llvm14LoopAccessInfo21blockNeedsPredicationEPNS_10BasicBlockEPNS_4LoopEPNS_13DominatorTreeE
libLLVM.so.11:_ZN4llvm14LoopAccessInfoC1EPNS_4LoopEPNS_15ScalarEvolutionEPKNS_17TargetLibraryInfoEPNS_9AAResultsEPNS_13DominatorTreeEPNS_8LoopInfoE
libLLVM.so.11:_ZN4llvm14LoopAccessInfoC2EPNS_4LoopEPNS_15ScalarEvolutionEPKNS_17TargetLibraryInfoEPNS_9AAResultsEPNS_13DominatorTreeEPNS_8LoopInfoE
libLLVM.so.11:_ZN4llvm14LoopRotatePass3runERNS_4LoopERNS_15AnalysisManagerIS1_JRNS_27LoopStandardAnalysisResultsEEEES5_RNS_10LPMUpdaterE
libLLVM.so.11:_ZN4llvm14LoopRotatePassC1Eb
libLLVM.so.11:_ZN4llvm14LoopRotatePassC2Eb
libLLVM.so.11:_ZN4llvm14LoopSafetyInfo10copyColorsEPNS_10BasicBlockES2_
libLLVM.so.11:_ZN4llvm14LoopSafetyInfo18computeBlockColorsEPKNS_4LoopE
libLLVM.so.11:_ZN4llvm14LoopUnrollPass3runERNS_8FunctionERNS_15AnalysisManagerIS1_JEEE
libLLVM.so.11:_ZN4llvm14LoopVersioning11addPHINodesERKNS_15SmallVectorImplIPNS_11InstructionEEE
libLLVM.so.11:_ZN4llvm14LoopVersioning11versionLoopERKNS_15SmallVectorImplIPNS_11InstructionEEE
libLLVM.so.11:_ZN4llvm14LoopVersioning13setSCEVChecksENS_18SCEVUnionPredicateE
libLLVM.so.11:_ZN4llvm14LoopVersioning14setAliasChecksENS_8ArrayRefISt4pairIPKNS_23RuntimeCheckingPtrGroupES5_EEE
libLLVM.so.11:_ZN4llvm14LoopVersioning22prepareNoAliasMetadataEv
libLLVM.so.11:_ZN4llvm14LoopVersioning23annotateInstWithNoAliasEPNS_11InstructionEPKS1_
libLLVM.so.11:_ZN4llvm14LoopVersioning23annotateLoopWithNoAliasEv
libLLVM.so.11:_ZN4llvm14LoopVersioningC1ERKNS_14LoopAccessInfoEPNS_4LoopEPNS_8LoopInfoEPNS_13DominatorTreeEPNS_15ScalarEvolutionEb
libLLVM.so.11:_ZN4llvm14LoopVersioningC2ERKNS_14LoopAccessInfoEPNS_4LoopEPNS_8LoopInfoEPNS_13DominatorTreeEPNS_15ScalarEvolutionEb
libLLVM.so.11:_ZN4llvm14MCAsmInfoXCOFF6anchorEv
libLLVM.so.11:_ZN4llvm14MCAsmInfoXCOFFC1Ev
libLLVM.so.11:_ZN4llvm14MCAsmInfoXCOFFC2Ev
libLLVM.so.11:_ZN4llvm14MCConstantExpr6createExRNS_9MCContextEbj
libLLVM.so.11:_ZN4llvm14MCDisassembler13setSymbolizerESt10unique_ptrINS_12MCSymbolizerESt14default_deleteIS2_EE
libLLVM.so.11:_ZN4llvm14MCDisassemblerD0Ev
libLLVM.so.11:_ZN4llvm14MCDisassemblerD1Ev
libLLVM.so.11:_ZN4llvm14MCDisassemblerD2Ev
libLLVM.so.11:_ZN4llvm14MCDwarfLineStr11emitSectionEPNS_10MCStreamerE
libLLVM.so.11:_ZN4llvm14MCDwarfLineStr7emitRefEPNS_10MCStreamerENS_9StringRefE
libLLVM.so.11:_ZN4llvm14MCGenDwarfInfo4EmitEPNS_10MCStreamerE
libLLVM.so.11:_ZN4llvm14MCObjectWriterD0Ev
libLLVM.so.11:_ZN4llvm14MCObjectWriterD1Ev
libLLVM.so.11:_ZN4llvm14MCObjectWriterD2Ev
libLLVM.so.11:_ZN4llvm14MCSectionMachO21ParseSectionSpecifierB5cxx11ENS_9StringRefERS1_S2_RjRbS3_
libLLVM.so.11:_ZN4llvm14MCSectionMachOC1ENS_9StringRefES1_jjNS_11SectionKindEPNS_8MCSymbolE
libLLVM.so.11:_ZN4llvm14MCSectionMachOC2ENS_9StringRefES1_jjNS_11SectionKindEPNS_8MCSymbolE
libLLVM.so.11:_ZN4llvm14MCSectionXCOFFD1Ev
libLLVM.so.11:_ZN4llvm14MCSectionXCOFFD2Ev
libLLVM.so.11:_ZN4llvm14MCWasmStreamer10finishImplEv
libLLVM.so.11:_ZN4llvm14MCWasmStreamer11emitELFSizeEPNS_8MCSymbolEPKNS_6MCExprE
libLLVM.so.11:_ZN4llvm14MCWasmStreamer12emitZerofillEPNS_9MCSectionEPNS_8MCSymbolEyjNS_5SMLocE
libLLVM.so.11:_ZN4llvm14MCWasmStreamer13changeSectionEPNS_9MCSectionEPKNS_6MCExprE
libLLVM.so.11:_ZN4llvm14MCWasmStreamer13emitThumbFuncEPNS_8MCSymbolE
libLLVM.so.11:_ZN4llvm14MCWasmStreamer13emitValueImplEPKNS_6MCExprEjNS_5SMLocE
libLLVM.so.11:_ZN4llvm14MCWasmStreamer13mergeFragmentEPNS_14MCDataFragmentES2_
libLLVM.so.11:_ZN4llvm14MCWasmStreamer14emitInstToDataERKNS_6MCInstERKNS_15MCSubtargetInfoE
libLLVM.so.11:_ZN4llvm14MCWasmStreamer14emitSymbolDescEPNS_8MCSymbolEj
libLLVM.so.11:_ZN4llvm14MCWasmStreamer14emitTBSSSymbolEPNS_9MCSectionEPNS_8MCSymbolEyj
libLLVM.so.11:_ZN4llvm14MCWasmStreamer16emitCommonSymbolEPNS_8MCSymbolEyj
libLLVM.so.11:_ZN4llvm14MCWasmStreamer17emitAssemblerFlagENS_15MCAssemblerFlagE
libLLVM.so.11:_ZN4llvm14MCWasmStreamer17emitWeakReferenceEPNS_8MCSymbolEPKS1_
libLLVM.so.11:_ZN4llvm14MCWasmStreamer18emitInstToFragmentERKNS_6MCInstERKNS_15MCSubtargetInfoE
libLLVM.so.11:_ZN4llvm14MCWasmStreamer19emitSymbolAttributeEPNS_8MCSymbolENS_12MCSymbolAttrE
libLLVM.so.11:_ZN4llvm14MCWasmStreamer20emitValueToAlignmentEjxjj
libLLVM.so.11:_ZN4llvm14MCWasmStreamer21emitLocalCommonSymbolEPNS_8MCSymbolEyj
libLLVM.so.11:_ZN4llvm14MCWasmStreamer9emitIdentENS_9StringRefE
libLLVM.so.11:_ZN4llvm14MCWasmStreamerD0Ev
libLLVM.so.11:_ZN4llvm14MCWasmStreamerD1Ev
libLLVM.so.11:_ZN4llvm14MCWasmStreamerD2Ev
libLLVM.so.11:_ZN4llvm14MachineOperand10ChangeToESEPKcj
libLLVM.so.11:_ZN4llvm14MachineOperand10ChangeToGAEPKNS_11GlobalValueExj
libLLVM.so.11:_ZN4llvm14MachineOperand11printSymbolERNS_11raw_ostreamERNS_8MCSymbolE
libLLVM.so.11:_ZN4llvm14MachineOperand12substPhysRegENS_10MCRegisterERKNS_18TargetRegisterInfoE
libLLVM.so.11:_ZN4llvm14MachineOperand12substVirtRegENS_8RegisterEjRKNS_18TargetRegisterInfoE
libLLVM.so.11:_ZN4llvm14MachineOperand14printSubRegIdxERNS_11raw_ostreamEyPKNS_18TargetRegisterInfoE
libLLVM.so.11:_ZN4llvm14MachineOperand14setIsRenamableEb
libLLVM.so.11:_ZN4llvm14MachineOperand16ChangeToMCSymbolEPNS_8MCSymbolE
libLLVM.so.11:_ZN4llvm14MachineOperand16ChangeToRegisterENS_8RegisterEbbbbbb
libLLVM.so.11:_ZN4llvm14MachineOperand16printTargetFlagsERNS_11raw_ostreamERKS0_
libLLVM.so.11:_ZN4llvm14MachineOperand17ChangeToImmediateEx
libLLVM.so.11:_ZN4llvm14MachineOperand17printIRSlotNumberERNS_11raw_ostreamEi
libLLVM.so.11:_ZN4llvm14MachineOperand17removeRegFromUsesEv
libLLVM.so.11:_ZN4llvm14MachineOperand18ChangeToFrameIndexEi
libLLVM.so.11:_ZN4llvm14MachineOperand18printOperandOffsetERNS_11raw_ostreamEx
libLLVM.so.11:_ZN4llvm14MachineOperand19ChangeToFPImmediateEPKNS_10ConstantFPE
libLLVM.so.11:_ZN4llvm14MachineOperand19ChangeToTargetIndexEjxj
libLLVM.so.11:_ZN4llvm14MachineOperand25printStackObjectReferenceERNS_11raw_ostreamEjbNS_9StringRefE
libLLVM.so.11:_ZN4llvm14MachineOperand6setRegENS_8RegisterE
libLLVM.so.11:_ZN4llvm14MachineOperand8setIsDefEb
libLLVM.so.11:_ZN4llvm14MemoryLocation10getForDestEPKNS_12MemIntrinsicE
libLLVM.so.11:_ZN4llvm14MemoryLocation10getForDestEPKNS_15AnyMemIntrinsicE
libLLVM.so.11:_ZN4llvm14MemoryLocation10getForDestEPKNS_18AtomicMemIntrinsicE
libLLVM.so.11:_ZN4llvm14MemoryLocation12getForSourceEPKNS_15MemTransferInstE
libLLVM.so.11:_ZN4llvm14MemoryLocation12getForSourceEPKNS_18AnyMemTransferInstE
libLLVM.so.11:_ZN4llvm14MemoryLocation12getForSourceEPKNS_21AtomicMemTransferInstE
libLLVM.so.11:_ZN4llvm14MemoryLocation14getForArgumentEPKNS_8CallBaseEjPKNS_17TargetLibraryInfoE
libLLVM.so.11:_ZN4llvm14MemoryLocation3getEPKNS_13AtomicRMWInstE
libLLVM.so.11:_ZN4llvm14MemoryLocation3getEPKNS_17AtomicCmpXchgInstE
libLLVM.so.11:_ZN4llvm14MemoryLocation3getEPKNS_8LoadInstE
libLLVM.so.11:_ZN4llvm14MemoryLocation3getEPKNS_9StoreInstE
libLLVM.so.11:_ZN4llvm14MemoryLocation3getEPKNS_9VAArgInstE
libLLVM.so.11:_ZN4llvm14MemoryLocation9getOrNoneEPKNS_11InstructionE
libLLVM.so.11:_ZN4llvm14MergeICmpsPass3runERNS_8FunctionERNS_15AnalysisManagerIS1_JEEE
libLLVM.so.11:_ZN4llvm14MetadataLoader12setStripTBAAEb
libLLVM.so.11:_ZN4llvm14MetadataLoader13parseMetadataEb
libLLVM.so.11:_ZN4llvm14MetadataLoader15isStrippingTBAAEv
libLLVM.so.11:_ZN4llvm14MetadataLoader18MetadataLoaderImpl13parseMetadataEb
libLLVM.so.11:_ZN4llvm14MetadataLoader18MetadataLoaderImpl18parseMetadataKindsEv
libLLVM.so.11:_ZN4llvm14MetadataLoader18MetadataLoaderImpl19lazyLoadOneMDStringEj
libLLVM.so.11:_ZN4llvm14MetadataLoader18MetadataLoaderImpl20parseMetadataStringsENS_8ArrayRefIyEENS_9StringRefENS_12function_refIFvS4_EEE
libLLVM.so.11:_ZN4llvm14MetadataLoader18MetadataLoaderImpl23parseMetadataAttachmentERNS_8FunctionERKNS_15SmallVectorImplIPNS_11InstructionEEE
libLLVM.so.11:_ZN4llvm14MetadataLoader18MetadataLoaderImpl23parseMetadataKindRecordERNS_15SmallVectorImplIyEE
libLLVM.so.11:_ZN4llvm14MetadataLoader18MetadataLoaderImpl27lazyLoadModuleMetadataBlockEv
libLLVM.so.11:_ZN4llvm14MetadataLoader18MetadataLoaderImpl27parseGlobalObjectAttachmentERNS_12GlobalObjectENS_8ArrayRefIyEE
libLLVM.so.11:_ZN4llvm14MetadataLoader18parseMetadataKindsEv
libLLVM.so.11:_ZN4llvm14MetadataLoader22upgradeDebugIntrinsicsERNS_8FunctionE
libLLVM.so.11:_ZN4llvm14MetadataLoader23getMetadataFwdRefOrLoadEj
libLLVM.so.11:_ZN4llvm14MetadataLoader23parseMetadataAttachmentERNS_8FunctionERKNS_15SmallVectorImplIPNS_11InstructionEEE
libLLVM.so.11:_ZN4llvm14MetadataLoader27lookupSubprogramForFunctionEPNS_8FunctionE
libLLVM.so.11:_ZN4llvm14MetadataLoader8shrinkToEj
libLLVM.so.11:_ZN4llvm14MetadataLoaderC1EOS0_
libLLVM.so.11:_ZN4llvm14MetadataLoaderC1ERNS_15BitstreamCursorERNS_6ModuleERNS_22BitcodeReaderValueListEbSt8functionIFPNS_4TypeEjEE
libLLVM.so.11:_ZN4llvm14MetadataLoaderC2EOS0_
libLLVM.so.11:_ZN4llvm14MetadataLoaderC2ERNS_15BitstreamCursorERNS_6ModuleERNS_22BitcodeReaderValueListEbSt8functionIFPNS_4TypeEjEE
libLLVM.so.11:_ZN4llvm14MetadataLoaderD1Ev
libLLVM.so.11:_ZN4llvm14MetadataLoaderD2Ev
libLLVM.so.11:_ZN4llvm14MetadataLoaderaSEOS0_
libLLVM.so.11:_ZN4llvm14ModuloSchedule5printERNS_11raw_ostreamE
libLLVM.so.11:_ZN4llvm14PassNameParserC1ERNS_2cl6OptionE
libLLVM.so.11:_ZN4llvm14PassNameParserC2ERNS_2cl6OptionE
libLLVM.so.11:_ZN4llvm14PassNameParserD0Ev
libLLVM.so.11:_ZN4llvm14PassNameParserD1Ev
libLLVM.so.11:_ZN4llvm14PassNameParserD2Ev
libLLVM.so.11:_ZN4llvm14PiBlockDDGNodeC1EOS0_
libLLVM.so.11:_ZN4llvm14PiBlockDDGNodeC1ERKNS_11SmallVectorIPNS_7DDGNodeELj4EEE
libLLVM.so.11:_ZN4llvm14PiBlockDDGNodeC1ERKS0_
libLLVM.so.11:_ZN4llvm14PiBlockDDGNodeC2EOS0_
libLLVM.so.11:_ZN4llvm14PiBlockDDGNodeC2ERKNS_11SmallVectorIPNS_7DDGNodeELj4EEE
libLLVM.so.11:_ZN4llvm14PiBlockDDGNodeC2ERKS0_
libLLVM.so.11:_ZN4llvm14PiBlockDDGNodeD0Ev
libLLVM.so.11:_ZN4llvm14PiBlockDDGNodeD1Ev
libLLVM.so.11:_ZN4llvm14PiBlockDDGNodeD2Ev
libLLVM.so.11:_ZN4llvm14ProfileSummary12printSummaryERNS_11raw_ostreamE
libLLVM.so.11:_ZN4llvm14ProfileSummary20getDetailedSummaryMDERNS_11LLVMContextE
libLLVM.so.11:_ZN4llvm14ProfileSummary20printDetailedSummaryERNS_11raw_ostreamE
libLLVM.so.11:_ZN4llvm14ProfileSummary5getMDERNS_11LLVMContextEbb
libLLVM.so.11:_ZN4llvm14ProfileSummary9getFromMDEPNS_8MetadataE
libLLVM.so.11:_ZN4llvm14RangeListEntry7extractENS_18DWARFDataExtractorEyPy
libLLVM.so.11:_ZN4llvm14RecordStreamer10markGlobalERKNS_8MCSymbolENS_12MCSymbolAttrE
libLLVM.so.11:_ZN4llvm14RecordStreamer11markDefinedERKNS_8MCSymbolE
libLLVM.so.11:_ZN4llvm14RecordStreamer12emitZerofillEPNS_9MCSectionEPNS_8MCSymbolEyjNS_5SMLocE
libLLVM.so.11:_ZN4llvm14RecordStreamer13symverAliasesEv
libLLVM.so.11:_ZN4llvm14RecordStreamer14emitAssignmentEPNS_8MCSymbolEPKNS_6MCExprE
libLLVM.so.11:_ZN4llvm14RecordStreamer14getSymbolStateEPKNS_8MCSymbolE
libLLVM.so.11:_ZN4llvm14RecordStreamer15emitInstructionERKNS_6MCInstERKNS_15MCSubtargetInfoE
libLLVM.so.11:_ZN4llvm14RecordStreamer15visitUsedSymbolERKNS_8MCSymbolE
libLLVM.so.11:_ZN4llvm14RecordStreamer16emitCommonSymbolEPNS_8MCSymbolEyj
libLLVM.so.11:_ZN4llvm14RecordStreamer19emitSymbolAttributeEPNS_8MCSymbolENS_12MCSymbolAttrE
libLLVM.so.11:_ZN4llvm14RecordStreamer21flushSymverDirectivesEv
libLLVM.so.11:_ZN4llvm14RecordStreamer22emitELFSymverDirectiveENS_9StringRefEPKNS_8MCSymbolE
libLLVM.so.11:_ZN4llvm14RecordStreamer3endEv
libLLVM.so.11:_ZN4llvm14RecordStreamer5beginEv
libLLVM.so.11:_ZN4llvm14RecordStreamer8markUsedERKNS_8MCSymbolE
libLLVM.so.11:_ZN4llvm14RecordStreamer9emitLabelEPNS_8MCSymbolENS_5SMLocE
libLLVM.so.11:_ZN4llvm14RecordStreamerC1ERNS_9MCContextERKNS_6ModuleE
libLLVM.so.11:_ZN4llvm14RecordStreamerC2ERNS_9MCContextERKNS_6ModuleE
libLLVM.so.11:_ZN4llvm14RegionInfoPass13releaseMemoryEv
libLLVM.so.11:_ZN4llvm14RegionInfoPass13runOnFunctionERNS_8FunctionE
libLLVM.so.11:_ZN4llvm14RegionInfoPassC1Ev
libLLVM.so.11:_ZN4llvm14RegionInfoPassC2Ev
libLLVM.so.11:_ZN4llvm14RegionInfoPassD0Ev
libLLVM.so.11:_ZN4llvm14RegionInfoPassD1Ev
libLLVM.so.11:_ZN4llvm14RegionInfoPassD2Ev
libLLVM.so.11:_ZN4llvm14RegionPressure10openBottomENS_26MachineInstrBundleIteratorIKNS_12MachineInstrELb0EEE
libLLVM.so.11:_ZN4llvm14RegionPressure5resetEv
libLLVM.so.11:_ZN4llvm14RegionPressure7openTopENS_26MachineInstrBundleIteratorIKNS_12MachineInstrELb0EEE
libLLVM.so.11:_ZN4llvm14RegisterAGBaseC1ENS_9StringRefEPKvS3_b
libLLVM.so.11:_ZN4llvm14RegisterAGBaseC2ENS_9StringRefEPKvS3_b
libLLVM.so.11:_ZN4llvm14RuntimeDyldELF10loadObjectERKNS_6object10ObjectFileE
libLLVM.so.11:_ZN4llvm14RuntimeDyldELF10setMipsABIERKNS_6object10ObjectFileE
libLLVM.so.11:_ZN4llvm14RuntimeDyldELF12finalizeLoadERKNS_6object10ObjectFileERSt3mapINS1_10SectionRefEjSt4lessIS6_ESaISt4pairIKS6_jEEE
libLLVM.so.11:_ZN4llvm14RuntimeDyldELF15getGOTEntrySizeEv
libLLVM.so.11:_ZN4llvm14RuntimeDyldELF16registerEHFramesEv
libLLVM.so.11:_ZN4llvm14RuntimeDyldELF17resolveRelocationERKNS_12SectionEntryEyyjxyj
libLLVM.so.11:_ZN4llvm14RuntimeDyldELF17resolveRelocationERKNS_15RelocationEntryEy
libLLVM.so.11:_ZN4llvm14RuntimeDyldELF18allocateGOTEntriesEj
libLLVM.so.11:_ZN4llvm14RuntimeDyldELF18computeGOTOffsetREEyyj
libLLVM.so.11:_ZN4llvm14RuntimeDyldELF19findOPDEntrySectionERKNS_6object17ELFObjectFileBaseERSt3mapINS1_10SectionRefEjSt4lessIS6_ESaISt4pairIKS6_jEEERNS_18RelocationValueRefE
libLLVM.so.11:_ZN4llvm14RuntimeDyldELF19findOrAllocGOTEntryERKNS_18RelocationValueRefEj
libLLVM.so.11:_ZN4llvm14RuntimeDyldELF19findPPC64TOCSectionERKNS_6object17ELFObjectFileBaseERSt3mapINS1_10SectionRefEjSt4lessIS6_ESaISt4pairIKS6_jEEERNS_18RelocationValueRefE
libLLVM.so.11:_ZN4llvm14RuntimeDyldELF20processRelocationRefEjNS_6object16content_iteratorINS1_13RelocationRefEEERKNS1_10ObjectFileERSt3mapINS1_10SectionRefEjSt4lessIS9_ESaISt4pairIKS9_jEEERS8_INS_18RelocationValueRefEjSA_ISI_ESaISC_IKSI_jEEE
libLLVM.so.11:_ZN4llvm14RuntimeDyldELF20resolveAArch64BranchEjRKNS_18RelocationValueRefENS_6object16content_iteratorINS4_13RelocationRefEEERSt3mapIS1_jSt4lessIS1_ESaISt4pairIS2_jEEE
libLLVM.so.11:_ZN4llvm14RuntimeDyldELF20resolveARMRelocationERKNS_12SectionEntryEyjji
libLLVM.so.11:_ZN4llvm14RuntimeDyldELF20resolveBPFRelocationERKNS_12SectionEntryEyyjx
libLLVM.so.11:_ZN4llvm14RuntimeDyldELF20resolveX86RelocationERKNS_12SectionEntryEyjji
libLLVM.so.11:_ZN4llvm14RuntimeDyldELF22resolvePPC32RelocationERKNS_12SectionEntryEyyjx
libLLVM.so.11:_ZN4llvm14RuntimeDyldELF22resolvePPC64RelocationERKNS_12SectionEntryEyyjx
libLLVM.so.11:_ZN4llvm14RuntimeDyldELF23processSimpleRelocationEjyjNS_18RelocationValueRefE
libLLVM.so.11:_ZN4llvm14RuntimeDyldELF23resolveX86_64RelocationERKNS_12SectionEntryEyyjxy
libLLVM.so.11:_ZN4llvm14RuntimeDyldELF24resolveAArch64RelocationERKNS_12SectionEntryEyyjx
libLLVM.so.11:_ZN4llvm14RuntimeDyldELF24resolveSystemZRelocationERKNS_12SectionEntryEyyjx
libLLVM.so.11:_ZN4llvm14RuntimeDyldELF25resolveAArch64ShortBranchEjNS_6object16content_iteratorINS1_13RelocationRefEEERKNS_18RelocationValueRefE
libLLVM.so.11:_ZN4llvm14RuntimeDyldELF26resolveGOTOffsetRelocationEjyyj
libLLVM.so.11:_ZN4llvm14RuntimeDyldELF6createENS_6Triple8ArchTypeERNS_11RuntimeDyld13MemoryManagerERNS_17JITSymbolResolverE
libLLVM.so.11:_ZN4llvm14RuntimeDyldELFC1ERNS_11RuntimeDyld13MemoryManagerERNS_17JITSymbolResolverE
libLLVM.so.11:_ZN4llvm14RuntimeDyldELFC2ERNS_11RuntimeDyld13MemoryManagerERNS_17JITSymbolResolverE
libLLVM.so.11:_ZN4llvm14RuntimeDyldELFD0Ev
libLLVM.so.11:_ZN4llvm14RuntimeDyldELFD1Ev
libLLVM.so.11:_ZN4llvm14RuntimeDyldELFD2Ev
libLLVM.so.11:_ZN4llvm14SSAUpdaterBulk11AddVariableENS_9StringRefEPNS_4TypeE
libLLVM.so.11:_ZN4llvm14SSAUpdaterBulk14RewriteAllUsesEPNS_13DominatorTreeEPNS_15SmallVectorImplIPNS_7PHINodeEEE
libLLVM.so.11:_ZN4llvm14SSAUpdaterBulk14computeValueAtEPNS_10BasicBlockERNS0_11RewriteInfoEPNS_13DominatorTreeE
libLLVM.so.11:_ZN4llvm14SSAUpdaterBulk16HasValueForBlockEjPNS_10BasicBlockE
libLLVM.so.11:_ZN4llvm14SSAUpdaterBulk17AddAvailableValueEjPNS_10BasicBlockEPNS_5ValueE
libLLVM.so.11:_ZN4llvm14SSAUpdaterBulk6AddUseEjPNS_3UseE
libLLVM.so.11:_ZN4llvm14ScalarizerPass3runERNS_8FunctionERNS_15AnalysisManagerIS1_JEEE
libLLVM.so.11:_ZN4llvm14SchedDFSResult12scheduleTreeEj
libLLVM.so.11:_ZN4llvm14SchedDFSResult7computeENS_8ArrayRefINS_5SUnitEEE
libLLVM.so.11:_ZN4llvm14SchedRemainder4initEPNS_13ScheduleDAGMIEPKNS_16TargetSchedModelE
libLLVM.so.11:_ZN4llvm14SimplifyOrInstEPNS_5ValueES1_RKNS_13SimplifyQueryE
libLLVM.so.11:_ZN4llvm14SpillPlacement12addPrefSpillENS_8ArrayRefIjEEb
libLLVM.so.11:_ZN4llvm14SpillPlacement12setThresholdERKNS_14BlockFrequencyE
libLLVM.so.11:_ZN4llvm14SpillPlacement13releaseMemoryEv
libLLVM.so.11:_ZN4llvm14SpillPlacement14addConstraintsENS_8ArrayRefINS0_15BlockConstraintEEE
libLLVM.so.11:_ZN4llvm14SpillPlacement17scanActiveBundlesEv
libLLVM.so.11:_ZN4llvm14SpillPlacement20runOnMachineFunctionERNS_15MachineFunctionE
libLLVM.so.11:_ZN4llvm14SpillPlacement6finishEv
libLLVM.so.11:_ZN4llvm14SpillPlacement6updateEj
libLLVM.so.11:_ZN4llvm14SpillPlacement7iterateEv
libLLVM.so.11:_ZN4llvm14SpillPlacement7prepareERNS_9BitVectorE
libLLVM.so.11:_ZN4llvm14SpillPlacement8activateEj
libLLVM.so.11:_ZN4llvm14SpillPlacement8addLinksENS_8ArrayRefIjEE
libLLVM.so.11:_ZN4llvm14StackProtector12CreateFailBBEv
libLLVM.so.11:_ZN4llvm14StackProtector13runOnFunctionERNS_8FunctionE
libLLVM.so.11:_ZN4llvm14StackProtector15HasAddressTakenEPKNS_11InstructionEy
libLLVM.so.11:_ZN4llvm14StackProtector21InsertStackProtectorsEv
libLLVM.so.11:_ZN4llvm14StackProtector22RequiresStackProtectorEv
libLLVM.so.11:_ZN4llvm14StackProtectorC1Ev
libLLVM.so.11:_ZN4llvm14StackProtectorC2Ev
libLLVM.so.11:_ZN4llvm14StrInStrNoCaseENS_9StringRefES0_
libLLVM.so.11:_ZN4llvm14StripDebugInfoERNS_6ModuleE
libLLVM.so.11:_ZN4llvm14SymbolRewriter16RewriteMapParser10parseEntryERNS_4yaml6StreamERNS2_12KeyValueNodeEPNSt7__cxx114listISt10unique_ptrINS0_17RewriteDescriptorESt14default_deleteISA_EESaISD_EEE
libLLVM.so.11:_ZN4llvm14SymbolRewriter16RewriteMapParser30parseRewriteFunctionDescriptorERNS_4yaml6StreamEPNS2_10ScalarNodeEPNS2_11MappingNodeEPNSt7__cxx114listISt10unique_ptrINS0_17RewriteDescriptorESt14default_deleteISC_EESaISF_EEE
libLLVM.so.11:_ZN4llvm14SymbolRewriter16RewriteMapParser33parseRewriteGlobalAliasDescriptorERNS_4yaml6StreamEPNS2_10ScalarNodeEPNS2_11MappingNodeEPNSt7__cxx114listISt10unique_ptrINS0_17RewriteDescriptorESt14default_deleteISC_EESaISF_EEE
libLLVM.so.11:_ZN4llvm14SymbolRewriter16RewriteMapParser36parseRewriteGlobalVariableDescriptorERNS_4yaml6StreamEPNS2_10ScalarNodeEPNS2_11MappingNodeEPNSt7__cxx114listISt10unique_ptrINS0_17RewriteDescriptorESt14default_deleteISC_EESaISF_EEE
libLLVM.so.11:_ZN4llvm14SymbolRewriter16RewriteMapParser5parseERKNSt7__cxx1112basic_stringIcSt11char_traitsIcESaIcEEEPNS2_4listISt10unique_ptrINS0_17RewriteDescriptorESt14default_deleteISC_EESaISF_EEE
libLLVM.so.11:_ZN4llvm14SymbolRewriter16RewriteMapParser5parseERSt10unique_ptrINS_12MemoryBufferESt14default_deleteIS3_EEPNSt7__cxx114listIS2_INS0_17RewriteDescriptorES4_ISA_EESaISC_EEE
libLLVM.so.11:_ZN4llvm14TailDuplicator10isSimpleBBEPNS_17MachineBasicBlockE
libLLVM.so.11:_ZN4llvm14TailDuplicator10processPHIEPNS_12MachineInstrEPNS_17MachineBasicBlockES4_RNS_8DenseMapINS_8RegisterENS_15TargetInstrInfo13RegSubRegPairENS_12DenseMapInfoIS6_EENS_6detail12DenseMapPairIS6_S8_EEEERNS_15SmallVectorImplISt4pairIS6_S8_EEERKNS_8DenseSetIS6_SA_EEb
libLLVM.so.11:_ZN4llvm14TailDuplicator12appendCopiesEPNS_17MachineBasicBlockERNS_15SmallVectorImplISt4pairINS_8RegisterENS_15TargetInstrInfo13RegSubRegPairEEEERNS3_IPNS_12MachineInstrEEE
libLLVM.so.11:_ZN4llvm14TailDuplicator13tailDuplicateEbPNS_17MachineBasicBlockES2_RNS_15SmallVectorImplIS2_EERNS3_IPNS_12MachineInstrEEEPS4_
libLLVM.so.11:_ZN4llvm14TailDuplicator15removeDeadBlockEPNS_17MachineBasicBlockEPNS_12function_refIFvS2_EEE
libLLVM.so.11:_ZN4llvm14TailDuplicator16canTailDuplicateEPNS_17MachineBasicBlockES2_
libLLVM.so.11:_ZN4llvm14TailDuplicator17addSSAUpdateEntryENS_8RegisterES1_PNS_17MachineBasicBlockE
libLLVM.so.11:_ZN4llvm14TailDuplicator17duplicateSimpleBBEPNS_17MachineBasicBlockERNS_15SmallVectorImplIS2_EERKNS_8DenseSetINS_8RegisterENS_12DenseMapInfoIS7_EEEERNS3_IPNS_12MachineInstrEEE
libLLVM.so.11:_ZN4llvm14TailDuplicator19shouldTailDuplicateEbRNS_17MachineBasicBlockE
libLLVM.so.11:_ZN4llvm14TailDuplicator19tailDuplicateBlocksEv
libLLVM.so.11:_ZN4llvm14TailDuplicator20duplicateInstructionEPNS_12MachineInstrEPNS_17MachineBasicBlockES4_RNS_8DenseMapINS_8RegisterENS_15TargetInstrInfo13RegSubRegPairENS_12DenseMapInfoIS6_EENS_6detail12DenseMapPairIS6_S8_EEEERKNS_8DenseSetIS6_SA_EE
libLLVM.so.11:_ZN4llvm14TailDuplicator20updateSuccessorsPHIsEPNS_17MachineBasicBlockEbRNS_15SmallVectorImplIS2_EERNS_14SmallSetVectorIS2_Lj8EEE
libLLVM.so.11:_ZN4llvm14TailDuplicator22tailDuplicateAndUpdateEbPNS_17MachineBasicBlockES2_PNS_15SmallVectorImplIS2_EEPNS_12function_refIFvS2_EEES5_
libLLVM.so.11:_ZN4llvm14TailDuplicator24canCompletelyDuplicateBBERNS_17MachineBasicBlockE
libLLVM.so.11:_ZN4llvm14TailDuplicator6initMFERNS_15MachineFunctionEbPKNS_28MachineBranchProbabilityInfoEPNS_11MBFIWrapperEPNS_18ProfileSummaryInfoEbj
libLLVM.so.11:_ZN4llvm14TargetLowering15DAGCombinerInfo13AddToWorklistEPNS_6SDNodeE
libLLVM.so.11:_ZN4llvm14TargetLowering15DAGCombinerInfo23CommitTargetLoweringOptERKNS0_17TargetLoweringOptE
libLLVM.so.11:_ZN4llvm14TargetLowering15DAGCombinerInfo28recursivelyDeleteUnusedNodesEPNS_6SDNodeE
libLLVM.so.11:_ZN4llvm14TargetLowering15DAGCombinerInfo9CombineToEPNS_6SDNodeENS_7SDValueES4_b
libLLVM.so.11:_ZN4llvm14TargetLowering15DAGCombinerInfo9CombineToEPNS_6SDNodeENS_7SDValueEb
libLLVM.so.11:_ZN4llvm14TargetLowering15DAGCombinerInfo9CombineToEPNS_6SDNodeENS_8ArrayRefINS_7SDValueEEEb
libLLVM.so.11:_ZN4llvm14TargetLoweringC1ERKNS_13TargetMachineE
libLLVM.so.11:_ZN4llvm14TargetLoweringC2ERKNS_13TargetMachineE
libLLVM.so.11:_ZN4llvm14TargetRegistry12lookupTargetERKNSt7__cxx1112basic_stringIcSt11char_traitsIcESaIcEEERNS_6TripleERS6_
libLLVM.so.11:_ZN4llvm14TargetRegistry12lookupTargetERKNSt7__cxx1112basic_stringIcSt11char_traitsIcESaIcEEERS6_
libLLVM.so.11:_ZN4llvm14TargetRegistry14RegisterTargetERNS_6TargetEPKcS4_S4_PFbNS_6Triple8ArchTypeEEb
libLLVM.so.11:_ZN4llvm14TargetRegistry32printRegisteredTargetsForVersionERNS_11raw_ostreamE
libLLVM.so.11:_ZN4llvm14TargetRegistry7targetsEv
libLLVM.so.11:_ZN4llvm14ToolOutputFile16CleanupInstallerC1ENS_9StringRefE
libLLVM.so.11:_ZN4llvm14ToolOutputFile16CleanupInstallerC2ENS_9StringRefE
libLLVM.so.11:_ZN4llvm14ToolOutputFile16CleanupInstallerD1Ev
libLLVM.so.11:_ZN4llvm14ToolOutputFile16CleanupInstallerD2Ev
libLLVM.so.11:_ZN4llvm14ToolOutputFileC1ENS_9StringRefERSt10error_codeNS_3sys2fs9OpenFlagsE
libLLVM.so.11:_ZN4llvm14ToolOutputFileC1ENS_9StringRefEi
libLLVM.so.11:_ZN4llvm14ToolOutputFileC2ENS_9StringRefERSt10error_codeNS_3sys2fs9OpenFlagsE
libLLVM.so.11:_ZN4llvm14ToolOutputFileC2ENS_9StringRefEi
libLLVM.so.11:_ZN4llvm14VirtRegAuxInfo12futureWeightERNS_12LiveIntervalENS_9SlotIndexES3_
libLLVM.so.11:_ZN4llvm14VirtRegAuxInfo16weightCalcHelperERNS_12LiveIntervalEPNS_9SlotIndexES4_
libLLVM.so.11:_ZN4llvm14VirtRegAuxInfo27calculateSpillWeightAndHintERNS_12LiveIntervalE
libLLVM.so.11:_ZN4llvm14buffer_ostream6anchorEv
libLLVM.so.11:_ZN4llvm14checkForCyclesEPKNS_12SelectionDAGEb
libLLVM.so.11:_ZN4llvm14checkForCyclesEPKNS_6SDNodeEPKNS_12SelectionDAGEb
libLLVM.so.11:_ZN4llvm14computeLiveInsERNS_12LivePhysRegsERKNS_17MachineBasicBlockE
libLLVM.so.11:_ZN4llvm14createLICMPassEjj
libLLVM.so.11:_ZN4llvm14createLICMPassEv
libLLVM.so.11:_ZN4llvm14createLintPassEv
libLLVM.so.11:_ZN4llvm14createMinMaxOpERNS_13IRBuilderBaseENS_20RecurrenceDescriptor20MinMaxRecurrenceKindEPNS_5ValueES5_
libLLVM.so.11:_ZN4llvm14createSCCPPassEv
libLLVM.so.11:_ZN4llvm14createSROAPassEv
libLLVM.so.11:_ZN4llvm14deleteConstantEPNS_8ConstantE
libLLVM.so.11:_ZN4llvm14deleteDeadLoopEPNS_4LoopEPNS_13DominatorTreeEPNS_15ScalarEvolutionEPNS_8LoopInfoEPNS_9MemorySSAE
libLLVM.so.11:_ZN4llvm14dropDebugUsersERNS_11InstructionE
libLLVM.so.11:_ZN4llvm14expandDivisionEPNS_14BinaryOperatorE
libLLVM.so.11:_ZN4llvm14finalizeBundleERNS_17MachineBasicBlockENS_14ilist_iteratorINS_12ilist_detail12node_optionsINS_12MachineInstrELb1ELb1EvEELb0ELb0EEE
libLLVM.so.11:_ZN4llvm14finalizeBundleERNS_17MachineBasicBlockENS_14ilist_iteratorINS_12ilist_detail12node_optionsINS_12MachineInstrELb1ELb1EvEELb0ELb0EEES7_
libLLVM.so.11:_ZN4llvm14getFloatFnNameEPKNS_17TargetLibraryInfoEPNS_4TypeENS_7LibFuncES5_S5_
libLLVM.so.11:_ZN4llvm14getMachineTypeENS_9StringRefE
libLLVM.so.11:_ZN4llvm14getPGOFuncNameB5cxx11ENS_9StringRefENS_11GlobalValue12LinkageTypesES0_y
libLLVM.so.11:_ZN4llvm14getPGOFuncNameB5cxx11ERKNS_8FunctionEby
libLLVM.so.11:_ZN4llvm14getRandomBytesEPvj
libLLVM.so.11:_ZN4llvm14getSLEB128SizeEx
libLLVM.so.11:_ZN4llvm14getULEB128SizeEy
libLLVM.so.11:_ZN4llvm14identify_magicENS_9StringRefE
libLLVM.so.11:_ZN4llvm14identify_magicERKNS_5TwineERNS_10file_magicE
libLLVM.so.11:_ZN4llvm14initializeCoreERNS_12PassRegistryE
libLLVM.so.11:_ZN4llvm14isAllocationFnEPKNS_5ValueENS_12function_refIFRKNS_17TargetLibraryInfoERNS_8FunctionEEEEb
libLLVM.so.11:_ZN4llvm14isAllocationFnEPKNS_5ValueEPKNS_17TargetLibraryInfoEb
libLLVM.so.11:_ZN4llvm14isCallocLikeFnEPKNS_5ValueEPKNS_17TargetLibraryInfoEb
libLLVM.so.11:_ZN4llvm14isCriticalEdgeEPKNS_11InstructionEPKNS_10BasicBlockEb
libLLVM.so.11:_ZN4llvm14isCriticalEdgeEPKNS_11InstructionEjb
libLLVM.so.11:_ZN4llvm14isIRPGOFlagSetEPKNS_6ModuleE
libLLVM.so.11:_ZN4llvm14isInlineViableERNS_8FunctionE
libLLVM.so.11:_ZN4llvm14isKnownNonZeroEPKNS_5ValueERKNS_10DataLayoutEjPNS_15AssumptionCacheEPKNS_11InstructionEPKNS_13DominatorTreeEb
libLLVM.so.11:_ZN4llvm14isMallocLikeFnEPKNS_5ValueENS_12function_refIFRKNS_17TargetLibraryInfoERNS_8FunctionEEEEb
libLLVM.so.11:_ZN4llvm14isMallocLikeFnEPKNS_5ValueEPKNS_17TargetLibraryInfoEb
libLLVM.so.11:_ZN4llvm14isNullConstantENS_7SDValueE
libLLVM.so.11:_ZN4llvm14isSafeToExpandEPKNS_4SCEVERNS_15ScalarEvolutionE
libLLVM.so.11:_ZN4llvm14isStrdupLikeFnEPKNS_5ValueEPKNS_17TargetLibraryInfoEb
libLLVM.so.11:_ZN4llvm14lowertypetests13BitSetBuilder5buildEv
libLLVM.so.11:_ZN4llvm14lowertypetests16ByteArrayBuilder8allocateERKSt3setIySt4lessIyESaIyEEyRyRh
libLLVM.so.11:_ZN4llvm14lowertypetests19GlobalLayoutBuilder11addFragmentERKSt3setIySt4lessIyESaIyEE
libLLVM.so.11:_ZN4llvm14lowertypetests20isJumpTableCanonicalEPNS_8FunctionE
libLLVM.so.11:_ZN4llvm14parseAndVerifyEPKhjRNS_11LLVMContextE
libLLVM.so.11:_ZN4llvm14printLowerCaseENS_9StringRefERNS_11raw_ostreamE
libLLVM.so.11:_ZN4llvm14raw_fd_ostream10write_implEPKcj
libLLVM.so.11:_ZN4llvm14raw_fd_ostream11pwrite_implEPKcjy
libLLVM.so.11:_ZN4llvm14raw_fd_ostream4seekEy
libLLVM.so.11:_ZN4llvm14raw_fd_ostream5closeEv
libLLVM.so.11:_ZN4llvm14raw_fd_ostream6anchorEv
libLLVM.so.11:_ZN4llvm14raw_fd_ostreamC1ENS_9StringRefERSt10error_code
libLLVM.so.11:_ZN4llvm14raw_fd_ostreamC1ENS_9StringRefERSt10error_codeNS_3sys2fs10FileAccessE
libLLVM.so.11:_ZN4llvm14raw_fd_ostreamC1ENS_9StringRefERSt10error_codeNS_3sys2fs19CreationDispositionE
libLLVM.so.11:_ZN4llvm14raw_fd_ostreamC1ENS_9StringRefERSt10error_codeNS_3sys2fs19CreationDispositionENS5_10FileAccessENS5_9OpenFlagsE
libLLVM.so.11:_ZN4llvm14raw_fd_ostreamC1ENS_9StringRefERSt10error_codeNS_3sys2fs9OpenFlagsE
libLLVM.so.11:_ZN4llvm14raw_fd_ostreamC1Eibb
libLLVM.so.11:_ZN4llvm14raw_fd_ostreamC2ENS_9StringRefERSt10error_code
libLLVM.so.11:_ZN4llvm14raw_fd_ostreamC2ENS_9StringRefERSt10error_codeNS_3sys2fs10FileAccessE
libLLVM.so.11:_ZN4llvm14raw_fd_ostreamC2ENS_9StringRefERSt10error_codeNS_3sys2fs19CreationDispositionE
libLLVM.so.11:_ZN4llvm14raw_fd_ostreamC2ENS_9StringRefERSt10error_codeNS_3sys2fs19CreationDispositionENS5_10FileAccessENS5_9OpenFlagsE
libLLVM.so.11:_ZN4llvm14raw_fd_ostreamC2ENS_9StringRefERSt10error_codeNS_3sys2fs9OpenFlagsE
libLLVM.so.11:_ZN4llvm14raw_fd_ostreamC2Eibb
libLLVM.so.11:_ZN4llvm14raw_fd_ostreamD0Ev
libLLVM.so.11:_ZN4llvm14raw_fd_ostreamD1Ev
libLLVM.so.11:_ZN4llvm14raw_fd_ostreamD2Ev
libLLVM.so.11:_ZN4llvm14raw_os_ostream10write_implEPKcj
libLLVM.so.11:_ZN4llvm14raw_os_ostreamD0Ev
libLLVM.so.11:_ZN4llvm14raw_os_ostreamD1Ev
libLLVM.so.11:_ZN4llvm14raw_os_ostreamD2Ev
libLLVM.so.11:_ZN4llvm14stripDebugInfoERNS_8FunctionE
libLLVM.so.11:_ZN4llvm14tryPromoteCallERNS_8CallBaseE
libLLVM.so.11:_ZN4llvm14verifyFunctionERKNS_8FunctionEPNS_11raw_ostreamE
libLLVM.so.11:_ZN4llvm15AAValueSimplify17createForPositionERKNS_10IRPositionERNS_10AttributorE
libLLVM.so.11:_ZN4llvm15AliasSetTracker10addPointerENS_14MemoryLocationENS_8AliasSet13AccessLatticeE
libLLVM.so.11:_ZN4llvm15AliasSetTracker10addUnknownEPNS_11InstructionE
libLLVM.so.11:_ZN4llvm15AliasSetTracker11deleteValueEPNS_5ValueE
libLLVM.so.11:_ZN4llvm15AliasSetTracker13ASTCallbackVH19allUsesReplacedWithEPNS_5ValueE
libLLVM.so.11:_ZN4llvm15AliasSetTracker13ASTCallbackVH7deletedEv
libLLVM.so.11:_ZN4llvm15AliasSetTracker13ASTCallbackVHC1EPNS_5ValueEPS0_
libLLVM.so.11:_ZN4llvm15AliasSetTracker13ASTCallbackVHC2EPNS_5ValueEPS0_
libLLVM.so.11:_ZN4llvm15AliasSetTracker13ASTCallbackVHaSEPNS_5ValueE
libLLVM.so.11:_ZN4llvm15AliasSetTracker14getAliasSetForERKNS_14MemoryLocationE
libLLVM.so.11:_ZN4llvm15AliasSetTracker14removeAliasSetEPNS_8AliasSetE
libLLVM.so.11:_ZN4llvm15AliasSetTracker17mergeAllAliasSetsEv
libLLVM.so.11:_ZN4llvm15AliasSetTracker24mergeAliasSetsForPointerEPKNS_5ValueENS_12LocationSizeERKNS_9AAMDNodesERb
libLLVM.so.11:_ZN4llvm15AliasSetTracker26findAliasSetForUnknownInstEPNS_11InstructionE
libLLVM.so.11:_ZN4llvm15AliasSetTracker33addAllInstructionsInLoopUsingMSSAEv
libLLVM.so.11:_ZN4llvm15AliasSetTracker3addEPNS_11InstructionE
libLLVM.so.11:_ZN4llvm15AliasSetTracker3addEPNS_13AnyMemSetInstE
libLLVM.so.11:_ZN4llvm15AliasSetTracker3addEPNS_18AnyMemTransferInstE
libLLVM.so.11:_ZN4llvm15AliasSetTracker3addEPNS_5ValueENS_12LocationSizeERKNS_9AAMDNodesE
libLLVM.so.11:_ZN4llvm15AliasSetTracker3addEPNS_8LoadInstE
libLLVM.so.11:_ZN4llvm15AliasSetTracker3addEPNS_9StoreInstE
libLLVM.so.11:_ZN4llvm15AliasSetTracker3addEPNS_9VAArgInstE
libLLVM.so.11:_ZN4llvm15AliasSetTracker3addERKS0_
libLLVM.so.11:_ZN4llvm15AliasSetTracker3addERNS_10BasicBlockE
libLLVM.so.11:_ZN4llvm15AliasSetTracker5clearEv
libLLVM.so.11:_ZN4llvm15AliasSetTracker9copyValueEPNS_5ValueES2_
libLLVM.so.11:_ZN4llvm15AssumptionCache12scanFunctionEv
libLLVM.so.11:_ZN4llvm15AssumptionCache18registerAssumptionEPNS_8CallInstE
libLLVM.so.11:_ZN4llvm15AssumptionCache20unregisterAssumptionEPNS_8CallInstE
libLLVM.so.11:_ZN4llvm15AssumptionCache20updateAffectedValuesEPNS_8CallInstE
libLLVM.so.11:_ZN4llvm15AssumptionCache23AffectedValueCallbackVH19allUsesReplacedWithEPNS_5ValueE
libLLVM.so.11:_ZN4llvm15AssumptionCache23AffectedValueCallbackVH7deletedEv
libLLVM.so.11:_ZN4llvm15AssumptionCache25getOrInsertAffectedValuesEPNS_5ValueE
libLLVM.so.11:_ZN4llvm15AssumptionCache29transferAffectedValuesInCacheEPNS_5ValueES2_
libLLVM.so.11:_ZN4llvm15BaseIndexOffset15computeAliasingEPKNS_6SDNodeENS_8OptionalIxEES3_S5_RKNS_12SelectionDAGERb
libLLVM.so.11:_ZN4llvm15BaseIndexOffset5matchEPKNS_6SDNodeERKNS_12SelectionDAGE
libLLVM.so.11:_ZN4llvm15BinaryStreamRefC1ENS_8ArrayRefIhEENS_7support10endiannessE
libLLVM.so.11:_ZN4llvm15BinaryStreamRefC1ENS_9StringRefENS_7support10endiannessE
libLLVM.so.11:_ZN4llvm15BinaryStreamRefC1ERNS_12BinaryStreamE
libLLVM.so.11:_ZN4llvm15BinaryStreamRefC1ERNS_12BinaryStreamEjNS_8OptionalIjEE
libLLVM.so.11:_ZN4llvm15BinaryStreamRefC2ENS_8ArrayRefIhEENS_7support10endiannessE
libLLVM.so.11:_ZN4llvm15BinaryStreamRefC2ENS_9StringRefENS_7support10endiannessE
libLLVM.so.11:_ZN4llvm15BinaryStreamRefC2ERNS_12BinaryStreamE
libLLVM.so.11:_ZN4llvm15BinaryStreamRefC2ERNS_12BinaryStreamEjNS_8OptionalIjEE
libLLVM.so.11:_ZN4llvm15BitcodeAnalyzer10parseBlockEjjNS_8OptionalINS_13BCDumpOptionsEEENS1_INS_9StringRefEEE
libLLVM.so.11:_ZN4llvm15BitcodeAnalyzer10printStatsENS_13BCDumpOptionsENS_8OptionalINS_9StringRefEEE
libLLVM.so.11:_ZN4llvm15BitcodeAnalyzer25decodeMetadataStringsBlobENS_9StringRefENS_8ArrayRefIyEES1_RNS_11raw_ostreamE
libLLVM.so.11:_ZN4llvm15BitcodeAnalyzer7analyzeENS_8OptionalINS_13BCDumpOptionsEEENS1_INS_9StringRefEEE
libLLVM.so.11:_ZN4llvm15BitcodeAnalyzerC1ENS_9StringRefENS_8OptionalIS1_EE
libLLVM.so.11:_ZN4llvm15BitcodeAnalyzerC2ENS_9StringRefENS_8OptionalIS1_EE
libLLVM.so.11:_ZN4llvm15BitstreamCursor10readRecordEjRNS_15SmallVectorImplIyEEPNS_9StringRefE
libLLVM.so.11:_ZN4llvm15BitstreamCursor10skipRecordEj
libLLVM.so.11:_ZN4llvm15BitstreamCursor13EnterSubBlockEjPj
libLLVM.so.11:_ZN4llvm15BitstreamCursor16ReadAbbrevRecordEv
libLLVM.so.11:_ZN4llvm15BitstreamCursor18ReadBlockInfoBlockEb
libLLVM.so.11:_ZN4llvm15CatchReturnInst4initEPNS_5ValueEPNS_10BasicBlockE
libLLVM.so.11:_ZN4llvm15CatchReturnInstC1EPNS_5ValueEPNS_10BasicBlockEPNS_11InstructionE
libLLVM.so.11:_ZN4llvm15CatchReturnInstC1EPNS_5ValueEPNS_10BasicBlockES4_
libLLVM.so.11:_ZN4llvm15CatchReturnInstC1ERKS0_
libLLVM.so.11:_ZN4llvm15CatchReturnInstC2EPNS_5ValueEPNS_10BasicBlockEPNS_11InstructionE
libLLVM.so.11:_ZN4llvm15CatchReturnInstC2EPNS_5ValueEPNS_10BasicBlockES4_
libLLVM.so.11:_ZN4llvm15CatchReturnInstC2ERKS0_
libLLVM.so.11:_ZN4llvm15CatchSwitchInst10addHandlerEPNS_10BasicBlockE
libLLVM.so.11:_ZN4llvm15CatchSwitchInst12growOperandsEj
libLLVM.so.11:_ZN4llvm15CatchSwitchInst13removeHandlerENS_15mapped_iteratorIPNS_3UseEPFPNS_10BasicBlockEPNS_5ValueEES5_EE
libLLVM.so.11:_ZN4llvm15CatchSwitchInst4initEPNS_5ValueEPNS_10BasicBlockEj
libLLVM.so.11:_ZN4llvm15CatchSwitchInstC1EPNS_5ValueEPNS_10BasicBlockEjRKNS_5TwineEPNS_11InstructionE
libLLVM.so.11:_ZN4llvm15CatchSwitchInstC1EPNS_5ValueEPNS_10BasicBlockEjRKNS_5TwineES4_
libLLVM.so.11:_ZN4llvm15CatchSwitchInstC1ERKS0_
libLLVM.so.11:_ZN4llvm15CatchSwitchInstC2EPNS_5ValueEPNS_10BasicBlockEjRKNS_5TwineEPNS_11InstructionE
libLLVM.so.11:_ZN4llvm15CatchSwitchInstC2EPNS_5ValueEPNS_10BasicBlockEjRKNS_5TwineES4_
libLLVM.so.11:_ZN4llvm15CatchSwitchInstC2ERKS0_
libLLVM.so.11:_ZN4llvm15CloneBasicBlockEPKNS_10BasicBlockERNS_8ValueMapIPKNS_5ValueENS_14WeakTrackingVHENS_14ValueMapConfigIS6_NS_3sys10SmartMutexILb0EEEEEEERKNS_5TwineEPNS_8FunctionEPNS_14ClonedCodeInfoEPNS_15DebugInfoFinderE
libLLVM.so.11:_ZN4llvm15CodeGenCoverage10setCoveredEy
libLLVM.so.11:_ZN4llvm15CodeGenCoverage5parseERNS_12MemoryBufferENS_9StringRefE
libLLVM.so.11:_ZN4llvm15CodeGenCoverage5resetEv
libLLVM.so.11:_ZN4llvm15CodeGenCoverageC1Ev
libLLVM.so.11:_ZN4llvm15CodeGenCoverageC2Ev
libLLVM.so.11:_ZN4llvm15CodeViewContext11recordCVLocERNS_9MCContextEPKNS_8MCSymbolEjjjjbb
libLLVM.so.11:_ZN4llvm15CodeViewContext12addLineEntryERKNS_7MCCVLocE
libLLVM.so.11:_ZN4llvm15CodeViewContext12emitDefRangeERNS_16MCObjectStreamerENS_8ArrayRefISt4pairIPKNS_8MCSymbolES7_EEENS_9StringRefE
libLLVM.so.11:_ZN4llvm15CodeViewContext13getLineExtentEj
libLLVM.so.11:_ZN4llvm15CodeViewContext14encodeDefRangeERNS_11MCAsmLayoutERNS_20MCCVDefRangeFragmentE
libLLVM.so.11:_ZN4llvm15CodeViewContext15emitStringTableERNS_16MCObjectStreamerE
libLLVM.so.11:_ZN4llvm15CodeViewContext16addToStringTableENS_9StringRefE
libLLVM.so.11:_ZN4llvm15CodeViewContext16recordFunctionIdEj
libLLVM.so.11:_ZN4llvm15CodeViewContext17emitFileChecksumsERNS_16MCObjectStreamerE
libLLVM.so.11:_ZN4llvm15CodeViewContext17getCVFunctionInfoEj
libLLVM.so.11:_ZN4llvm15CodeViewContext17getLinesForExtentEjj
libLLVM.so.11:_ZN4llvm15CodeViewContext20getStringTableOffsetENS_9StringRefE
libLLVM.so.11:_ZN4llvm15CodeViewContext21encodeInlineLineTableERNS_11MCAsmLayoutERNS_27MCCVInlineLineTableFragmentE
libLLVM.so.11:_ZN4llvm15CodeViewContext22emitFileChecksumOffsetERNS_16MCObjectStreamerEj
libLLVM.so.11:_ZN4llvm15CodeViewContext22getFunctionLineEntriesEj
libLLVM.so.11:_ZN4llvm15CodeViewContext22getStringTableFragmentEv
libLLVM.so.11:_ZN4llvm15CodeViewContext23recordInlinedCallSiteIdEjjjjj
libLLVM.so.11:_ZN4llvm15CodeViewContext24emitLineTableForFunctionERNS_16MCObjectStreamerEjPKNS_8MCSymbolES5_
libLLVM.so.11:_ZN4llvm15CodeViewContext30emitInlineLineTableForFunctionERNS_16MCObjectStreamerEjjjPKNS_8MCSymbolES5_
libLLVM.so.11:_ZN4llvm15CodeViewContext7addFileERNS_10MCStreamerEjNS_9StringRefENS_8ArrayRefIhEEh
libLLVM.so.11:_ZN4llvm15CodeViewContextC1Ev
libLLVM.so.11:_ZN4llvm15CodeViewContextC2Ev
libLLVM.so.11:_ZN4llvm15CodeViewContextD1Ev
libLLVM.so.11:_ZN4llvm15CodeViewContextD2Ev
libLLVM.so.11:_ZN4llvm15ComputeMultipleEPNS_5ValueEjRS1_bj
libLLVM.so.11:_ZN4llvm15ComputeValueVTsERKNS_14TargetLoweringERKNS_10DataLayoutEPNS_4TypeERNS_15SmallVectorImplINS_3EVTEEEPNS8_IyEEy
libLLVM.so.11:_ZN4llvm15ComputeValueVTsERKNS_14TargetLoweringERKNS_10DataLayoutEPNS_4TypeERNS_15SmallVectorImplINS_3EVTEEEPSA_PNS8_IyEEy
libLLVM.so.11:_ZN4llvm15CoroCleanupPass3runERNS_8FunctionERNS_15AnalysisManagerIS1_JEEE
libLLVM.so.11:_ZN4llvm15CrossDSOCFIPass3runERNS_6ModuleERNS_15AnalysisManagerIS1_JEEE
libLLVM.so.11:_ZN4llvm15DICompositeType10getODRTypeERNS_11LLVMContextERNS_8MDStringEjPS3_PNS_8MetadataEjS7_S7_yjyNS_6DINode7DIFlagsES7_jS7_S7_S7_S7_
libLLVM.so.11:_ZN4llvm15DICompositeType12buildODRTypeERNS_11LLVMContextERNS_8MDStringEjPS3_PNS_8MetadataEjS7_S7_yjyNS_6DINode7DIFlagsES7_jS7_S7_S7_S7_
libLLVM.so.11:_ZN4llvm15DICompositeType18getODRTypeIfExistsERNS_11LLVMContextERNS_8MDStringE
libLLVM.so.11:_ZN4llvm15DICompositeType7getImplERNS_11LLVMContextEjPNS_8MDStringEPNS_8MetadataEjS6_S6_yjyNS_6DINode7DIFlagsES6_jS6_S6_S4_S6_S6_NS5_11StorageTypeEb
libLLVM.so.11:_ZN4llvm15DILocalVariable7getImplERNS_11LLVMContextEPNS_8MetadataEPNS_8MDStringES4_jS4_jNS_6DINode7DIFlagsEjNS3_11StorageTypeEb
libLLVM.so.11:_ZN4llvm15DWARFDebugFrame5parseENS_18DWARFDataExtractorE
libLLVM.so.11:_ZN4llvm15DWARFDebugFrameC1ENS_6Triple8ArchTypeEby
libLLVM.so.11:_ZN4llvm15DWARFDebugFrameC2ENS_6Triple8ArchTypeEby
libLLVM.so.11:_ZN4llvm15DWARFDebugFrameD1Ev
libLLVM.so.11:_ZN4llvm15DWARFDebugFrameD2Ev
libLLVM.so.11:_ZN4llvm15DWARFDebugMacro11MacroHeader16parseMacroHeaderENS_18DWARFDataExtractorEPy
libLLVM.so.11:_ZN4llvm15DWARFDebugMacro9parseImplENS_8OptionalINS_14iterator_rangeIPSt10unique_ptrINS_9DWARFUnitESt14default_deleteIS4_EEEEEENS1_INS_13DataExtractorEEENS_18DWARFDataExtractorEb
libLLVM.so.11:_ZN4llvm15DWARFDebugNames13AbbrevMapInfo11getEmptyKeyEv
libLLVM.so.11:_ZN4llvm15DWARFDebugNames13AbbrevMapInfo15getTombstoneKeyEv
libLLVM.so.11:_ZN4llvm15DWARFDebugNames13ValueIterator18findInCurrentIndexEv
libLLVM.so.11:_ZN4llvm15DWARFDebugNames13ValueIterator23getEntryAtCurrentOffsetEv
libLLVM.so.11:_ZN4llvm15DWARFDebugNames13ValueIterator29findEntryOffsetInCurrentIndexEv
libLLVM.so.11:_ZN4llvm15DWARFDebugNames13ValueIterator29searchFromStartOfCurrentIndexEv
libLLVM.so.11:_ZN4llvm15DWARFDebugNames13ValueIterator4nextEv
libLLVM.so.11:_ZN4llvm15DWARFDebugNames13ValueIteratorC1ERKNS0_9NameIndexENS_9StringRefE
libLLVM.so.11:_ZN4llvm15DWARFDebugNames13ValueIteratorC1ERKS0_NS_9StringRefE
libLLVM.so.11:_ZN4llvm15DWARFDebugNames13ValueIteratorC2ERKNS0_9NameIndexENS_9StringRefE
libLLVM.so.11:_ZN4llvm15DWARFDebugNames13ValueIteratorC2ERKS0_NS_9StringRefE
libLLVM.so.11:_ZN4llvm15DWARFDebugNames14getCUNameIndexEy
libLLVM.so.11:_ZN4llvm15DWARFDebugNames5EntryC1ERKNS0_9NameIndexERKNS0_6AbbrevE
libLLVM.so.11:_ZN4llvm15DWARFDebugNames5EntryC2ERKNS0_9NameIndexERKNS0_6AbbrevE
libLLVM.so.11:_ZN4llvm15DWARFDebugNames6Header7extractERKNS_18DWARFDataExtractorEPy
libLLVM.so.11:_ZN4llvm15DWARFDebugNames7extractEv
libLLVM.so.11:_ZN4llvm15DWARFDebugNames9NameIndex13extractAbbrevEPy
libLLVM.so.11:_ZN4llvm15DWARFDebugNames9NameIndex24extractAttributeEncodingEPy
libLLVM.so.11:_ZN4llvm15DWARFDebugNames9NameIndex25extractAttributeEncodingsEPy
libLLVM.so.11:_ZN4llvm15DWARFDebugNames9NameIndex7extractEv
libLLVM.so.11:_ZN4llvm15DWARFExpression12printCompactERNS_11raw_ostreamERKNS_14MCRegisterInfoE
libLLVM.so.11:_ZN4llvm15DWARFExpression6verifyEPNS_9DWARFUnitE
libLLVM.so.11:_ZN4llvm15DWARFExpression9Operation5printERNS_11raw_ostreamEPKS0_PKNS_14MCRegisterInfoEPNS_9DWARFUnitEb
libLLVM.so.11:_ZN4llvm15DWARFExpression9Operation6verifyEPNS_9DWARFUnitE
libLLVM.so.11:_ZN4llvm15DWARFExpression9Operation7extractENS_13DataExtractorEhyNS_8OptionalINS_5dwarf11DwarfFormatEEE
libLLVM.so.11:_ZN4llvm15DWARFUnitHeader15applyIndexEntryEPKNS_14DWARFUnitIndex5EntryE
libLLVM.so.11:_ZN4llvm15DWARFUnitHeader7extractERNS_12DWARFContextERKNS_18DWARFDataExtractorEPyNS_16DWARFSectionKindE
libLLVM.so.11:_ZN4llvm15DWARFUnitVector12addUnitsImplERNS_12DWARFContextERKNS_11DWARFObjectERKNS_12DWARFSectionEPKNS_16DWARFDebugAbbrevEPS7_SC_NS_9StringRefES8_SC_S8_bbbNS_16DWARFSectionKindE
libLLVM.so.11:_ZN4llvm15DWARFUnitVector18addUnitsForSectionERNS_12DWARFContextERKNS_12DWARFSectionENS_16DWARFSectionKindE
libLLVM.so.11:_ZN4llvm15DWARFUnitVector20getUnitForIndexEntryERKNS_14DWARFUnitIndex5EntryE
libLLVM.so.11:_ZN4llvm15DWARFUnitVector21addUnitsForDWOSectionERNS_12DWARFContextERKNS_12DWARFSectionENS_16DWARFSectionKindEb
libLLVM.so.11:_ZN4llvm15DWARFUnitVector7addUnitESt10unique_ptrINS_9DWARFUnitESt14default_deleteIS2_EE
libLLVM.so.11:_ZN4llvm15DebugInfoFinder11processTypeEPNS_6DITypeE
libLLVM.so.11:_ZN4llvm15DebugInfoFinder12processScopeEPNS_7DIScopeE
libLLVM.so.11:_ZN4llvm15DebugInfoFinder13addSubprogramEPNS_12DISubprogramE
libLLVM.so.11:_ZN4llvm15DebugInfoFinder13processModuleERKNS_6ModuleE
libLLVM.so.11:_ZN4llvm15DebugInfoFinder14addCompileUnitEPNS_13DICompileUnitE
libLLVM.so.11:_ZN4llvm15DebugInfoFinder15processLocationERKNS_6ModuleEPKNS_10DILocationE
libLLVM.so.11:_ZN4llvm15DebugInfoFinder15processVariableERKNS_6ModuleERKNS_20DbgVariableIntrinsicE
libLLVM.so.11:_ZN4llvm15DebugInfoFinder17addGlobalVariableEPNS_26DIGlobalVariableExpressionE
libLLVM.so.11:_ZN4llvm15DebugInfoFinder17processSubprogramEPNS_12DISubprogramE
libLLVM.so.11:_ZN4llvm15DebugInfoFinder18processCompileUnitEPNS_13DICompileUnitE
libLLVM.so.11:_ZN4llvm15DebugInfoFinder18processInstructionERKNS_6ModuleERKNS_11InstructionE
libLLVM.so.11:_ZN4llvm15DebugInfoFinder5resetEv
libLLVM.so.11:_ZN4llvm15DebugInfoFinder7addTypeEPNS_6DITypeE
libLLVM.so.11:_ZN4llvm15DebugInfoFinder8addScopeEPNS_7DIScopeE
libLLVM.so.11:_ZN4llvm15DeclContextTree19getChildDeclContextERNS_11DeclContextERKNS_8DWARFDieERNS_11CompileUnitERNS_10StrongTypeINS_24NonRelocatableStringpoolENS_9UniqueTagEEEb
libLLVM.so.11:_ZN4llvm15DeleteDeadBlockEPNS_10BasicBlockEPNS_14DomTreeUpdaterEb
libLLVM.so.11:_ZN4llvm15DivRemPairsPass3runERNS_8FunctionERNS_15AnalysisManagerIS1_JEEE
libLLVM.so.11:_ZN4llvm15DwarfExpression10addOpPieceEjj
libLLVM.so.11:_ZN4llvm15DwarfExpression10emitConstuEy
libLLVM.so.11:_ZN4llvm15DwarfExpression11setLocationERKNS_15MachineLocationEPKNS_12DIExpressionE
libLLVM.so.11:_ZN4llvm15DwarfExpression13addExpressionEONS_18DIExpressionCursorEj
libLLVM.so.11:_ZN4llvm15DwarfExpression13addMachineRegERKNS_18TargetRegisterInfoEjj
libLLVM.so.11:_ZN4llvm15DwarfExpression13addStackValueEv
libLLVM.so.11:_ZN4llvm15DwarfExpression14emitLegacySExtEj
libLLVM.so.11:_ZN4llvm15DwarfExpression14emitLegacyZExtEj
libLLVM.so.11:_ZN4llvm15DwarfExpression15addWasmLocationEjy
libLLVM.so.11:_ZN4llvm15DwarfExpression15maskSubRegisterEv
libLLVM.so.11:_ZN4llvm15DwarfExpression16cancelEntryValueEv
libLLVM.so.11:_ZN4llvm15DwarfExpression17addFragmentOffsetEPKNS_12DIExpressionE
libLLVM.so.11:_ZN4llvm15DwarfExpression17addSignedConstantEx
libLLVM.so.11:_ZN4llvm15DwarfExpression18finalizeEntryValueEv
libLLVM.so.11:_ZN4llvm15DwarfExpression18setEntryValueFlagsERKNS_15MachineLocationE
libLLVM.so.11:_ZN4llvm15DwarfExpression19addUnsignedConstantERKNS_5APIntE
libLLVM.so.11:_ZN4llvm15DwarfExpression19addUnsignedConstantEy
libLLVM.so.11:_ZN4llvm15DwarfExpression19getOrCreateBaseTypeEjNS_5dwarf8TypeKindE
libLLVM.so.11:_ZN4llvm15DwarfExpression23addMachineRegExpressionERKNS_18TargetRegisterInfoERNS_18DIExpressionCursorEjj
libLLVM.so.11:_ZN4llvm15DwarfExpression25beginEntryValueExpressionERNS_18DIExpressionCursorE
libLLVM.so.11:_ZN4llvm15DwarfExpression6addAndEj
libLLVM.so.11:_ZN4llvm15DwarfExpression6addRegEiPKc
libLLVM.so.11:_ZN4llvm15DwarfExpression6addShrEj
libLLVM.so.11:_ZN4llvm15DwarfExpression7addBRegEii
libLLVM.so.11:_ZN4llvm15DwarfExpression8addFBRegEi
libLLVM.so.11:_ZN4llvm15DwarfExpression8finalizeEv
libLLVM.so.11:_ZN4llvm15DwarfStringPool12getEntryImplERNS_10AsmPrinterENS_9StringRefE
libLLVM.so.11:_ZN4llvm15DwarfStringPool15getIndexedEntryERNS_10AsmPrinterENS_9StringRefE
libLLVM.so.11:_ZN4llvm15DwarfStringPool28emitStringOffsetsTableHeaderERNS_10AsmPrinterEPNS_9MCSectionEPNS_8MCSymbolE
libLLVM.so.11:_ZN4llvm15DwarfStringPool4emitERNS_10AsmPrinterEPNS_9MCSectionES4_b
libLLVM.so.11:_ZN4llvm15DwarfStringPool8getEntryERNS_10AsmPrinterENS_9StringRefE
libLLVM.so.11:_ZN4llvm15DwarfStringPoolC1ERNS_20BumpPtrAllocatorImplINS_15MallocAllocatorELj4096ELj4096ELj128EEERNS_10AsmPrinterENS_9StringRefE
libLLVM.so.11:_ZN4llvm15DwarfStringPoolC2ERNS_20BumpPtrAllocatorImplINS_15MallocAllocatorELj4096ELj4096ELj128EEERNS_10AsmPrinterENS_9StringRefE
libLLVM.so.11:_ZN4llvm15ExecutionEngine10addArchiveENS_6object12OwningBinaryINS1_7ArchiveEEE
libLLVM.so.11:_ZN4llvm15ExecutionEngine11emitGlobalsEv
libLLVM.so.11:_ZN4llvm15ExecutionEngine12removeModuleEPNS_6ModuleE
libLLVM.so.11:_ZN4llvm15ExecutionEngine13addObjectFileENS_6object12OwningBinaryINS1_10ObjectFileEEE
libLLVM.so.11:_ZN4llvm15ExecutionEngine13addObjectFileESt10unique_ptrINS_6object10ObjectFileESt14default_deleteIS3_EE
libLLVM.so.11:_ZN4llvm15ExecutionEngine14getMangledNameB5cxx11EPKNS_11GlobalValueE
libLLVM.so.11:_ZN4llvm15ExecutionEngine14getMemoryForGVEPKNS_14GlobalVariableE
libLLVM.so.11:_ZN4llvm15ExecutionEngine16InitializeMemoryEPKNS_8ConstantEPv
libLLVM.so.11:_ZN4llvm15ExecutionEngine16addGlobalMappingENS_9StringRefEy
libLLVM.so.11:_ZN4llvm15ExecutionEngine16addGlobalMappingEPKNS_11GlobalValueEPv
libLLVM.so.11:_ZN4llvm15ExecutionEngine16getConstantValueEPKNS_8ConstantE
libLLVM.so.11:_ZN4llvm15ExecutionEngine17FindFunctionNamedENS_9StringRefE
libLLVM.so.11:_ZN4llvm15ExecutionEngine17runFunctionAsMainEPNS_8FunctionERKSt6vectorINSt7__cxx1112basic_stringIcSt11char_traitsIcESaIcEEESaIS9_EEPKPKc
libLLVM.so.11:_ZN4llvm15ExecutionEngine18StoreValueToMemoryERKNS_12GenericValueEPS1_PNS_4TypeE
libLLVM.so.11:_ZN4llvm15ExecutionEngine18emitGlobalVariableEPKNS_14GlobalVariableE
libLLVM.so.11:_ZN4llvm15ExecutionEngine18getPointerToGlobalEPKNS_11GlobalValueE
libLLVM.so.11:_ZN4llvm15ExecutionEngine19LoadValueFromMemoryERNS_12GenericValueEPS1_PNS_4TypeE
libLLVM.so.11:_ZN4llvm15ExecutionEngine19updateGlobalMappingENS_9StringRefEy
libLLVM.so.11:_ZN4llvm15ExecutionEngine19updateGlobalMappingEPKNS_11GlobalValueEPv
libLLVM.so.11:_ZN4llvm15ExecutionEngine22clearAllGlobalMappingsEv
libLLVM.so.11:_ZN4llvm15ExecutionEngine23FindGlobalVariableNamedENS_9StringRefEb
libLLVM.so.11:_ZN4llvm15ExecutionEngine23getGlobalValueAtAddressEPv
libLLVM.so.11:_ZN4llvm15ExecutionEngine29clearGlobalMappingsFromModuleEPNS_6ModuleE
libLLVM.so.11:_ZN4llvm15ExecutionEngine29getAddressToGlobalIfAvailableENS_9StringRefE
libLLVM.so.11:_ZN4llvm15ExecutionEngine29getPointerToGlobalIfAvailableENS_9StringRefE
libLLVM.so.11:_ZN4llvm15ExecutionEngine29getPointerToGlobalIfAvailableEPKNS_11GlobalValueE
libLLVM.so.11:_ZN4llvm15ExecutionEngine32runStaticConstructorsDestructorsERNS_6ModuleEb
libLLVM.so.11:_ZN4llvm15ExecutionEngine32runStaticConstructorsDestructorsEb
libLLVM.so.11:_ZN4llvm15ExecutionEngine4InitESt10unique_ptrINS_6ModuleESt14default_deleteIS2_EE
libLLVM.so.11:_ZN4llvm15ExecutionEngineC2ENS_10DataLayoutESt10unique_ptrINS_6ModuleESt14default_deleteIS3_EE
libLLVM.so.11:_ZN4llvm15ExecutionEngineC2ESt10unique_ptrINS_6ModuleESt14default_deleteIS2_EE
libLLVM.so.11:_ZN4llvm15ExecutionEngineD0Ev
libLLVM.so.11:_ZN4llvm15ExecutionEngineD1Ev
libLLVM.so.11:_ZN4llvm15ExecutionEngineD2Ev
libLLVM.so.11:_ZN4llvm15ExtractTypeInfoEPNS_5ValueE
libLLVM.so.11:_ZN4llvm15FindDbgAddrUsesEPNS_5ValueE
libLLVM.so.11:_ZN4llvm15FixedVectorType3getEPNS_4TypeEj
libLLVM.so.11:_ZN4llvm15GetStringLengthEPKNS_5ValueEj
libLLVM.so.11:_ZN4llvm15GlobalSplitPass3runERNS_6ModuleERNS_15AnalysisManagerIS1_JEEE
libLLVM.so.11:_ZN4llvm15GlobalsAAResult10invalidateERNS_6ModuleERKNS_17PreservedAnalysesERNS_15AnalysisManagerIS1_JEE11InvalidatorE
libLLVM.so.11:_ZN4llvm15GlobalsAAResult13analyzeModuleERNS_6ModuleESt8functionIFRKNS_17TargetLibraryInfoERNS_8FunctionEEERNS_9CallGraphE
libLLVM.so.11:_ZN4llvm15GlobalsAAResult13getModRefInfoEPKNS_8CallBaseERKNS_14MemoryLocationERNS_11AAQueryInfoE
libLLVM.so.11:_ZN4llvm15GlobalsAAResult14AnalyzeGlobalsERNS_6ModuleE
libLLVM.so.11:_ZN4llvm15GlobalsAAResult15getFunctionInfoEPKNS_8FunctionE
libLLVM.so.11:_ZN4llvm15GlobalsAAResult16AnalyzeCallGraphERNS_9CallGraphERNS_6ModuleE
libLLVM.so.11:_ZN4llvm15GlobalsAAResult17getModRefBehaviorEPKNS_8CallBaseE
libLLVM.so.11:_ZN4llvm15GlobalsAAResult17getModRefBehaviorEPKNS_8FunctionE
libLLVM.so.11:_ZN4llvm15GlobalsAAResult20AnalyzeUsesOfPointerEPNS_5ValueEPNS_15SmallPtrSetImplIPNS_8FunctionEEES7_PNS_11GlobalValueE
libLLVM.so.11:_ZN4llvm15GlobalsAAResult20CollectSCCMembershipERNS_9CallGraphE
libLLVM.so.11:_ZN4llvm15GlobalsAAResult22DeletionCallbackHandle7deletedEv
libLLVM.so.11:_ZN4llvm15GlobalsAAResult24getModRefInfoForArgumentEPKNS_8CallBaseEPKNS_11GlobalValueERNS_11AAQueryInfoE
libLLVM.so.11:_ZN4llvm15GlobalsAAResult26isNonEscapingGlobalNoAliasEPKNS_11GlobalValueEPKNS_5ValueE
libLLVM.so.11:_ZN4llvm15GlobalsAAResult27AnalyzeIndirectGlobalMemoryEPNS_14GlobalVariableE
libLLVM.so.11:_ZN4llvm15GlobalsAAResult5aliasERKNS_14MemoryLocationES3_RNS_11AAQueryInfoE
libLLVM.so.11:_ZN4llvm15GlobalsAAResultC1EOS0_
libLLVM.so.11:_ZN4llvm15GlobalsAAResultC1ERKNS_10DataLayoutESt8functionIFRKNS_17TargetLibraryInfoERNS_8FunctionEEE
libLLVM.so.11:_ZN4llvm15GlobalsAAResultC2EOS0_
libLLVM.so.11:_ZN4llvm15GlobalsAAResultC2ERKNS_10DataLayoutESt8functionIFRKNS_17TargetLibraryInfoERNS_8FunctionEEE
libLLVM.so.11:_ZN4llvm15GlobalsAAResultD1Ev
libLLVM.so.11:_ZN4llvm15GlobalsAAResultD2Ev
libLLVM.so.11:_ZN4llvm15GlobalsMetadataC1ERNS_6ModuleE
libLLVM.so.11:_ZN4llvm15GlobalsMetadataC2ERNS_6ModuleE
libLLVM.so.11:_ZN4llvm15IRBuilderFolderD0Ev
libLLVM.so.11:_ZN4llvm15IRBuilderFolderD1Ev
libLLVM.so.11:_ZN4llvm15IRBuilderFolderD2Ev
libLLVM.so.11:_ZN4llvm15IVUsersAnalysis3runERNS_4LoopERNS_15AnalysisManagerIS1_JRNS_27LoopStandardAnalysisResultsEEEES5_
libLLVM.so.11:_ZN4llvm15InsertValueInst4initEPNS_5ValueES2_NS_8ArrayRefIjEERKNS_5TwineE
libLLVM.so.11:_ZN4llvm15InsertValueInstC1ERKS0_
libLLVM.so.11:_ZN4llvm15InsertValueInstC2ERKS0_
libLLVM.so.11:_ZN4llvm15InstCombinePass3runERNS_8FunctionERNS_15AnalysisManagerIS1_JEEE
libLLVM.so.11:_ZN4llvm15InstCombinePassC1Ej
libLLVM.so.11:_ZN4llvm15InstCombinePassC1Ev
libLLVM.so.11:_ZN4llvm15InstCombinePassC2Ej
libLLVM.so.11:_ZN4llvm15InstCombinePassC2Ev
libLLVM.so.11:_ZN4llvm15InstrProfReader16accumulateCountsERNS_17CountSumOrPercentEb
libLLVM.so.11:_ZN4llvm15InstrProfReader6createERKNS_5TwineE
libLLVM.so.11:_ZN4llvm15InstrProfReader6createESt10unique_ptrINS_12MemoryBufferESt14default_deleteIS2_EE
libLLVM.so.11:_ZN4llvm15InstrProfRecord10remapValueEyjPNS_15InstrProfSymtabE
libLLVM.so.11:_ZN4llvm15InstrProfRecord12addValueDataEjjP18InstrProfValueDatajPNS_15InstrProfSymtabE
libLLVM.so.11:_ZN4llvm15InstrProfRecord18mergeValueProfDataEjRS0_yNS_12function_refIFvNS_15instrprof_errorEEEE
libLLVM.so.11:_ZN4llvm15InstrProfRecord18scaleValueProfDataEjyNS_12function_refIFvNS_15instrprof_errorEEEE
libLLVM.so.11:_ZN4llvm15InstrProfRecord20overlapValueProfDataEjRS0_RNS_12OverlapStatsES3_
libLLVM.so.11:_ZN4llvm15InstrProfRecord5mergeERS0_yNS_12function_refIFvNS_15instrprof_errorEEEE
libLLVM.so.11:_ZN4llvm15InstrProfRecord5scaleEyNS_12function_refIFvNS_15instrprof_errorEEEE
libLLVM.so.11:_ZN4llvm15InstrProfRecord7overlapERS0_RNS_12OverlapStatsES3_y
libLLVM.so.11:_ZN4llvm15InstrProfSymtab11getFuncNameEyj
libLLVM.so.11:_ZN4llvm15InstrProfSymtab26getFunctionHashFromAddressEy
libLLVM.so.11:_ZN4llvm15InstrProfSymtab6createERNS_6ModuleEb
libLLVM.so.11:_ZN4llvm15InstrProfSymtab6createERNS_6object10SectionRefE
libLLVM.so.11:_ZN4llvm15InstrProfWriter11writeBufferEv
libLLVM.so.11:_ZN4llvm15InstrProfWriter13overlapRecordEONS_20NamedInstrProfRecordERNS_12OverlapStatsES4_RKNS_18OverlapFuncFiltersE
libLLVM.so.11:_ZN4llvm15InstrProfWriter15setOutputSparseEb
libLLVM.so.11:_ZN4llvm15InstrProfWriter16shouldEncodeDataERKNS_13SmallDenseMapIyNS_15InstrProfRecordELj4ENS_12DenseMapInfoIyEENS_6detail12DenseMapPairIyS2_EEEE
libLLVM.so.11:_ZN4llvm15InstrProfWriter17writeRecordInTextENS_9StringRefEyRKNS_15InstrProfRecordERNS_15InstrProfSymtabERNS_14raw_fd_ostreamE
libLLVM.so.11:_ZN4llvm15InstrProfWriter22mergeRecordsFromWriterEOS0_NS_12function_refIFvNS_5ErrorEEEE
libLLVM.so.11:_ZN4llvm15InstrProfWriter26setValueProfDataEndiannessENS_7support10endiannessE
libLLVM.so.11:_ZN4llvm15InstrProfWriter5writeERNS_14raw_fd_ostreamE
libLLVM.so.11:_ZN4llvm15InstrProfWriter9addRecordENS_9StringRefEyONS_15InstrProfRecordEyNS_12function_refIFvNS_5ErrorEEEE
libLLVM.so.11:_ZN4llvm15InstrProfWriter9addRecordEONS_20NamedInstrProfRecordEyNS_12function_refIFvNS_5ErrorEEEE
libLLVM.so.11:_ZN4llvm15InstrProfWriter9writeImplERNS_11ProfOStreamE
libLLVM.so.11:_ZN4llvm15InstrProfWriter9writeTextERNS_14raw_fd_ostreamE
libLLVM.so.11:_ZN4llvm15InstrProfWriterC1Eb
libLLVM.so.11:_ZN4llvm15InstrProfWriterC2Eb
libLLVM.so.11:_ZN4llvm15InstrProfWriterD1Ev
libLLVM.so.11:_ZN4llvm15InstrProfWriterD2Ev
libLLVM.so.11:_ZN4llvm15InternalizePass16maybeInternalizeERNS_11GlobalValueERKNS_8DenseSetIPKNS_6ComdatENS_12DenseMapInfoIS6_EEEE
libLLVM.so.11:_ZN4llvm15InternalizePass16shouldPreserveGVERKNS_11GlobalValueE
libLLVM.so.11:_ZN4llvm15InternalizePass17internalizeModuleERNS_6ModuleEPNS_9CallGraphE
libLLVM.so.11:_ZN4llvm15InternalizePass21checkComdatVisibilityERNS_11GlobalValueERNS_8DenseSetIPKNS_6ComdatENS_12DenseMapInfoIS6_EEEE
libLLVM.so.11:_ZN4llvm15InternalizePass3runERNS_6ModuleERNS_15AnalysisManagerIS1_JEEE
libLLVM.so.11:_ZN4llvm15InternalizePassC1Ev
libLLVM.so.11:_ZN4llvm15InternalizePassC2Ev
libLLVM.so.11:_ZN4llvm15IntervalMapImpl10distributeEjjjPKjPjjb
libLLVM.so.11:_ZN4llvm15IntervalMapImpl4Path11replaceRootEPvjSt4pairIjjE
libLLVM.so.11:_ZN4llvm15IntervalMapImpl4Path8moveLeftEj
libLLVM.so.11:_ZN4llvm15IntervalMapImpl4Path9moveRightEj
libLLVM.so.11:_ZN4llvm15LLVMContextImpl14setOptPassGateERNS_11OptPassGateE
libLLVM.so.11:_ZN4llvm15LLVMContextImpl20getOrInsertBundleTagENS_9StringRefE
libLLVM.so.11:_ZN4llvm15LLVMContextImpl22getOrInsertSyncScopeIDENS_9StringRefE
libLLVM.so.11:_ZN4llvm15LLVMContextImpl31dropTriviallyDeadConstantArraysEv
libLLVM.so.11:_ZN4llvm15LLVMContextImplC1ERNS_11LLVMContextE
libLLVM.so.11:_ZN4llvm15LLVMContextImplC2ERNS_11LLVMContextE
libLLVM.so.11:_ZN4llvm15LLVMContextImplD1Ev
libLLVM.so.11:_ZN4llvm15LLVMContextImplD2Ev
libLLVM.so.11:_ZN4llvm15LayoutAlignElem3getENS_13AlignTypeEnumENS_5AlignES2_j
libLLVM.so.11:_ZN4llvm15LegalizerHelper10bitcastDstERNS_12MachineInstrENS_3LLTEj
libLLVM.so.11:_ZN4llvm15LegalizerHelper10bitcastSrcERNS_12MachineInstrENS_3LLTEj
libLLVM.so.11:_ZN4llvm15LegalizerHelper10lowerBswapERNS_12MachineInstrE
libLLVM.so.11:_ZN4llvm15LegalizerHelper11insertPartsENS_8RegisterENS_3LLTES2_NS_8ArrayRefIS1_EES2_S4_
libLLVM.so.11:_ZN4llvm15LegalizerHelper11lowerFFloorERNS_12MachineInstrE
libLLVM.so.11:_ZN4llvm15LegalizerHelper11lowerFPTOSIERNS_12MachineInstrE
libLLVM.so.11:_ZN4llvm15LegalizerHelper11lowerFPTOUIERNS_12MachineInstrEjNS_3LLTE
libLLVM.so.11:_ZN4llvm15LegalizerHelper11lowerInsertERNS_12MachineInstrE
libLLVM.so.11:_ZN4llvm15LegalizerHelper11lowerMinMaxERNS_12MachineInstrEjNS_3LLTE
libLLVM.so.11:_ZN4llvm15LegalizerHelper11lowerSITOFPERNS_12MachineInstrEjNS_3LLTE
libLLVM.so.11:_ZN4llvm15LegalizerHelper11lowerUITOFPERNS_12MachineInstrEjNS_3LLTE
libLLVM.so.11:_ZN4llvm15LegalizerHelper11widenScalarERNS_12MachineInstrEjNS_3LLTE
libLLVM.so.11:_ZN4llvm15LegalizerHelper12extractPartsENS_8RegisterENS_3LLTES2_RS2_RNS_15SmallVectorImplIS1_EES6_
libLLVM.so.11:_ZN4llvm15LegalizerHelper12extractPartsENS_8RegisterENS_3LLTEiRNS_15SmallVectorImplIS1_EE
libLLVM.so.11:_ZN4llvm15LegalizerHelper12lowerBitcastERNS_12MachineInstrE
libLLVM.so.11:_ZN4llvm15LegalizerHelper12lowerExtractERNS_12MachineInstrE
libLLVM.so.11:_ZN4llvm15LegalizerHelper12lowerFPTRUNCERNS_12MachineInstrEjNS_3LLTE
libLLVM.so.11:_ZN4llvm15LegalizerHelper12narrowScalarERNS_12MachineInstrEjNS_3LLTE
libLLVM.so.11:_ZN4llvm15LegalizerHelper13lowerBitCountERNS_12MachineInstrEjNS_3LLTE
libLLVM.so.11:_ZN4llvm15LegalizerHelper14coerceToScalarENS_8RegisterE
libLLVM.so.11:_ZN4llvm15LegalizerHelper14extractGCDTypeERNS_15SmallVectorImplINS_8RegisterEEENS_3LLTES5_S2_
libLLVM.so.11:_ZN4llvm15LegalizerHelper14lowerFCopySignERNS_12MachineInstrEjNS_3LLTE
libLLVM.so.11:_ZN4llvm15LegalizerHelper14widenScalarDstERNS_12MachineInstrENS_3LLTEjj
libLLVM.so.11:_ZN4llvm15LegalizerHelper14widenScalarSrcERNS_12MachineInstrENS_3LLTEjj
libLLVM.so.11:_ZN4llvm15LegalizerHelper15lowerBitreverseERNS_12MachineInstrE
libLLVM.so.11:_ZN4llvm15LegalizerHelper15narrowScalarDstERNS_12MachineInstrENS_3LLTEjj
libLLVM.so.11:_ZN4llvm15LegalizerHelper15narrowScalarExtERNS_12MachineInstrEjNS_3LLTE
libLLVM.so.11:_ZN4llvm15LegalizerHelper15narrowScalarMulERNS_12MachineInstrENS_3LLTE
libLLVM.so.11:_ZN4llvm15LegalizerHelper15narrowScalarSrcERNS_12MachineInstrENS_3LLTEj
libLLVM.so.11:_ZN4llvm15LegalizerHelper16lowerMergeValuesERNS_12MachineInstrE
libLLVM.so.11:_ZN4llvm15LegalizerHelper16lowerSADDO_SSUBOERNS_12MachineInstrE
libLLVM.so.11:_ZN4llvm15LegalizerHelper16narrowScalarCTLZERNS_12MachineInstrEjNS_3LLTE
libLLVM.so.11:_ZN4llvm15LegalizerHelper16narrowScalarCTTZERNS_12MachineInstrEjNS_3LLTE
libLLVM.so.11:_ZN4llvm15LegalizerHelper17legalizeInstrStepERNS_12MachineInstrE
libLLVM.so.11:_ZN4llvm15LegalizerHelper17multiplyRegistersERNS_15SmallVectorImplINS_8RegisterEEENS_8ArrayRefIS2_EES6_NS_3LLTE
libLLVM.so.11:_ZN4llvm15LegalizerHelper17narrowScalarBasicERNS_12MachineInstrEjNS_3LLTE
libLLVM.so.11:_ZN4llvm15LegalizerHelper17narrowScalarCTPOPERNS_12MachineInstrEjNS_3LLTE
libLLVM.so.11:_ZN4llvm15LegalizerHelper17narrowScalarShiftERNS_12MachineInstrEjNS_3LLTE
libLLVM.so.11:_ZN4llvm15LegalizerHelper17widenScalarInsertERNS_12MachineInstrEjNS_3LLTE
libLLVM.so.11:_ZN4llvm15LegalizerHelper18lowerDynStackAllocERNS_12MachineInstrE
libLLVM.so.11:_ZN4llvm15LegalizerHelper18lowerFMinNumMaxNumERNS_12MachineInstrE
libLLVM.so.11:_ZN4llvm15LegalizerHelper18lowerShuffleVectorERNS_12MachineInstrE
libLLVM.so.11:_ZN4llvm15LegalizerHelper18lowerUnmergeValuesERNS_12MachineInstrE
libLLVM.so.11:_ZN4llvm15LegalizerHelper18moreElementsVectorERNS_12MachineInstrEjNS_3LLTE
libLLVM.so.11:_ZN4llvm15LegalizerHelper18narrowScalarInsertERNS_12MachineInstrEjNS_3LLTE
libLLVM.so.11:_ZN4llvm15LegalizerHelper18narrowScalarSelectERNS_12MachineInstrEjNS_3LLTE
libLLVM.so.11:_ZN4llvm15LegalizerHelper18widenScalarExtractERNS_12MachineInstrEjNS_3LLTE
libLLVM.so.11:_ZN4llvm15LegalizerHelper19buildLCMMergePiecesENS_3LLTES1_S1_RNS_15SmallVectorImplINS_8RegisterEEEj
libLLVM.so.11:_ZN4llvm15LegalizerHelper19fewerElementsVectorERNS_12MachineInstrEjNS_3LLTE
libLLVM.so.11:_ZN4llvm15LegalizerHelper19lowerIntrinsicRoundERNS_12MachineInstrE
libLLVM.so.11:_ZN4llvm15LegalizerHelper19lowerU64ToF32BitOpsERNS_12MachineInstrE
libLLVM.so.11:_ZN4llvm15LegalizerHelper19narrowScalarExtractERNS_12MachineInstrEjNS_3LLTE
libLLVM.so.11:_ZN4llvm15LegalizerHelper20reduceLoadStoreWidthERNS_12MachineInstrEjNS_3LLTE
libLLVM.so.11:_ZN4llvm15LegalizerHelper20reduceOperationWidthERNS_12MachineInstrEjNS_3LLTE
libLLVM.so.11:_ZN4llvm15LegalizerHelper20widenScalarAddSubSatERNS_12MachineInstrEjNS_3LLTE
libLLVM.so.11:_ZN4llvm15LegalizerHelper21moreElementsVectorDstERNS_12MachineInstrENS_3LLTEj
libLLVM.so.11:_ZN4llvm15LegalizerHelper21moreElementsVectorPhiERNS_12MachineInstrEjNS_3LLTE
libLLVM.so.11:_ZN4llvm15LegalizerHelper21moreElementsVectorSrcERNS_12MachineInstrENS_3LLTEj
libLLVM.so.11:_ZN4llvm15LegalizerHelper22fewerElementsVectorCmpERNS_12MachineInstrEjNS_3LLTE
libLLVM.so.11:_ZN4llvm15LegalizerHelper22fewerElementsVectorPhiERNS_12MachineInstrEjNS_3LLTE
libLLVM.so.11:_ZN4llvm15LegalizerHelper22lowerReadWriteRegisterERNS_12MachineInstrE
libLLVM.so.11:_ZN4llvm15LegalizerHelper22widenScalarMergeValuesERNS_12MachineInstrEjNS_3LLTE
libLLVM.so.11:_ZN4llvm15LegalizerHelper23lowerFPTRUNC_F64_TO_F16ERNS_12MachineInstrE
libLLVM.so.11:_ZN4llvm15LegalizerHelper24buildWidenedRemergeToDstENS_8RegisterENS_3LLTENS_8ArrayRefIS1_EE
libLLVM.so.11:_ZN4llvm15LegalizerHelper24fewerElementsVectorCastsERNS_12MachineInstrEjNS_3LLTE
libLLVM.so.11:_ZN4llvm15LegalizerHelper24widenScalarUnmergeValuesERNS_12MachineInstrEjNS_3LLTE
libLLVM.so.11:_ZN4llvm15LegalizerHelper25fewerElementsVectorSelectERNS_12MachineInstrEjNS_3LLTE
libLLVM.so.11:_ZN4llvm15LegalizerHelper27narrowScalarShiftByConstantERNS_12MachineInstrERKNS_5APIntENS_3LLTES6_
libLLVM.so.11:_ZN4llvm15LegalizerHelper28fewerElementsVectorSextInRegERNS_12MachineInstrEjNS_3LLTE
libLLVM.so.11:_ZN4llvm15LegalizerHelper30fewerElementsVectorBuildVectorERNS_12MachineInstrEjNS_3LLTE
libLLVM.so.11:_ZN4llvm15LegalizerHelper30fewerElementsVectorImplicitDefERNS_12MachineInstrEjNS_3LLTE
libLLVM.so.11:_ZN4llvm15LegalizerHelper31fewerElementsVectorMultiEltTypeERNS_12MachineInstrEjNS_3LLTE
libLLVM.so.11:_ZN4llvm15LegalizerHelper32fewerElementsVectorUnmergeValuesERNS_12MachineInstrEjNS_3LLTE
libLLVM.so.11:_ZN4llvm15LegalizerHelper5lowerERNS_12MachineInstrEjNS_3LLTE
libLLVM.so.11:_ZN4llvm15LegalizerHelper7bitcastERNS_12MachineInstrEjNS_3LLTE
libLLVM.so.11:_ZN4llvm15LegalizerHelper7libcallERNS_12MachineInstrE
libLLVM.so.11:_ZN4llvm15LegalizerHelper9lowerFMadERNS_12MachineInstrE
libLLVM.so.11:_ZN4llvm15LegalizerHelperC1ERNS_15MachineFunctionERKNS_13LegalizerInfoERNS_19GISelChangeObserverERNS_16MachineIRBuilderE
libLLVM.so.11:_ZN4llvm15LegalizerHelperC1ERNS_15MachineFunctionERNS_19GISelChangeObserverERNS_16MachineIRBuilderE
libLLVM.so.11:_ZN4llvm15LegalizerHelperC2ERNS_15MachineFunctionERKNS_13LegalizerInfoERNS_19GISelChangeObserverERNS_16MachineIRBuilderE
libLLVM.so.11:_ZN4llvm15LegalizerHelperC2ERNS_15MachineFunctionERNS_19GISelChangeObserverERNS_16MachineIRBuilderE
libLLVM.so.11:_ZN4llvm15LockFileManager12readLockFileB5cxx11ENS_9StringRefE
libLLVM.so.11:_ZN4llvm15LockFileManager13waitForUnlockEj
libLLVM.so.11:_ZN4llvm15LockFileManager20unsafeRemoveLockFileEv
libLLVM.so.11:_ZN4llvm15LockFileManager21processStillExecutingENS_9StringRefEi
libLLVM.so.11:_ZN4llvm15LockFileManagerC1ENS_9StringRefE
libLLVM.so.11:_ZN4llvm15LockFileManagerC2ENS_9StringRefE
libLLVM.so.11:_ZN4llvm15LockFileManagerD1Ev
libLLVM.so.11:_ZN4llvm15LockFileManagerD2Ev
libLLVM.so.11:_ZN4llvm15LoopPrinterPass3runERNS_8FunctionERNS_15AnalysisManagerIS1_JEEE
libLLVM.so.11:_ZN4llvm15LowerAtomicPass3runERNS_8FunctionERNS_15AnalysisManagerIS1_JEEE
libLLVM.so.11:_ZN4llvm15LowerDbgDeclareERNS_8FunctionE
libLLVM.so.11:_ZN4llvm15LowerInvokePass3runERNS_8FunctionERNS_15AnalysisManagerIS1_JEEE
libLLVM.so.11:_ZN4llvm15MCAsmInfoDarwinC1Ev
libLLVM.so.11:_ZN4llvm15MCAsmInfoDarwinC2Ev
libLLVM.so.11:_ZN4llvm15MCDwarfLineAddr11FixedEncodeERNS_9MCContextENS_22MCDwarfLineTableParamsExyRNS_11raw_ostreamEPjS6_
libLLVM.so.11:_ZN4llvm15MCDwarfLineAddr4EmitEPNS_10MCStreamerENS_22MCDwarfLineTableParamsExy
libLLVM.so.11:_ZN4llvm15MCDwarfLineAddr6EncodeERNS_9MCContextENS_22MCDwarfLineTableParamsExyRNS_11raw_ostreamE
libLLVM.so.11:_ZN4llvm15MCSubtargetInfo13ToggleFeatureENS_9StringRefE
libLLVM.so.11:_ZN4llvm15MCSubtargetInfo13ToggleFeatureERKNS_13FeatureBitsetE
libLLVM.so.11:_ZN4llvm15MCSubtargetInfo13ToggleFeatureEy
libLLVM.so.11:_ZN4llvm15MCSubtargetInfo16ApplyFeatureFlagENS_9StringRefE
libLLVM.so.11:_ZN4llvm15MCSubtargetInfo18setDefaultFeaturesENS_9StringRefES1_
libLLVM.so.11:_ZN4llvm15MCSubtargetInfo19InitMCProcessorInfoENS_9StringRefES1_
libLLVM.so.11:_ZN4llvm15MCSubtargetInfo26SetFeatureBitsTransitivelyERKNS_13FeatureBitsetE
libLLVM.so.11:_ZN4llvm15MCSubtargetInfo28ClearFeatureBitsTransitivelyERKNS_13FeatureBitsetE
libLLVM.so.11:_ZN4llvm15MCSubtargetInfoC1ERKNS_6TripleENS_9StringRefES4_NS_8ArrayRefINS_18SubtargetFeatureKVEEENS5_INS_18SubtargetSubTypeKVEEEPKNS_19MCWriteProcResEntryEPKNS_19MCWriteLatencyEntryEPKNS_18MCReadAdvanceEntryEPKNS_10InstrStageEPKjSN_
libLLVM.so.11:_ZN4llvm15MCSubtargetInfoC2ERKNS_6TripleENS_9StringRefES4_NS_8ArrayRefINS_18SubtargetFeatureKVEEENS5_INS_18SubtargetSubTypeKVEEEPKNS_19MCWriteProcResEntryEPKNS_19MCWriteLatencyEntryEPKNS_18MCReadAdvanceEntryEPKNS_10InstrStageEPKjSN_
libLLVM.so.11:_ZN4llvm15MCSymbolRefExpr18getVariantKindNameENS0_11VariantKindE
libLLVM.so.11:_ZN4llvm15MCSymbolRefExpr21getVariantKindForNameENS_9StringRefE
libLLVM.so.11:_ZN4llvm15MCSymbolRefExpr6createENS_9StringRefENS0_11VariantKindERNS_9MCContextE
libLLVM.so.11:_ZN4llvm15MCSymbolRefExpr6createEPKNS_8MCSymbolENS0_11VariantKindERNS_9MCContextENS_5SMLocE
libLLVM.so.11:_ZN4llvm15MCSymbolRefExprC1EPKNS_8MCSymbolENS0_11VariantKindEPKNS_9MCAsmInfoENS_5SMLocE
libLLVM.so.11:_ZN4llvm15MCSymbolRefExprC2EPKNS_8MCSymbolENS0_11VariantKindEPKNS_9MCAsmInfoENS_5SMLocE
libLLVM.so.11:_ZN4llvm15MCTargetOptionsC1Ev
libLLVM.so.11:_ZN4llvm15MCTargetOptionsC2Ev
libLLVM.so.11:_ZN4llvm15MCXCOFFStreamer12emitZerofillEPNS_9MCSectionEPNS_8MCSymbolEyjNS_5SMLocE
libLLVM.so.11:_ZN4llvm15MCXCOFFStreamer14emitInstToDataERKNS_6MCInstERKNS_15MCSubtargetInfoE
libLLVM.so.11:_ZN4llvm15MCXCOFFStreamer16emitCommonSymbolEPNS_8MCSymbolEyj
libLLVM.so.11:_ZN4llvm15MCXCOFFStreamer19emitSymbolAttributeEPNS_8MCSymbolENS_12MCSymbolAttrE
libLLVM.so.11:_ZN4llvm15MCXCOFFStreamer26emitXCOFFLocalCommonSymbolEPNS_8MCSymbolEyS2_j
libLLVM.so.11:_ZN4llvm15MCXCOFFStreamer36emitXCOFFSymbolLinkageWithVisibilityEPNS_8MCSymbolENS_12MCSymbolAttrES3_
libLLVM.so.11:_ZN4llvm15MCXCOFFStreamerC1ERNS_9MCContextESt10unique_ptrINS_12MCAsmBackendESt14default_deleteIS4_EES3_INS_14MCObjectWriterES5_IS8_EES3_INS_13MCCodeEmitterES5_ISB_EE
libLLVM.so.11:_ZN4llvm15MCXCOFFStreamerC2ERNS_9MCContextESt10unique_ptrINS_12MCAsmBackendESt14default_deleteIS4_EES3_INS_14MCObjectWriterES5_IS8_EES3_INS_13MCCodeEmitterES5_ISB_EE
libLLVM.so.11:_ZN4llvm15MDAttachmentMap3setEjRNS_6MDNodeE
libLLVM.so.11:_ZN4llvm15MDAttachmentMap5eraseEj
libLLVM.so.11:_ZN4llvm15MMIAddrLabelMap18UpdateForRAUWBlockEPNS_10BasicBlockES2_
libLLVM.so.11:_ZN4llvm15MMIAddrLabelMap21UpdateForDeletedBlockEPNS_10BasicBlockE
libLLVM.so.11:_ZN4llvm15MMIAddrLabelMap24getAddrLabelSymbolToEmitEPNS_10BasicBlockE
libLLVM.so.11:_ZN4llvm15MachineFunction10addCleanupEPNS_17MachineBasicBlockE
libLLVM.so.11:_ZN4llvm15MachineFunction12addFrameInstERKNS_16MCCFIInstructionE
libLLVM.so.11:_ZN4llvm15MachineFunction12getTypeIDForEPKNS_11GlobalValueE
libLLVM.so.11:_ZN4llvm15MachineFunction13addLandingPadEPNS_17MachineBasicBlockE
libLLVM.so.11:_ZN4llvm15MachineFunction13handleRemovalERNS_12MachineInstrE
libLLVM.so.11:_ZN4llvm15MachineFunction14RenumberBlocksEPNS_17MachineBasicBlockE
libLLVM.so.11:_ZN4llvm15MachineFunction14createBBLabelsEv
libLLVM.so.11:_ZN4llvm15MachineFunction14getFilterIDForERSt6vectorIjSaIjEE
libLLVM.so.11:_ZN4llvm15MachineFunction15allocateRegMaskEv
libLLVM.so.11:_ZN4llvm15MachineFunction15getCallSiteInfoEPKNS_12MachineInstrE
libLLVM.so.11:_ZN4llvm15MachineFunction15handleInsertionERNS_12MachineInstrE
libLLVM.so.11:_ZN4llvm15MachineFunction15tidyLandingPadsEPNS_8DenseMapIPNS_8MCSymbolEjNS_12DenseMapInfoIS3_EENS_6detail12DenseMapPairIS3_jEEEEb
libLLVM.so.11:_ZN4llvm15MachineFunction16addCatchTypeInfoEPNS_17MachineBasicBlockENS_8ArrayRefIPKNS_11GlobalValueEEE
libLLVM.so.11:_ZN4llvm15MachineFunction16copyCallSiteInfoEPKNS_12MachineInstrES3_
libLLVM.so.11:_ZN4llvm15MachineFunction16moveCallSiteInfoEPKNS_12MachineInstrES3_
libLLVM.so.11:_ZN4llvm15MachineFunction17CloneMachineInstrEPKNS_12MachineInstrE
libLLVM.so.11:_ZN4llvm15MachineFunction17addFilterTypeInfoEPNS_17MachineBasicBlockENS_8ArrayRefIPKNS_11GlobalValueEEE
libLLVM.so.11:_ZN4llvm15MachineFunction17createMIExtraInfoENS_8ArrayRefIPNS_17MachineMemOperandEEEPNS_8MCSymbolES6_PNS_6MDNodeE
libLLVM.so.11:_ZN4llvm15MachineFunction17eraseCallSiteInfoEPKNS_12MachineInstrE
libLLVM.so.11:_ZN4llvm15MachineFunction18CreateMachineInstrERKNS_11MCInstrDescERKNS_8DebugLocEb
libLLVM.so.11:_ZN4llvm15MachineFunction18DeleteMachineInstrEPNS_12MachineInstrE
libLLVM.so.11:_ZN4llvm15MachineFunction18addSEHCatchHandlerEPNS_17MachineBasicBlockEPKNS_8FunctionEPKNS_12BlockAddressE
libLLVM.so.11:_ZN4llvm15MachineFunction19allocateShuffleMaskENS_8ArrayRefIiEE
libLLVM.so.11:_ZN4llvm15MachineFunction20addSEHCleanupHandlerEPNS_17MachineBasicBlockEPKNS_8FunctionE
libLLVM.so.11:_ZN4llvm15MachineFunction20getMachineMemOperandENS_18MachinePointerInfoENS_17MachineMemOperand5FlagsEyNS_5AlignERKNS_9AAMDNodesEPKNS_6MDNodeEhNS_14AtomicOrderingESB_
libLLVM.so.11:_ZN4llvm15MachineFunction20getMachineMemOperandEPKNS_17MachineMemOperandENS1_5FlagsE
libLLVM.so.11:_ZN4llvm15MachineFunction20getMachineMemOperandEPKNS_17MachineMemOperandERKNS_9AAMDNodesE
libLLVM.so.11:_ZN4llvm15MachineFunction20getMachineMemOperandEPKNS_17MachineMemOperandExy
libLLVM.so.11:_ZN4llvm15MachineFunction21setCallSiteLandingPadEPNS_8MCSymbolENS_8ArrayRefIjEE
libLLVM.so.11:_ZN4llvm15MachineFunction22assignBeginEndSectionsEv
libLLVM.so.11:_ZN4llvm15MachineFunction23CloneMachineInstrBundleERNS_17MachineBasicBlockENS_26MachineInstrBundleIteratorINS_12MachineInstrELb0EEERKS4_
libLLVM.so.11:_ZN4llvm15MachineFunction23CreateMachineBasicBlockEPKNS_10BasicBlockE
libLLVM.so.11:_ZN4llvm15MachineFunction23DeleteMachineBasicBlockEPNS_17MachineBasicBlockE
libLLVM.so.11:_ZN4llvm15MachineFunction24createExternalSymbolNameENS_9StringRefE
libLLVM.so.11:_ZN4llvm15MachineFunction24getOrCreateJumpTableInfoEj
libLLVM.so.11:_ZN4llvm15MachineFunction25getOrCreateLandingPadInfoEPNS_17MachineBasicBlockE
libLLVM.so.11:_ZN4llvm15MachineFunction4initEv
libLLVM.so.11:_ZN4llvm15MachineFunction5clearEv
libLLVM.so.11:_ZN4llvm15MachineFunction8Delegate6anchorEv
libLLVM.so.11:_ZN4llvm15MachineFunction9addInvokeEPNS_17MachineBasicBlockEPNS_8MCSymbolES4_
libLLVM.so.11:_ZN4llvm15MachineFunction9addLiveInENS_10MCRegisterEPKNS_19TargetRegisterClassE
libLLVM.so.11:_ZN4llvm15MachineFunctionC1ERNS_8FunctionERKNS_17LLVMTargetMachineERKNS_19TargetSubtargetInfoEjRNS_17MachineModuleInfoE
libLLVM.so.11:_ZN4llvm15MachineFunctionC2ERNS_8FunctionERKNS_17LLVMTargetMachineERKNS_19TargetSubtargetInfoEjRNS_17MachineModuleInfoE
libLLVM.so.11:_ZN4llvm15MachineFunctionD1Ev
libLLVM.so.11:_ZN4llvm15MachineFunctionD2Ev
libLLVM.so.11:_ZN4llvm15MachineLoopInfo20runOnMachineFunctionERNS_15MachineFunctionE
libLLVM.so.11:_ZN4llvm15MachineLoopInfo9calculateERNS_20MachineDominatorTreeE
libLLVM.so.11:_ZN4llvm15MachineLoopInfoC1Ev
libLLVM.so.11:_ZN4llvm15MachineLoopInfoC2Ev
libLLVM.so.11:_ZN4llvm15MemorySSAWalkerC2EPNS_9MemorySSAE
libLLVM.so.11:_ZN4llvm15MetadataAsValue11getIfExistsERNS_11LLVMContextEPNS_8MetadataE
libLLVM.so.11:_ZN4llvm15MetadataAsValue21handleChangedMetadataEPNS_8MetadataE
libLLVM.so.11:_ZN4llvm15MetadataAsValue3getERNS_11LLVMContextEPNS_8MetadataE
libLLVM.so.11:_ZN4llvm15MetadataAsValue5trackEv
libLLVM.so.11:_ZN4llvm15MetadataAsValue7untrackEv
libLLVM.so.11:_ZN4llvm15MetadataAsValueC1EPNS_4TypeEPNS_8MetadataE
libLLVM.so.11:_ZN4llvm15MetadataAsValueC2EPNS_4TypeEPNS_8MetadataE
libLLVM.so.11:_ZN4llvm15MetadataAsValueD1Ev
libLLVM.so.11:_ZN4llvm15MetadataAsValueD2Ev
libLLVM.so.11:_ZN4llvm15OpenMPIRBuilder10initializeEv
libLLVM.so.11:_ZN4llvm15OpenMPIRBuilder11CreateFlushERKNS0_19LocationDescriptionE
libLLVM.so.11:_ZN4llvm15OpenMPIRBuilder11OutlineInfo13collectBlocksERNS_15SmallPtrSetImplIPNS_10BasicBlockEEERNS_15SmallVectorImplIS4_EE
libLLVM.so.11:_ZN4llvm15OpenMPIRBuilder12CreateCancelERKNS0_19LocationDescriptionEPNS_5ValueENS_3omp9DirectiveE
libLLVM.so.11:_ZN4llvm15OpenMPIRBuilder12CreateMasterERKNS0_19LocationDescriptionENS_12function_refIFvNS_13IRBuilderBase11InsertPointES6_RNS_10BasicBlockEEEESt8functionIFvS6_EE
libLLVM.so.11:_ZN4llvm15OpenMPIRBuilder13CreateBarrierERKNS0_19LocationDescriptionENS_3omp9DirectiveEbb
libLLVM.so.11:_ZN4llvm15OpenMPIRBuilder13CreateOMPFreeERKNS0_19LocationDescriptionEPNS_5ValueES5_NSt7__cxx1112basic_stringIcSt11char_traitsIcESaIcEEE
libLLVM.so.11:_ZN4llvm15OpenMPIRBuilder13addAttributesENS_3omp15RuntimeFunctionERNS_8FunctionE
libLLVM.so.11:_ZN4llvm15OpenMPIRBuilder14CreateCriticalERKNS0_19LocationDescriptionENS_12function_refIFvNS_13IRBuilderBase11InsertPointES6_RNS_10BasicBlockEEEESt8functionIFvS6_EENS_9StringRefEPNS_5ValueE
libLLVM.so.11:_ZN4llvm15OpenMPIRBuilder14CreateOMPAllocERKNS0_19LocationDescriptionEPNS_5ValueES5_NSt7__cxx1112basic_stringIcSt11char_traitsIcESaIcEEE
libLLVM.so.11:_ZN4llvm15OpenMPIRBuilder14CreateParallelERKNS0_19LocationDescriptionENS_12function_refIFvNS_13IRBuilderBase11InsertPointES6_RNS_10BasicBlockEEEENS4_IFS6_S6_S6_RNS_5ValueERPSB_EEESt8functionIFvS6_EESD_SD_NS_3omp12ProcBindKindEb
libLLVM.so.11:_ZN4llvm15OpenMPIRBuilder14CreateTaskwaitERKNS0_19LocationDescriptionE
libLLVM.so.11:_ZN4llvm15OpenMPIRBuilder15CreateTaskyieldERKNS0_19LocationDescriptionE
libLLVM.so.11:_ZN4llvm15OpenMPIRBuilder15emitBarrierImplERKNS0_19LocationDescriptionENS_3omp9DirectiveEbb
libLLVM.so.11:_ZN4llvm15OpenMPIRBuilder15initializeTypesERNS_6ModuleE
libLLVM.so.11:_ZN4llvm15OpenMPIRBuilder16emitTaskwaitImplERKNS0_19LocationDescriptionE
libLLVM.so.11:_ZN4llvm15OpenMPIRBuilder16getOrCreateIdentEPNS_8ConstantENS_3omp9IdentFlagEj
libLLVM.so.11:_ZN4llvm15OpenMPIRBuilder17emitTaskyieldImplERKNS0_19LocationDescriptionE
libLLVM.so.11:_ZN4llvm15OpenMPIRBuilder19getOrCreateThreadIDEPNS_5ValueE
libLLVM.so.11:_ZN4llvm15OpenMPIRBuilder20EmitOMPInlinedRegionENS_3omp9DirectiveEPNS_11InstructionES4_NS_12function_refIFvNS_13IRBuilderBase11InsertPointES7_RNS_10BasicBlockEEEESt8functionIFvS7_EEbb
libLLVM.so.11:_ZN4llvm15OpenMPIRBuilder20getOrCreateSrcLocStrENS_9StringRefE
libLLVM.so.11:_ZN4llvm15OpenMPIRBuilder20getOrCreateSrcLocStrENS_9StringRefES1_jj
libLLVM.so.11:_ZN4llvm15OpenMPIRBuilder20getOrCreateSrcLocStrERKNS0_19LocationDescriptionE
libLLVM.so.11:_ZN4llvm15OpenMPIRBuilder21getNameWithSeparatorsB5cxx11ENS_8ArrayRefINS_9StringRefEEES2_S2_
libLLVM.so.11:_ZN4llvm15OpenMPIRBuilder23emitCommonDirectiveExitENS_3omp9DirectiveENS_13IRBuilderBase11InsertPointEPNS_11InstructionEb
libLLVM.so.11:_ZN4llvm15OpenMPIRBuilder24CreateCopyinClauseBlocksENS_13IRBuilderBase11InsertPointEPNS_5ValueES4_PNS_11IntegerTypeEb
libLLVM.so.11:_ZN4llvm15OpenMPIRBuilder24emitCancelationCheckImplEPNS_5ValueENS_3omp9DirectiveE
libLLVM.so.11:_ZN4llvm15OpenMPIRBuilder24emitCommonDirectiveEntryENS_3omp9DirectiveEPNS_5ValueEPNS_10BasicBlockEb
libLLVM.so.11:_ZN4llvm15OpenMPIRBuilder24getOMPCriticalRegionLockENS_9StringRefE
libLLVM.so.11:_ZN4llvm15OpenMPIRBuilder25CreateCachedThreadPrivateERKNS0_19LocationDescriptionEPNS_5ValueEPNS_11ConstantIntERKNS_5TwineE
libLLVM.so.11:_ZN4llvm15OpenMPIRBuilder26getOrCreateRuntimeFunctionERNS_6ModuleENS_3omp15RuntimeFunctionE
libLLVM.so.11:_ZN4llvm15OpenMPIRBuilder27getOrCreateDefaultSrcLocStrEv
libLLVM.so.11:_ZN4llvm15OpenMPIRBuilder29getOrCreateRuntimeFunctionPtrENS_3omp15RuntimeFunctionE
libLLVM.so.11:_ZN4llvm15OpenMPIRBuilder30getOrCreateOMPInternalVariableEPNS_4TypeERKNS_5TwineEj
libLLVM.so.11:_ZN4llvm15OpenMPIRBuilder8finalizeEv
libLLVM.so.11:_ZN4llvm15OpenMPIRBuilder9emitFlushERKNS0_19LocationDescriptionE
libLLVM.so.11:_ZN4llvm15PGOMemOPSizeOpt3runERNS_8FunctionERNS_15AnalysisManagerIS1_JEEE
libLLVM.so.11:_ZN4llvm15PatchPointOpersC1EPKNS_12MachineInstrE
libLLVM.so.11:_ZN4llvm15PatchPointOpersC2EPKNS_12MachineInstrE
libLLVM.so.11:_ZN4llvm15PrintModulePass3runERNS_6ModuleERNS_15AnalysisManagerIS1_JEEE
libLLVM.so.11:_ZN4llvm15PrintModulePassC1ERNS_11raw_ostreamERKNSt7__cxx1112basic_stringIcSt11char_traitsIcESaIcEEEb
libLLVM.so.11:_ZN4llvm15PrintModulePassC1Ev
libLLVM.so.11:_ZN4llvm15PrintModulePassC2ERNS_11raw_ostreamERKNSt7__cxx1112basic_stringIcSt11char_traitsIcESaIcEEEb
libLLVM.so.11:_ZN4llvm15PrintModulePassC2Ev
libLLVM.so.11:_ZN4llvm15PrintStatisticsERNS_11raw_ostreamE
libLLVM.so.11:_ZN4llvm15PrintStatisticsEv
libLLVM.so.11:_ZN4llvm15PromoteMemToRegENS_8ArrayRefIPNS_10AllocaInstEEERNS_13DominatorTreeEPNS_15AssumptionCacheE
libLLVM.so.11:_ZN4llvm15RandomIRBuilder11findPointerERNS_10BasicBlockENS_8ArrayRefIPNS_11InstructionEEENS3_IPNS_5ValueEEENS_8fuzzerop10SourcePredE
libLLVM.so.11:_ZN4llvm15RandomIRBuilder13connectToSinkERNS_10BasicBlockENS_8ArrayRefIPNS_11InstructionEEEPNS_5ValueE
libLLVM.so.11:_ZN4llvm15RandomIRBuilder18findOrCreateSourceERNS_10BasicBlockENS_8ArrayRefIPNS_11InstructionEEE
libLLVM.so.11:_ZN4llvm15RandomIRBuilder18findOrCreateSourceERNS_10BasicBlockENS_8ArrayRefIPNS_11InstructionEEENS3_IPNS_5ValueEEENS_8fuzzerop10SourcePredE
libLLVM.so.11:_ZN4llvm15RandomIRBuilder7newSinkERNS_10BasicBlockENS_8ArrayRefIPNS_11InstructionEEEPNS_5ValueE
libLLVM.so.11:_ZN4llvm15RandomIRBuilder9newSourceERNS_10BasicBlockENS_8ArrayRefIPNS_11InstructionEEENS3_IPNS_5ValueEEENS_8fuzzerop10SourcePredE
libLLVM.so.11:_ZN4llvm15ReassociatePass11OptimizeAddEPNS_11InstructionERNS_15SmallVectorImplINS_11reassociate10ValueEntryEEE
libLLVM.so.11:_ZN4llvm15ReassociatePass11OptimizeMulEPNS_14BinaryOperatorERNS_15SmallVectorImplINS_11reassociate10ValueEntryEEE
libLLVM.so.11:_ZN4llvm15ReassociatePass11OptimizeXorEPNS_11InstructionERNS_15SmallVectorImplINS_11reassociate10ValueEntryEEE
libLLVM.so.11:_ZN4llvm15ReassociatePass12BuildPairMapERNS_25ReversePostOrderTraversalIPNS_8FunctionENS_11GraphTraitsIS3_EEEE
libLLVM.so.11:_ZN4llvm15ReassociatePass12BuildRankMapERNS_8FunctionERNS_25ReversePostOrderTraversalIPS1_NS_11GraphTraitsIS4_EEEE
libLLVM.so.11:_ZN4llvm15ReassociatePass12OptimizeInstEPNS_11InstructionE
libLLVM.so.11:_ZN4llvm15ReassociatePass14CombineXorOpndEPNS_11InstructionEPNS_11reassociate7XorOpndERNS_5APIntERPNS_5ValueE
libLLVM.so.11:_ZN4llvm15ReassociatePass14CombineXorOpndEPNS_11InstructionEPNS_11reassociate7XorOpndES5_RNS_5APIntERPNS_5ValueE
libLLVM.so.11:_ZN4llvm15ReassociatePass15RewriteExprTreeEPNS_14BinaryOperatorERNS_15SmallVectorImplINS_11reassociate10ValueEntryEEE
libLLVM.so.11:_ZN4llvm15ReassociatePass18OptimizeExpressionEPNS_14BinaryOperatorERNS_15SmallVectorImplINS_11reassociate10ValueEntryEEE
libLLVM.so.11:_ZN4llvm15ReassociatePass20canonicalizeOperandsEPNS_11InstructionE
libLLVM.so.11:_ZN4llvm15ReassociatePass21ReassociateExpressionEPNS_14BinaryOperatorE
libLLVM.so.11:_ZN4llvm15ReassociatePass23buildMinimalMultiplyDAGERNS_13IRBuilderBaseERNS_15SmallVectorImplINS_11reassociate6FactorEEE
libLLVM.so.11:_ZN4llvm15ReassociatePass25RecursivelyEraseDeadInstsEPNS_11InstructionERNS_9SetVectorINS_11AssertingVHIS1_EESt5dequeIS5_SaIS5_EENS_8DenseSetIS5_NS_12DenseMapInfoIS5_EEEEEE
libLLVM.so.11:_ZN4llvm15ReassociatePass26RemoveFactorFromExpressionEPNS_5ValueES2_
libLLVM.so.11:_ZN4llvm15ReassociatePass26canonicalizeNegFPConstantsEPNS_11InstructionE
libLLVM.so.11:_ZN4llvm15ReassociatePass31canonicalizeNegFPConstantsForOpEPNS_11InstructionES2_PNS_5ValueE
libLLVM.so.11:_ZN4llvm15ReassociatePass3runERNS_8FunctionERNS_15AnalysisManagerIS1_JEEE
libLLVM.so.11:_ZN4llvm15ReassociatePass7getRankEPNS_5ValueE
libLLVM.so.11:_ZN4llvm15ReassociatePass9EraseInstEPNS_11InstructionE
libLLVM.so.11:_ZN4llvm15ResetStatisticsEv
libLLVM.so.11:_ZN4llvm15ResourceManager14clearResourcesEv
libLLVM.so.11:_ZN4llvm15ResourceManager16reserveResourcesEPKNS_11MCInstrDescE
libLLVM.so.11:_ZN4llvm15ResourceManager16reserveResourcesERKNS_12MachineInstrE
libLLVM.so.11:_ZN4llvm15ResourceManager23initProcResourceVectorsERKNS_12MCSchedModelERNS_15SmallVectorImplIyEE
libLLVM.so.11:_ZN4llvm15RuntimeDyldCOFF10loadObjectERKNS_6object10ObjectFileE
libLLVM.so.11:_ZN4llvm15RuntimeDyldCOFF15getSymbolOffsetERKNS_6object9SymbolRefE
libLLVM.so.11:_ZN4llvm15RuntimeDyldCOFF18getDLLImportOffsetEjRSt3mapINS_18RelocationValueRefEjSt4lessIS2_ESaISt4pairIKS2_jEEENS_9StringRefEb
libLLVM.so.11:_ZN4llvm15RuntimeDyldCOFF6createENS_6Triple8ArchTypeERNS_11RuntimeDyld13MemoryManagerERNS_17JITSymbolResolverE
libLLVM.so.11:_ZN4llvm15RuntimeDyldImpl11emitSectionERKNS_6object10ObjectFileERKNS1_10SectionRefEb
libLLVM.so.11:_ZN4llvm15RuntimeDyldImpl13finalizeAsyncESt10unique_ptrIS0_St14default_deleteIS0_EENS_15unique_functionIFvNS_6object12OwningBinaryINS6_10ObjectFileEEENS_5ErrorEEEES9_
libLLVM.so.11:_ZN4llvm15RuntimeDyldImpl14computeGOTSizeERKNS_6object10ObjectFileE
libLLVM.so.11:_ZN4llvm15RuntimeDyldImpl14loadObjectImplERKNS_6object10ObjectFileE
libLLVM.so.11:_ZN4llvm15RuntimeDyldImpl16registerEHFramesEv
libLLVM.so.11:_ZN4llvm15RuntimeDyldImpl17emitCommonSymbolsERKNS_6object10ObjectFileERSt6vectorINS1_9SymbolRefESaIS6_EEyj
libLLVM.so.11:_ZN4llvm15RuntimeDyldImpl17findOrEmitSectionERKNS_6object10ObjectFileERKNS1_10SectionRefEbRSt3mapIS5_jSt4lessIS5_ESaISt4pairIS6_jEEE
libLLVM.so.11:_ZN4llvm15RuntimeDyldImpl17getJITSymbolFlagsERKNS_6object9SymbolRefE
libLLVM.so.11:_ZN4llvm15RuntimeDyldImpl17mapSectionAddressEPKvy
libLLVM.so.11:_ZN4llvm15RuntimeDyldImpl18createStubFunctionEPhj
libLLVM.so.11:_ZN4llvm15RuntimeDyldImpl18deregisterEHFramesEv
libLLVM.so.11:_ZN4llvm15RuntimeDyldImpl18resolveRelocationsEv
libLLVM.so.11:_ZN4llvm15RuntimeDyldImpl21computeTotalAllocSizeERKNS_6object10ObjectFileERyRjS5_S6_S5_S6_
libLLVM.so.11:_ZN4llvm15RuntimeDyldImpl21resolveRelocationListERKNS_11SmallVectorINS_15RelocationEntryELj64EEEy
libLLVM.so.11:_ZN4llvm15RuntimeDyldImpl22addRelocationForSymbolERKNS_15RelocationEntryENS_9StringRefE
libLLVM.so.11:_ZN4llvm15RuntimeDyldImpl22reassignSectionAddressEjy
libLLVM.so.11:_ZN4llvm15RuntimeDyldImpl22resolveExternalSymbolsEv
libLLVM.so.11:_ZN4llvm15RuntimeDyldImpl23addRelocationForSectionERKNS_15RelocationEntryEj
libLLVM.so.11:_ZN4llvm15RuntimeDyldImpl23resolveLocalRelocationsEv
libLLVM.so.11:_ZN4llvm15RuntimeDyldImpl25computeSectionStubBufSizeERKNS_6object10ObjectFileERKNS1_10SectionRefE
libLLVM.so.11:_ZN4llvm15RuntimeDyldImpl30applyExternalSymbolRelocationsENS_9StringMapINS_18JITEvaluatedSymbolENS_15MallocAllocatorEEE
libLLVM.so.11:_ZN4llvm15RuntimeDyldImplD0Ev
libLLVM.so.11:_ZN4llvm15RuntimeDyldImplD1Ev
libLLVM.so.11:_ZN4llvm15RuntimeDyldImplD2Ev
libLLVM.so.11:_ZN4llvm15ScalarEvolution10createSCEVEPNS_5ValueE
libLLVM.so.11:_ZN4llvm15ScalarEvolution10forgetLoopEPKNS_4LoopE
libLLVM.so.11:_ZN4llvm15ScalarEvolution10getAddExprERNS_15SmallVectorImplIPKNS_4SCEVEEENS2_11NoWrapFlagsEj
libLLVM.so.11:_ZN4llvm15ScalarEvolution10getGEPExprEPNS_11GEPOperatorERKNS_15SmallVectorImplIPKNS_4SCEVEEE
libLLVM.so.11:_ZN4llvm15ScalarEvolution10getMulExprERNS_15SmallVectorImplIPKNS_4SCEVEEENS2_11NoWrapFlagsEj
libLLVM.so.11:_ZN4llvm15ScalarEvolution10getNotSCEVEPKNS_4SCEVE
libLLVM.so.11:_ZN4llvm15ScalarEvolution10getUnknownEPNS_5ValueE
libLLVM.so.11:_ZN4llvm15ScalarEvolution10invalidateERNS_8FunctionERKNS_17PreservedAnalysesERNS_15AnalysisManagerIS1_JEE11InvalidatorE
libLLVM.so.11:_ZN4llvm15ScalarEvolution11delinearizeEPKNS_4SCEVERNS_15SmallVectorImplIS3_EES6_S3_
libLLVM.so.11:_ZN4llvm15ScalarEvolution11forgetValueEPNS_5ValueE
libLLVM.so.11:_ZN4llvm15ScalarEvolution11getConstantEPNS_11ConstantIntE
libLLVM.so.11:_ZN4llvm15ScalarEvolution11getConstantEPNS_4TypeEyb
libLLVM.so.11:_ZN4llvm15ScalarEvolution11getConstantERKNS_5APIntE
libLLVM.so.11:_ZN4llvm15ScalarEvolution11getRangeRefEPKNS_4SCEVENS0_13RangeSignHintE
libLLVM.so.11:_ZN4llvm15ScalarEvolution11getSMaxExprEPKNS_4SCEVES3_
libLLVM.so.11:_ZN4llvm15ScalarEvolution11getSMaxExprERNS_15SmallVectorImplIPKNS_4SCEVEEE
libLLVM.so.11:_ZN4llvm15ScalarEvolution11getSMinExprEPKNS_4SCEVES3_
libLLVM.so.11:_ZN4llvm15ScalarEvolution11getSMinExprERNS_15SmallVectorImplIPKNS_4SCEVEEE
libLLVM.so.11:_ZN4llvm15ScalarEvolution11getUDivExprEPKNS_4SCEVES3_
libLLVM.so.11:_ZN4llvm15ScalarEvolution11getUMaxExprEPKNS_4SCEVES3_
libLLVM.so.11:_ZN4llvm15ScalarEvolution11getUMaxExprERNS_15SmallVectorImplIPKNS_4SCEVEEE
libLLVM.so.11:_ZN4llvm15ScalarEvolution11getUMinExprEPKNS_4SCEVES3_
libLLVM.so.11:_ZN4llvm15ScalarEvolution11getUMinExprERNS_15SmallVectorImplIPKNS_4SCEVEEE
libLLVM.so.11:_ZN4llvm15ScalarEvolution11getURemExprEPKNS_4SCEVES3_
libLLVM.so.11:_ZN4llvm15ScalarEvolution12getExitCountEPKNS_4LoopEPNS_10BasicBlockENS0_13ExitCountKindE
libLLVM.so.11:_ZN4llvm15ScalarEvolution12getMinusSCEVEPKNS_4SCEVES3_NS1_11NoWrapFlagsEj
libLLVM.so.11:_ZN4llvm15ScalarEvolution12getUsedLoopsEPKNS_4SCEVERNS_15SmallPtrSetImplIPKNS_4LoopEEE
libLLVM.so.11:_ZN4llvm15ScalarEvolution12howFarToZeroEPKNS_4SCEVEPKNS_4LoopEbb
libLLVM.so.11:_ZN4llvm15ScalarEvolution13getAddRecExprEPKNS_4SCEVES3_PKNS_4LoopENS1_11NoWrapFlagsE
libLLVM.so.11:_ZN4llvm15ScalarEvolution13getAddRecExprERNS_15SmallVectorImplIPKNS_4SCEVEEEPKNS_4LoopENS2_11NoWrapFlagsE
libLLVM.so.11:_ZN4llvm15ScalarEvolution13getMinMaxExprEjRNS_15SmallVectorImplIPKNS_4SCEVEEE
libLLVM.so.11:_ZN4llvm15ScalarEvolution13getSCEVValuesEPKNS_4SCEVE
libLLVM.so.11:_ZN4llvm15ScalarEvolution13getSizeOfExprEPNS_4TypeES2_
libLLVM.so.11:_ZN4llvm15ScalarEvolution13isImpliedCondENS_7CmpInst9PredicateEPKNS_4SCEVES5_PNS_5ValueEb
libLLVM.so.11:_ZN4llvm15ScalarEvolution13isImpliedCondENS_7CmpInst9PredicateEPKNS_4SCEVES5_S2_S5_S5_
libLLVM.so.11:_ZN4llvm15ScalarEvolution14ExitLimitCache4findEPKNS_4LoopEPNS_5ValueEbbb
libLLVM.so.11:_ZN4llvm15ScalarEvolution14ExitLimitCache6insertEPKNS_4LoopEPNS_5ValueEbbbRKNS0_9ExitLimitE
libLLVM.so.11:_ZN4llvm15ScalarEvolution14SCEVCallbackVH19allUsesReplacedWithEPNS_5ValueE
libLLVM.so.11:_ZN4llvm15ScalarEvolution14SCEVCallbackVH7deletedEv
libLLVM.so.11:_ZN4llvm15ScalarEvolution14SCEVCallbackVHC1EPNS_5ValueEPS0_
libLLVM.so.11:_ZN4llvm15ScalarEvolution14SCEVCallbackVHC2EPNS_5ValueEPS0_
libLLVM.so.11:_ZN4llvm15ScalarEvolution14computeBECountEPKNS_4SCEVES3_b
libLLVM.so.11:_ZN4llvm15ScalarEvolution14forgetAllLoopsEv
libLLVM.so.11:_ZN4llvm15ScalarEvolution14getElementSizeEPNS_11InstructionE
libLLVM.so.11:_ZN4llvm15ScalarEvolution14getPointerBaseEPKNS_4SCEVE
libLLVM.so.11:_ZN4llvm15ScalarEvolution14getSCEVAtScopeEPKNS_4SCEVEPKNS_4LoopE
libLLVM.so.11:_ZN4llvm15ScalarEvolution14getSCEVAtScopeEPNS_5ValueEPKNS_4LoopE
libLLVM.so.11:_ZN4llvm15ScalarEvolution14isKnownNonZeroEPKNS_4SCEVE
libLLVM.so.11:_ZN4llvm15ScalarEvolution14splitBinaryAddEPKNS_4SCEVERS3_S4_RNS1_11NoWrapFlagsE
libLLVM.so.11:_ZN4llvm15ScalarEvolution15getExistingSCEVEPNS_5ValueE
libLLVM.so.11:_ZN4llvm15ScalarEvolution15getNegativeSCEVEPKNS_4SCEVENS1_11NoWrapFlagsE
libLLVM.so.11:_ZN4llvm15ScalarEvolution15getOffsetOfExprEPNS_4TypeEPNS_10StructTypeEj
libLLVM.so.11:_ZN4llvm15ScalarEvolution15getTruncateExprEPKNS_4SCEVEPNS_4TypeEj
libLLVM.so.11:_ZN4llvm15ScalarEvolution15howFarToNonZeroEPKNS_4SCEVEPKNS_4LoopE
libLLVM.so.11:_ZN4llvm15ScalarEvolution15isKnownNegativeEPKNS_4SCEVE
libLLVM.so.11:_ZN4llvm15ScalarEvolution15isKnownPositiveEPKNS_4SCEVE
libLLVM.so.11:_ZN4llvm15ScalarEvolution15isLoopInvariantEPKNS_4SCEVEPKNS_4LoopE
libLLVM.so.11:_ZN4llvm15ScalarEvolution16computeExitLimitEPKNS_4LoopEPNS_10BasicBlockEb
libLLVM.so.11:_ZN4llvm15ScalarEvolution16createNodeForGEPEPNS_11GEPOperatorE
libLLVM.so.11:_ZN4llvm15ScalarEvolution16createNodeForPHIEPNS_7PHINodeE
libLLVM.so.11:_ZN4llvm15ScalarEvolution16getAnyExtendExprEPKNS_4SCEVEPNS_4TypeE
libLLVM.so.11:_ZN4llvm15ScalarEvolution16getUDivExactExprEPKNS_4SCEVES3_
libLLVM.so.11:_ZN4llvm15ScalarEvolution16getWrapPredicateEPKNS_14SCEVAddRecExprENS_17SCEVWrapPredicate18IncrementWrapFlagsE
libLLVM.so.11:_ZN4llvm15ScalarEvolution16howManyLessThansEPKNS_4SCEVES3_PKNS_4LoopEbbb
libLLVM.so.11:_ZN4llvm15ScalarEvolution16isKnownPredicateENS_7CmpInst9PredicateEPKNS_4SCEVES5_
libLLVM.so.11:_ZN4llvm15ScalarEvolution17BackedgeTakenInfo5clearEv
libLLVM.so.11:_ZN4llvm15ScalarEvolution17BackedgeTakenInfoC1ENS_8ArrayRefISt4pairIPNS_10BasicBlockENS0_9ExitLimitEEEEbPKNS_4SCEVEb
libLLVM.so.11:_ZN4llvm15ScalarEvolution17BackedgeTakenInfoC2ENS_8ArrayRefISt4pairIPNS_10BasicBlockENS0_9ExitLimitEEEEbPKNS_4SCEVEb
libLLVM.so.11:_ZN4llvm15ScalarEvolution17addToLoopUseListsEPKNS_4SCEVE
libLLVM.so.11:_ZN4llvm15ScalarEvolution17eraseValueFromMapEPNS_5ValueE
libLLVM.so.11:_ZN4llvm15ScalarEvolution17forgetTopmostLoopEPKNS_4LoopE
libLLVM.so.11:_ZN4llvm15ScalarEvolution17getEqualPredicateEPKNS_4SCEVES3_
libLLVM.so.11:_ZN4llvm15ScalarEvolution17getLoopPropertiesEPKNS_4LoopE
libLLVM.so.11:_ZN4llvm15ScalarEvolution17getSignExtendExprEPKNS_4SCEVEPNS_4TypeEj
libLLVM.so.11:_ZN4llvm15ScalarEvolution17getTruncateOrNoopEPKNS_4SCEVEPNS_4TypeE
libLLVM.so.11:_ZN4llvm15ScalarEvolution17getZeroExtendExprEPKNS_4SCEVEPNS_4TypeEj
libLLVM.so.11:_ZN4llvm15ScalarEvolution17isImpliedViaGuardEPNS_10BasicBlockENS_7CmpInst9PredicateEPKNS_4SCEVES7_
libLLVM.so.11:_ZN4llvm15ScalarEvolution17isImpliedViaMergeENS_7CmpInst9PredicateEPKNS_4SCEVES5_S5_S5_j
libLLVM.so.11:_ZN4llvm15ScalarEvolution17properlyDominatesEPKNS_4SCEVEPKNS_10BasicBlockE
libLLVM.so.11:_ZN4llvm15ScalarEvolution18computeSCEVAtScopeEPKNS_4SCEVEPKNS_4LoopE
libLLVM.so.11:_ZN4llvm15ScalarEvolution18doesIVOverflowOnGTEPKNS_4SCEVES3_bb
libLLVM.so.11:_ZN4llvm15ScalarEvolution18doesIVOverflowOnLTEPKNS_4SCEVES3_bb
libLLVM.so.11:_ZN4llvm15ScalarEvolution18forgetSymbolicNameEPNS_11InstructionEPKNS_4SCEVE
libLLVM.so.11:_ZN4llvm15ScalarEvolution18getCouldNotComputeEv
libLLVM.so.11:_ZN4llvm15ScalarEvolution18getLoopDispositionEPKNS_4SCEVEPKNS_4LoopE
libLLVM.so.11:_ZN4llvm15ScalarEvolution18getNoopOrAnyExtendEPKNS_4SCEVEPNS_4TypeE
libLLVM.so.11:_ZN4llvm15ScalarEvolution18getOrCreateAddExprENS_8ArrayRefIPKNS_4SCEVEEENS2_11NoWrapFlagsE
libLLVM.so.11:_ZN4llvm15ScalarEvolution18getOrCreateMulExprENS_8ArrayRefIPKNS_4SCEVEEENS2_11NoWrapFlagsE
libLLVM.so.11:_ZN4llvm15ScalarEvolution18isKnownNonNegativeEPKNS_4SCEVE
libLLVM.so.11:_ZN4llvm15ScalarEvolution18isKnownNonPositiveEPKNS_4SCEVE
libLLVM.so.11:_ZN4llvm15ScalarEvolution19GetMinTrailingZerosEPKNS_4SCEVE
libLLVM.so.11:_ZN4llvm15ScalarEvolution19createAddRecFromPHIEPNS_7PHINodeE
libLLVM.so.11:_ZN4llvm15ScalarEvolution19findArrayDimensionsERNS_15SmallVectorImplIPKNS_4SCEVEEES6_S4_
libLLVM.so.11:_ZN4llvm15ScalarEvolution19getBlockDispositionEPKNS_4SCEVEPKNS_10BasicBlockE
libLLVM.so.11:_ZN4llvm15ScalarEvolution19getNoopOrSignExtendEPKNS_4SCEVEPNS_4TypeE
libLLVM.so.11:_ZN4llvm15ScalarEvolution19getNoopOrZeroExtendEPKNS_4SCEVEPNS_4TypeE
libLLVM.so.11:_ZN4llvm15ScalarEvolution19getRangeForAffineAREPKNS_4SCEVES3_S3_j
libLLVM.so.11:_ZN4llvm15ScalarEvolution19howManyGreaterThansEPKNS_4SCEVES3_PKNS_4LoopEbbb
libLLVM.so.11:_ZN4llvm15ScalarEvolution19isAddRecNeverPoisonEPKNS_11InstructionEPKNS_4LoopE
libLLVM.so.11:_ZN4llvm15ScalarEvolution19isKnownViaInductionENS_7CmpInst9PredicateEPKNS_4SCEVES5_
libLLVM.so.11:_ZN4llvm15ScalarEvolution20SimplifyICmpOperandsERNS_7CmpInst9PredicateERPKNS_4SCEVES7_j
libLLVM.so.11:_ZN4llvm15ScalarEvolution20getBackedgeTakenInfoEPKNS_4LoopE
libLLVM.so.11:_ZN4llvm15ScalarEvolution20getNoWrapFlagsFromUBEPKNS_5ValueE
libLLVM.so.11:_ZN4llvm15ScalarEvolution20getRangeViaFactoringEPKNS_4SCEVES3_S3_j
libLLVM.so.11:_ZN4llvm15ScalarEvolution20isMonotonicPredicateEPKNS_14SCEVAddRecExprENS_7CmpInst9PredicateERb
libLLVM.so.11:_ZN4llvm15ScalarEvolution21containsAddRecurrenceEPKNS_4SCEVE
libLLVM.so.11:_ZN4llvm15ScalarEvolution21forgetMemoizedResultsEPKNS_4SCEVE
libLLVM.so.11:_ZN4llvm15ScalarEvolution21getBackedgeTakenCountEPKNS_4LoopENS0_13ExitCountKindE
libLLVM.so.11:_ZN4llvm15ScalarEvolution21getOrCreateAddRecExprENS_8ArrayRefIPKNS_4SCEVEEEPKNS_4LoopENS2_11NoWrapFlagsE
libLLVM.so.11:_ZN4llvm15ScalarEvolution21isImpliedCondOperandsENS_7CmpInst9PredicateEPKNS_4SCEVES5_S5_S5_
libLLVM.so.11:_ZN4llvm15ScalarEvolution21isSCEVExprNeverPoisonEPKNS_11InstructionE
libLLVM.so.11:_ZN4llvm15ScalarEvolution21rewriteUsingPredicateEPKNS_4SCEVEPKNS_4LoopERNS_18SCEVUnionPredicateE
libLLVM.so.11:_ZN4llvm15ScalarEvolution22collectParametricTermsEPKNS_4SCEVERNS_15SmallVectorImplIS3_EE
libLLVM.so.11:_ZN4llvm15ScalarEvolution22computeAccessFunctionsEPKNS_4SCEVERNS_15SmallVectorImplIS3_EES6_
libLLVM.so.11:_ZN4llvm15ScalarEvolution22computeLoopDispositionEPKNS_4SCEVEPKNS_4LoopE
libLLVM.so.11:_ZN4llvm15ScalarEvolution22computeMaxBECountForLTEPKNS_4SCEVES3_S3_jb
libLLVM.so.11:_ZN4llvm15ScalarEvolution22forgetLoopDispositionsEPKNS_4LoopE
libLLVM.so.11:_ZN4llvm15ScalarEvolution22isAvailableAtLoopEntryEPKNS_4SCEVEPKNS_4LoopE
libLLVM.so.11:_ZN4llvm15ScalarEvolution22isImpliedViaOperationsENS_7CmpInst9PredicateEPKNS_4SCEVES5_S5_S5_j
libLLVM.so.11:_ZN4llvm15ScalarEvolution23GetMinTrailingZerosImplEPKNS_4SCEVE
libLLVM.so.11:_ZN4llvm15ScalarEvolution23SplitIntoInitAndPostIncEPKNS_4LoopEPKNS_4SCEVE
libLLVM.so.11:_ZN4llvm15ScalarEvolution23computeBlockDispositionEPKNS_4SCEVEPKNS_10BasicBlockE
libLLVM.so.11:_ZN4llvm15ScalarEvolution23findExistingSCEVInCacheEiNS_8ArrayRefIPKNS_4SCEVEEE
libLLVM.so.11:_ZN4llvm15ScalarEvolution23getTruncateOrSignExtendEPKNS_4SCEVEPNS_4TypeEj
libLLVM.so.11:_ZN4llvm15ScalarEvolution23getTruncateOrZeroExtendEPKNS_4SCEVEPNS_4TypeEj
libLLVM.so.11:_ZN4llvm15ScalarEvolution23isKnownOnEveryIterationENS_7CmpInst9PredicateEPKNS_14SCEVAddRecExprEPKNS_4SCEVE
libLLVM.so.11:_ZN4llvm15ScalarEvolution24computeExitLimitFromCondEPKNS_4LoopEPNS_5ValueEbbb
libLLVM.so.11:_ZN4llvm15ScalarEvolution24computeExitLimitFromICmpEPKNS_4LoopEPNS_8ICmpInstEbbb
libLLVM.so.11:_ZN4llvm15ScalarEvolution24createNodeForSelectOrPHIEPNS_11InstructionEPNS_5ValueES4_S4_
libLLVM.so.11:_ZN4llvm15ScalarEvolution24createSimpleAffineAddRecEPNS_7PHINodeEPNS_5ValueES4_
libLLVM.so.11:_ZN4llvm15ScalarEvolution24isLoopEntryGuardedByCondEPKNS_4LoopENS_7CmpInst9PredicateEPKNS_4SCEVES8_
libLLVM.so.11:_ZN4llvm15ScalarEvolution24isLoopInvariantPredicateENS_7CmpInst9PredicateEPKNS_4SCEVES5_PKNS_4LoopERS2_RS5_SA_
libLLVM.so.11:_ZN4llvm15ScalarEvolution24isMonotonicPredicateImplEPKNS_14SCEVAddRecExprENS_7CmpInst9PredicateERb
libLLVM.so.11:_ZN4llvm15ScalarEvolution25computeBackedgeTakenCountEPKNS_4LoopEb
libLLVM.so.11:_ZN4llvm15ScalarEvolution25computeConstantDifferenceEPKNS_4SCEVES3_
libLLVM.so.11:_ZN4llvm15ScalarEvolution25getSmallConstantTripCountEPKNS_4LoopE
libLLVM.so.11:_ZN4llvm15ScalarEvolution25getSmallConstantTripCountEPKNS_4LoopEPNS_10BasicBlockE
libLLVM.so.11:_ZN4llvm15ScalarEvolution26getIndexExpressionsFromGEPEPKNS_17GetElementPtrInstERNS_15SmallVectorImplIPKNS_4SCEVEEERNS4_IiEE
libLLVM.so.11:_ZN4llvm15ScalarEvolution26getUMaxFromMismatchedTypesEPKNS_4SCEVES3_
libLLVM.so.11:_ZN4llvm15ScalarEvolution26getUMinFromMismatchedTypesEPKNS_4SCEVES3_
libLLVM.so.11:_ZN4llvm15ScalarEvolution26getUMinFromMismatchedTypesERNS_15SmallVectorImplIPKNS_4SCEVEEE
libLLVM.so.11:_ZN4llvm15ScalarEvolution26hasComputableLoopEvolutionEPKNS_4SCEVEPKNS_4LoopE
libLLVM.so.11:_ZN4llvm15ScalarEvolution27createNodeFromSelectLikePHIEPNS_7PHINodeE
libLLVM.so.11:_ZN4llvm15ScalarEvolution27isImpliedCondOperandsHelperENS_7CmpInst9PredicateEPKNS_4SCEVES5_S5_S5_
libLLVM.so.11:_ZN4llvm15ScalarEvolution27isLoopBackedgeGuardedByCondEPKNS_4LoopENS_7CmpInst9PredicateEPKNS_4SCEVES8_
libLLVM.so.11:_ZN4llvm15ScalarEvolution28computeExitCountExhaustivelyEPKNS_4LoopEPNS_5ValueEb
libLLVM.so.11:_ZN4llvm15ScalarEvolution28computeExitLimitFromCondImplERNS0_14ExitLimitCacheEPKNS_4LoopEPNS_5ValueEbbb
libLLVM.so.11:_ZN4llvm15ScalarEvolution28computeShiftCompareExitLimitEPNS_5ValueES2_PKNS_4LoopENS_7CmpInst9PredicateE
libLLVM.so.11:_ZN4llvm15ScalarEvolution28createAddRecFromPHIWithCastsEPKNS_11SCEVUnknownE
libLLVM.so.11:_ZN4llvm15ScalarEvolution28getSmallConstantMaxTripCountEPKNS_4LoopE
libLLVM.so.11:_ZN4llvm15ScalarEvolution28getSmallConstantTripMultipleEPKNS_4LoopE
libLLVM.so.11:_ZN4llvm15ScalarEvolution28getSmallConstantTripMultipleEPKNS_4LoopEPNS_10BasicBlockE
libLLVM.so.11:_ZN4llvm15ScalarEvolution28isKnownPredicateViaSplittingENS_7CmpInst9PredicateEPKNS_4SCEVES5_
libLLVM.so.11:_ZN4llvm15ScalarEvolution28proveNoWrapViaConstantRangesEPKNS_14SCEVAddRecExprE
libLLVM.so.11:_ZN4llvm15ScalarEvolution29isBackedgeTakenCountMaxOrZeroEPKNS_4LoopE
libLLVM.so.11:_ZN4llvm15ScalarEvolution29isKnownPredicateViaNoOverflowENS_7CmpInst9PredicateEPKNS_4SCEVES5_
libLLVM.so.11:_ZN4llvm15ScalarEvolution30computeExitLimitFromCondCachedERNS0_14ExitLimitCacheEPKNS_4LoopEPNS_5ValueEbbb
libLLVM.so.11:_ZN4llvm15ScalarEvolution30getPredicatedBackedgeTakenInfoEPKNS_4LoopE
libLLVM.so.11:_ZN4llvm15ScalarEvolution30isImpliedCondOperandsViaRangesENS_7CmpInst9PredicateEPKNS_4SCEVES5_S5_S5_
libLLVM.so.11:_ZN4llvm15ScalarEvolution31getPredicatedBackedgeTakenCountEPKNS_4LoopERNS_18SCEVUnionPredicateE
libLLVM.so.11:_ZN4llvm15ScalarEvolution31isKnownViaNonRecursiveReasoningENS_7CmpInst9PredicateEPKNS_4SCEVES5_
libLLVM.so.11:_ZN4llvm15ScalarEvolution32createAddRecFromPHIWithCastsImplEPKNS_11SCEVUnknownE
libLLVM.so.11:_ZN4llvm15ScalarEvolution33convertSCEVToAddRecWithPredicatesEPKNS_4SCEVEPKNS_4LoopERNS_15SmallPtrSetImplIPKNS_13SCEVPredicateEEE
libLLVM.so.11:_ZN4llvm15ScalarEvolution33getConstantEvolutionLoopExitValueEPNS_7PHINodeERKNS_5APIntEPKNS_4LoopE
libLLVM.so.11:_ZN4llvm15ScalarEvolution33isKnownPredicateViaConstantRangesENS_7CmpInst9PredicateEPKNS_4SCEVES5_
libLLVM.so.11:_ZN4llvm15ScalarEvolution34hasLoopInvariantBackedgeTakenCountEPKNS_4LoopE
libLLVM.so.11:_ZN4llvm15ScalarEvolution34isImpliedCondOperandsViaNoOverflowENS_7CmpInst9PredicateEPKNS_4SCEVES5_S5_S5_
libLLVM.so.11:_ZN4llvm15ScalarEvolution35computeLoadConstantCompareExitLimitEPNS_8LoadInstEPNS_8ConstantEPKNS_4LoopENS_7CmpInst9PredicateE
libLLVM.so.11:_ZN4llvm15ScalarEvolution36computeExitLimitFromSingleExitSwitchEPKNS_4LoopEPNS_10SwitchInstEPNS_10BasicBlockEb
libLLVM.so.11:_ZN4llvm15ScalarEvolution38getPredecessorWithUniqueSuccessorForBBEPNS_10BasicBlockE
libLLVM.so.11:_ZN4llvm15ScalarEvolution7getSCEVEPNS_5ValueE
libLLVM.so.11:_ZN4llvm15ScalarEvolution9ExitLimitC1EPKNS_4SCEVE
libLLVM.so.11:_ZN4llvm15ScalarEvolution9ExitLimitC1EPKNS_4SCEVES4_b
libLLVM.so.11:_ZN4llvm15ScalarEvolution9ExitLimitC1EPKNS_4SCEVES4_bNS_8ArrayRefIPKNS_15SmallPtrSetImplIPKNS_13SCEVPredicateEEEEE
libLLVM.so.11:_ZN4llvm15ScalarEvolution9ExitLimitC1EPKNS_4SCEVES4_bRKNS_15SmallPtrSetImplIPKNS_13SCEVPredicateEEE
libLLVM.so.11:_ZN4llvm15ScalarEvolution9ExitLimitC2EPKNS_4SCEVE
libLLVM.so.11:_ZN4llvm15ScalarEvolution9ExitLimitC2EPKNS_4SCEVES4_b
libLLVM.so.11:_ZN4llvm15ScalarEvolution9ExitLimitC2EPKNS_4SCEVES4_bNS_8ArrayRefIPKNS_15SmallPtrSetImplIPKNS_13SCEVPredicateEEEEE
libLLVM.so.11:_ZN4llvm15ScalarEvolution9ExitLimitC2EPKNS_4SCEVES4_bRKNS_15SmallPtrSetImplIPKNS_13SCEVPredicateEEE
libLLVM.so.11:_ZN4llvm15ScalarEvolution9dominatesEPKNS_4SCEVEPKNS_10BasicBlockE
libLLVM.so.11:_ZN4llvm15ScalarEvolution9matchURemEPKNS_4SCEVERS3_S4_
libLLVM.so.11:_ZN4llvm15ScalarEvolutionC1EOS0_
libLLVM.so.11:_ZN4llvm15ScalarEvolutionC1ERNS_8FunctionERNS_17TargetLibraryInfoERNS_15AssumptionCacheERNS_13DominatorTreeERNS_8LoopInfoE
libLLVM.so.11:_ZN4llvm15ScalarEvolutionC2EOS0_
libLLVM.so.11:_ZN4llvm15ScalarEvolutionC2ERNS_8FunctionERNS_17TargetLibraryInfoERNS_15AssumptionCacheERNS_13DominatorTreeERNS_8LoopInfoE
libLLVM.so.11:_ZN4llvm15ScalarEvolutionD1Ev
libLLVM.so.11:_ZN4llvm15ScalarEvolutionD2Ev
libLLVM.so.11:_ZN4llvm15ScopedNoAliasAA3runERNS_8FunctionERNS_15AnalysisManagerIS1_JEEE
libLLVM.so.11:_ZN4llvm15SignpostEmitter16endTimerIntervalEPNS_5TimerE
libLLVM.so.11:_ZN4llvm15SignpostEmitter18startTimerIntervalEPNS_5TimerE
libLLVM.so.11:_ZN4llvm15SignpostEmitterC1Ev
libLLVM.so.11:_ZN4llvm15SignpostEmitterC2Ev
libLLVM.so.11:_ZN4llvm15SignpostEmitterD1Ev
libLLVM.so.11:_ZN4llvm15SignpostEmitterD2Ev
libLLVM.so.11:_ZN4llvm15SimplifyAddInstEPNS_5ValueES1_bbRKNS_13SimplifyQueryE
libLLVM.so.11:_ZN4llvm15SimplifyAndInstEPNS_5ValueES1_RKNS_13SimplifyQueryE
libLLVM.so.11:_ZN4llvm15SimplifyCFGPass3runERNS_8FunctionERNS_15AnalysisManagerIS1_JEEE
libLLVM.so.11:_ZN4llvm15SimplifyCFGPassC1ERKNS_18SimplifyCFGOptionsE
libLLVM.so.11:_ZN4llvm15SimplifyCFGPassC2ERKNS_18SimplifyCFGOptionsE
libLLVM.so.11:_ZN4llvm15SimplifyCmpInstEjPNS_5ValueES1_RKNS_13SimplifyQueryE
libLLVM.so.11:_ZN4llvm15SimplifyFMAFMulEPNS_5ValueES1_NS_13FastMathFlagsERKNS_13SimplifyQueryE
libLLVM.so.11:_ZN4llvm15SimplifyGEPInstEPNS_4TypeENS_8ArrayRefIPNS_5ValueEEERKNS_13SimplifyQueryE
libLLVM.so.11:_ZN4llvm15SimplifyMulInstEPNS_5ValueES1_RKNS_13SimplifyQueryE
libLLVM.so.11:_ZN4llvm15SimplifyShlInstEPNS_5ValueES1_bbRKNS_13SimplifyQueryE
libLLVM.so.11:_ZN4llvm15SimplifySubInstEPNS_5ValueES1_bbRKNS_13SimplifyQueryE
libLLVM.so.11:_ZN4llvm15SimplifyXorInstEPNS_5ValueES1_RKNS_13SimplifyQueryE
libLLVM.so.11:_ZN4llvm15SpecialCaseList11createOrDieERKSt6vectorINSt7__cxx1112basic_stringIcSt11char_traitsIcESaIcEEESaIS7_EERNS_3vfs10FileSystemE
libLLVM.so.11:_ZN4llvm15SpecialCaseList14createInternalEPKNS_12MemoryBufferERNSt7__cxx1112basic_stringIcSt11char_traitsIcESaIcEEE
libLLVM.so.11:_ZN4llvm15SpecialCaseList14createInternalERKSt6vectorINSt7__cxx1112basic_stringIcSt11char_traitsIcESaIcEEESaIS7_EERNS_3vfs10FileSystemERS7_
libLLVM.so.11:_ZN4llvm15SpecialCaseList5parseEPKNS_12MemoryBufferERNS_9StringMapIjNS_15MallocAllocatorEEERNSt7__cxx1112basic_stringIcSt11char_traitsIcESaIcEEE
libLLVM.so.11:_ZN4llvm15SpecialCaseList6createEPKNS_12MemoryBufferERNSt7__cxx1112basic_stringIcSt11char_traitsIcESaIcEEE
libLLVM.so.11:_ZN4llvm15SpecialCaseList6createERKSt6vectorINSt7__cxx1112basic_stringIcSt11char_traitsIcESaIcEEESaIS7_EERNS_3vfs10FileSystemERS7_
libLLVM.so.11:_ZN4llvm15SpecialCaseList7Matcher6insertENSt7__cxx1112basic_stringIcSt11char_traitsIcESaIcEEEjRS7_
libLLVM.so.11:_ZN4llvm15SpecialCaseListD1Ev
libLLVM.so.11:_ZN4llvm15SpecialCaseListD2Ev
libLLVM.so.11:_ZN4llvm15StackSafetyInfoC1EOS0_
libLLVM.so.11:_ZN4llvm15StackSafetyInfoC1EPNS_8FunctionESt8functionIFRNS_15ScalarEvolutionEvEE
libLLVM.so.11:_ZN4llvm15StackSafetyInfoC1Ev
libLLVM.so.11:_ZN4llvm15StackSafetyInfoC2EOS0_
libLLVM.so.11:_ZN4llvm15StackSafetyInfoC2EPNS_8FunctionESt8functionIFRNS_15ScalarEvolutionEvEE
libLLVM.so.11:_ZN4llvm15StackSafetyInfoC2Ev
libLLVM.so.11:_ZN4llvm15StackSafetyInfoD1Ev
libLLVM.so.11:_ZN4llvm15StackSafetyInfoD2Ev
libLLVM.so.11:_ZN4llvm15StackSafetyInfoaSEOS0_
libLLVM.so.11:_ZN4llvm15TargetInstrInfo17PipelinerLoopInfoD0Ev
libLLVM.so.11:_ZN4llvm15TargetInstrInfo17PipelinerLoopInfoD1Ev
libLLVM.so.11:_ZN4llvm15TargetInstrInfo17PipelinerLoopInfoD2Ev
libLLVM.so.11:_ZN4llvm15TargetInstrInfo20fixCommutedOpIndicesERjS1_jj
libLLVM.so.11:_ZN4llvm15TargetInstrInfoD0Ev
libLLVM.so.11:_ZN4llvm15TargetInstrInfoD1Ev
libLLVM.so.11:_ZN4llvm15TargetInstrInfoD2Ev
libLLVM.so.11:_ZN4llvm15UnreachableInstC1ERNS_11LLVMContextEPNS_10BasicBlockE
libLLVM.so.11:_ZN4llvm15UnreachableInstC1ERNS_11LLVMContextEPNS_11InstructionE
libLLVM.so.11:_ZN4llvm15UnreachableInstC2ERNS_11LLVMContextEPNS_10BasicBlockE
libLLVM.so.11:_ZN4llvm15UnreachableInstC2ERNS_11LLVMContextEPNS_11InstructionE
libLLVM.so.11:_ZN4llvm15UpgradeTBAANodeERNS_6MDNodeE
libLLVM.so.11:_ZN4llvm15VPRecipeBuilder10tryToBlendEPNS_7PHINodeERSt10unique_ptrINS_5VPlanESt14default_deleteIS4_EE
libLLVM.so.11:_ZN4llvm15VPRecipeBuilder14createEdgeMaskEPNS_10BasicBlockES2_RSt10unique_ptrINS_5VPlanESt14default_deleteIS4_EE
libLLVM.so.11:_ZN4llvm15VPRecipeBuilder16tryToWidenMemoryEPNS_11InstructionERNS_7VFRangeERSt10unique_ptrINS_5VPlanESt14default_deleteIS6_EE
libLLVM.so.11:_ZN4llvm15VPRecipeBuilder17createBlockInMaskEPNS_10BasicBlockERSt10unique_ptrINS_5VPlanESt14default_deleteIS4_EE
libLLVM.so.11:_ZN4llvm15VPRecipeBuilder17handleReplicationEPNS_11InstructionERNS_7VFRangeEPNS_12VPBasicBlockERNS_8DenseMapIS2_PNS_17VPReplicateRecipeENS_12DenseMapInfoIS2_EENS_6detail12DenseMapPairIS2_S9_EEEERSt10unique_ptrINS_5VPlanESt14default_deleteISI_EE
libLLVM.so.11:_ZN4llvm15VPRecipeBuilder21createReplicateRegionEPNS_11InstructionEPNS_12VPRecipeBaseERSt10unique_ptrINS_5VPlanESt14default_deleteIS6_EE
libLLVM.so.11:_ZN4llvm15VPRecipeBuilder22tryToCreateWidenRecipeEPNS_11InstructionERNS_7VFRangeERSt10unique_ptrINS_5VPlanESt14default_deleteIS6_EE
libLLVM.so.11:_ZN4llvm15VPlanPredicator16genPredicateTreeERNSt7__cxx114listIPNS_7VPValueESaIS4_EEE
libLLVM.so.11:_ZN4llvm15VPlanPredicator18getEdgeTypeBetweenEPNS_11VPBlockBaseES2_
libLLVM.so.11:_ZN4llvm15VPlanPredicator18linearizeRegionRecEPNS_13VPRegionBlockE
libLLVM.so.11:_ZN4llvm15VPlanPredicator18predicateRegionRecEPNS_13VPRegionBlockE
libLLVM.so.11:_ZN4llvm15VPlanPredicator23getOrCreateNotPredicateEPNS_12VPBasicBlockES2_
libLLVM.so.11:_ZN4llvm15VPlanPredicator27createOrPropagatePredicatesEPNS_11VPBlockBaseEPNS_13VPRegionBlockE
libLLVM.so.11:_ZN4llvm15VPlanPredicator9predicateEv
libLLVM.so.11:_ZN4llvm15VPlanPredicatorC1ERNS_5VPlanE
libLLVM.so.11:_ZN4llvm15VPlanPredicatorC2ERNS_5VPlanE
libLLVM.so.11:_ZN4llvm15VPlanTransforms25VPInstructionsToVPRecipesEPNS_4LoopERSt10unique_ptrINS_5VPlanESt14default_deleteIS4_EERNS_9MapVectorIPNS_7PHINodeENS_19InductionDescriptorENS_8DenseMapISB_jNS_12DenseMapInfoISB_EENS_6detail12DenseMapPairISB_jEEEESt6vectorISt4pairISB_SC_ESaISM_EEEERNS_15SmallPtrSetImplIPNS_11InstructionEEE
libLLVM.so.11:_ZN4llvm15ValueAsMetadata10handleRAUWEPNS_5ValueES2_
libLLVM.so.11:_ZN4llvm15ValueAsMetadata11getIfExistsEPNS_5ValueE
libLLVM.so.11:_ZN4llvm15ValueAsMetadata14handleDeletionEPNS_5ValueE
libLLVM.so.11:_ZN4llvm15ValueAsMetadata3getEPNS_5ValueE
libLLVM.so.11:_ZN4llvm15ValueEnumerator13EnumerateTypeEPNS_4TypeE
libLLVM.so.11:_ZN4llvm15ValueEnumerator13purgeFunctionEv
libLLVM.so.11:_ZN4llvm15ValueEnumerator14EnumerateValueEPKNS_5ValueE
libLLVM.so.11:_ZN4llvm15ValueEnumerator16organizeMetadataEv
libLLVM.so.11:_ZN4llvm15ValueEnumerator16setInstructionIDEPKNS_11InstructionE
libLLVM.so.11:_ZN4llvm15ValueEnumerator17EnumerateMetadataEPKNS_8FunctionEPKNS_8MetadataE
libLLVM.so.11:_ZN4llvm15ValueEnumerator17EnumerateMetadataEjPKNS_8MetadataE
libLLVM.so.11:_ZN4llvm15ValueEnumerator17OptimizeConstantsEjj
libLLVM.so.11:_ZN4llvm15ValueEnumerator19EnumerateAttributesENS_13AttributeListE
libLLVM.so.11:_ZN4llvm15ValueEnumerator19incorporateFunctionERKNS_8FunctionE
libLLVM.so.11:_ZN4llvm15ValueEnumerator20EnumerateNamedMDNodeEPKNS_11NamedMDNodeE
libLLVM.so.11:_ZN4llvm15ValueEnumerator20EnumerateOperandTypeEPKNS_5ValueE
libLLVM.so.11:_ZN4llvm15ValueEnumerator21enumerateMetadataImplEjPKNS_8MetadataE
libLLVM.so.11:_ZN4llvm15ValueEnumerator22EnumerateNamedMetadataERKNS_6ModuleE
libLLVM.so.11:_ZN4llvm15ValueEnumerator24dropFunctionFromMetadataERNS_6detail12DenseMapPairIPKNS_8MetadataENS0_7MDIndexEEE
libLLVM.so.11:_ZN4llvm15ValueEnumerator25EnumerateValueSymbolTableERKNS_16ValueSymbolTableE
libLLVM.so.11:_ZN4llvm15ValueEnumerator27incorporateFunctionMetadataERKNS_8FunctionE
libLLVM.so.11:_ZN4llvm15ValueEnumerator30EnumerateFunctionLocalMetadataERKNS_8FunctionEPKNS_15LocalAsMetadataE
libLLVM.so.11:_ZN4llvm15ValueEnumerator30EnumerateFunctionLocalMetadataEjPKNS_15LocalAsMetadataE
libLLVM.so.11:_ZN4llvm15ValueEnumeratorC1ERKNS_6ModuleEb
libLLVM.so.11:_ZN4llvm15ValueEnumeratorC2ERKNS_6ModuleEb
libLLVM.so.11:_ZN4llvm15ValueHandleBase12AddToUseListEv
libLLVM.so.11:_ZN4llvm15ValueHandleBase12ValueIsRAUWdEPNS_5ValueES2_
libLLVM.so.11:_ZN4llvm15ValueHandleBase14ValueIsDeletedEPNS_5ValueE
libLLVM.so.11:_ZN4llvm15ValueHandleBase17RemoveFromUseListEv
libLLVM.so.11:_ZN4llvm15ValueHandleBase20AddToExistingUseListEPPS0_
libLLVM.so.11:_ZN4llvm15ValueHandleBase25AddToExistingUseListAfterEPS0_
libLLVM.so.11:_ZN4llvm15ValueProfRecord13deserializeToERNS_15InstrProfRecordEPNS_15InstrProfSymtabE
libLLVM.so.11:_ZN4llvm15ValueProfRecord9swapBytesENS_7support10endiannessES2_
libLLVM.so.11:_ZN4llvm15allocate_bufferEjj
libLLVM.so.11:_ZN4llvm15canCreatePoisonEPKNS_11InstructionE
libLLVM.so.11:_ZN4llvm15colorEHFuncletsERNS_8FunctionE
libLLVM.so.11:_ZN4llvm15combineMetadataEPNS_11InstructionEPKS0_NS_8ArrayRefIjEEb
libLLVM.so.11:_ZN4llvm15createLCSSAPassEv
libLLVM.so.11:_ZN4llvm15createMIRParserESt10unique_ptrINS_12MemoryBufferESt14default_deleteIS1_EERNS_11LLVMContextESt8functionIFvRNS_8FunctionEEE
libLLVM.so.11:_ZN4llvm15createWinEHPassEb
libLLVM.so.11:_ZN4llvm15emitInlinedIntoERNS_25OptimizationRemarkEmitterENS_8DebugLocEPKNS_10BasicBlockERKNS_8FunctionES8_RKNS_10InlineCostEbPKc
libLLVM.so.11:_ZN4llvm15expandRemainderEPNS_14BinaryOperatorE
libLLVM.so.11:_ZN4llvm15finalizeBundlesERNS_15MachineFunctionE
libLLVM.so.11:_ZN4llvm15format_providerINS_4json5ValueEvE6formatERKS2_RNS_11raw_ostreamENS_9StringRefE
libLLVM.so.11:_ZN4llvm15format_providerINSt6chrono10time_pointINS1_3_V212system_clockENS1_8durationIxSt5ratioILx1ELx1000000000EEEEEEvE6formatERKS9_RNS_11raw_ostreamENS_9StringRefE
libLLVM.so.11:_ZN4llvm15getBugReportMsgEv
libLLVM.so.11:_ZN4llvm15getCallsiteCostERNS_8CallBaseERKNS_10DataLayoutE
libLLVM.so.11:_ZN4llvm15getDISubprogramEPKNS_6MDNodeE
libLLVM.so.11:_ZN4llvm15getFCmpCondCodeENS_7CmpInst9PredicateE
libLLVM.so.11:_ZN4llvm15getICmpCondCodeENS_7CmpInst9PredicateE
libLLVM.so.11:_ZN4llvm15getInlineParamsEi
libLLVM.so.11:_ZN4llvm15getInlineParamsEjj
libLLVM.so.11:_ZN4llvm15getInlineParamsEv
libLLVM.so.11:_ZN4llvm15getLazyIRModuleESt10unique_ptrINS_12MemoryBufferESt14default_deleteIS1_EERNS_12SMDiagnosticERNS_11LLVMContextEb
libLLVM.so.11:_ZN4llvm15get_thread_nameERNS_15SmallVectorImplIcEE
libLLVM.so.11:_ZN4llvm15guessSuccessorsERKNS_17MachineBasicBlockERNS_15SmallVectorImplIPS0_EERb
libLLVM.so.11:_ZN4llvm15invertConditionEPNS_5ValueE
libLLVM.so.11:_ZN4llvm15isBytewiseValueEPNS_5ValueERKNS_10DataLayoutE
libLLVM.so.11:_ZN4llvm15isKnownNegationEPKNS_5ValueES2_b
libLLVM.so.11:_ZN4llvm15isKnownNegativeEPKNS_5ValueERKNS_10DataLayoutEjPNS_15AssumptionCacheEPKNS_11InstructionEPKNS_13DominatorTreeEb
libLLVM.so.11:_ZN4llvm15isKnownNeverNaNENS_8RegisterERKNS_19MachineRegisterInfoEb
libLLVM.so.11:_ZN4llvm15isKnownNeverNaNEPKNS_5ValueEPKNS_17TargetLibraryInfoEj
libLLVM.so.11:_ZN4llvm15isKnownNonEqualEPKNS_5ValueES2_RKNS_10DataLayoutEPNS_15AssumptionCacheEPKNS_11InstructionEPKNS_13DominatorTreeEb
libLLVM.so.11:_ZN4llvm15isKnownPositiveEPKNS_5ValueERKNS_10DataLayoutEjPNS_15AssumptionCacheEPKNS_11InstructionEPKNS_13DominatorTreeEb
libLLVM.so.11:_ZN4llvm15isOneOrOneSplatENS_7SDValueE
libLLVM.so.11:_ZN4llvm15isPointerOffsetEPKNS_5ValueES2_RKNS_10DataLayoutE
libLLVM.so.11:_ZN4llvm15isReallocLikeFnEPKNS_5ValueEPKNS_17TargetLibraryInfoEb
libLLVM.so.11:_ZN4llvm15isReallocLikeFnEPKNS_8FunctionEPKNS_17TargetLibraryInfoE
libLLVM.so.11:_ZN4llvm15isTriviallyDeadERKNS_12MachineInstrERKNS_19MachineRegisterInfoE
libLLVM.so.11:_ZN4llvm15itaniumDemangleEPKcPcPjPi
libLLVM.so.11:_ZN4llvm15printVRegOrUnitEjPKNS_18TargetRegisterInfoE
libLLVM.so.11:_ZN4llvm15setBugReportMsgEPKc
libLLVM.so.11:_ZN4llvm15setInlineRemarkERNS_8CallBaseENS_9StringRefE
libLLVM.so.11:_ZN4llvm15setProfMetadataEPNS_6ModuleEPNS_11InstructionENS_8ArrayRefIyEEy
libLLVM.so.11:_ZN4llvm15set_thread_nameERKNS_5TwineE
libLLVM.so.11:_ZN4llvm15simplifyLoopIVsEPNS_4LoopEPNS_15ScalarEvolutionEPNS_13DominatorTreeEPNS_8LoopInfoEPKNS_19TargetTransformInfoERNS_15SmallVectorImplINS_14WeakTrackingVHEEE
libLLVM.so.11:_ZN4llvm15sortPtrAccessesENS_8ArrayRefIPNS_5ValueEEERKNS_10DataLayoutERNS_15ScalarEvolutionERNS_15SmallVectorImplIjEE
libLLVM.so.11:_ZN4llvm16AAMemoryBehavior17createForPositionERKNS_10IRPositionERNS_10AttributorE
libLLVM.so.11:_ZN4llvm16AAMemoryLocation17createForPositionERKNS_10IRPositionERNS_10AttributorE
libLLVM.so.11:_ZN4llvm16AAMemoryLocation23getMemoryLocationsAsStrB5cxx11Ej
libLLVM.so.11:_ZN4llvm16AAReturnedValues17createForPositionERKNS_10IRPositionERNS_10AttributorE
libLLVM.so.11:_ZN4llvm16AbstractCallSite15getCallbackUsesERKNS_8CallBaseERNS_15SmallVectorImplIPKNS_3UseEEE
libLLVM.so.11:_ZN4llvm16AbstractCallSiteC1EPKNS_3UseE
libLLVM.so.11:_ZN4llvm16AbstractCallSiteC2EPKNS_3UseE
libLLVM.so.11:_ZN4llvm16AnalysisResolver12findImplPassEPNS_4PassEPKvRNS_8FunctionE
libLLVM.so.11:_ZN4llvm16AttributeSetNode3getERNS_11LLVMContextENS_8ArrayRefINS_9AttributeEEE
libLLVM.so.11:_ZN4llvm16AttributeSetNode3getERNS_11LLVMContextERKNS_11AttrBuilderE
libLLVM.so.11:_ZN4llvm16AttributeSetNode9getSortedERNS_11LLVMContextENS_8ArrayRefINS_9AttributeEEE
libLLVM.so.11:_ZN4llvm16AttributeSetNodeC1ENS_8ArrayRefINS_9AttributeEEE
libLLVM.so.11:_ZN4llvm16AttributeSetNodeC2ENS_8ArrayRefINS_9AttributeEEE
libLLVM.so.11:_ZN4llvm16CallGraphSCCPass17assignPassManagerERNS_7PMStackENS_15PassManagerTypeE
libLLVM.so.11:_ZN4llvm16CallGraphUpdater14removeCallSiteERNS_8CallBaseE
libLLVM.so.11:_ZN4llvm16CallGraphUpdater14removeFunctionERNS_8FunctionE
libLLVM.so.11:_ZN4llvm16CallGraphUpdater15replaceCallSiteERNS_8CallBaseES2_
libLLVM.so.11:_ZN4llvm16CallGraphUpdater17reanalyzeFunctionERNS_8FunctionE
libLLVM.so.11:_ZN4llvm16CallGraphUpdater19replaceFunctionWithERNS_8FunctionES2_
libLLVM.so.11:_ZN4llvm16CallGraphUpdater24registerOutlinedFunctionERNS_8FunctionE
libLLVM.so.11:_ZN4llvm16CallGraphUpdater8finalizeEv
libLLVM.so.11:_ZN4llvm16ConstantFPSDNode19isValueValidForTypeENS_3EVTERKNS_7APFloatE
libLLVM.so.11:_ZN4llvm16ConstantFoldCallEPKNS_8CallBaseEPNS_8FunctionENS_8ArrayRefIPNS_8ConstantEEEPKNS_17TargetLibraryInfoE
libLLVM.so.11:_ZN4llvm16DIGlobalVariable7getImplERNS_11LLVMContextEPNS_8MetadataEPNS_8MDStringES6_S4_jS4_bbS4_S4_jNS3_11StorageTypeEb
libLLVM.so.11:_ZN4llvm16DIImportedEntity7getImplERNS_11LLVMContextEjPNS_8MetadataES4_S4_jPNS_8MDStringENS3_11StorageTypeEb
libLLVM.so.11:_ZN4llvm16DISubroutineType7getImplERNS_11LLVMContextENS_6DINode7DIFlagsEhPNS_8MetadataENS5_11StorageTypeEb
libLLVM.so.11:_ZN4llvm16DWARFCompileUnit4dumpERNS_11raw_ostreamENS_13DIDumpOptionsE
libLLVM.so.11:_ZN4llvm16DWARFCompileUnitD0Ev
libLLVM.so.11:_ZN4llvm16DWARFCompileUnitD1Ev
libLLVM.so.11:_ZN4llvm16DWARFCompileUnitD2Ev
libLLVM.so.11:_ZN4llvm16DWARFDebugAbbrev5clearEv
libLLVM.so.11:_ZN4llvm16DWARFDebugAbbrev7extractENS_13DataExtractorE
libLLVM.so.11:_ZN4llvm16DWARFDebugAbbrevC1Ev
libLLVM.so.11:_ZN4llvm16DWARFDebugAbbrevC2Ev
libLLVM.so.11:_ZN4llvm16DbgLabelInstrMap8addInstrESt4pairIPKNS_6DINodeEPKNS_10DILocationEERKNS_12MachineInstrE
libLLVM.so.11:_ZN4llvm16DebugHandlerBase11endFunctionEPKNS_15MachineFunctionE
libLLVM.so.11:_ZN4llvm16DebugHandlerBase13beginFunctionEPKNS_15MachineFunctionE
libLLVM.so.11:_ZN4llvm16DebugHandlerBase13endBasicBlockERKNS_17MachineBasicBlockE
libLLVM.so.11:_ZN4llvm16DebugHandlerBase14endInstructionEv
libLLVM.so.11:_ZN4llvm16DebugHandlerBase15beginBasicBlockERKNS_17MachineBasicBlockE
libLLVM.so.11:_ZN4llvm16DebugHandlerBase15getBaseTypeSizeEPKNS_6DITypeE
libLLVM.so.11:_ZN4llvm16DebugHandlerBase16beginInstructionEPKNS_12MachineInstrE
libLLVM.so.11:_ZN4llvm16DebugHandlerBase17getLabelAfterInsnEPKNS_12MachineInstrE
libLLVM.so.11:_ZN4llvm16DebugHandlerBase18getLabelBeforeInsnEPKNS_12MachineInstrE
libLLVM.so.11:_ZN4llvm16DebugHandlerBase20identifyScopeMarkersEv
libLLVM.so.11:_ZN4llvm16DebugHandlerBaseC2EPNS_10AsmPrinterE
libLLVM.so.11:_ZN4llvm16DeleteDeadBlocksENS_8ArrayRefIPNS_10BasicBlockEEEPNS_14DomTreeUpdaterEb
libLLVM.so.11:_ZN4llvm16DemotePHIToStackEPNS_7PHINodeEPNS_11InstructionE
libLLVM.so.11:_ZN4llvm16DemoteRegToStackERNS_11InstructionEbPS0_
libLLVM.so.11:_ZN4llvm16DwarfCompileUnit10addAddressERNS_3DIEENS_5dwarf9AttributeERKNS_15MachineLocationE
libLLVM.so.11:_ZN4llvm16DwarfCompileUnit10emitHeaderEb
libLLVM.so.11:_ZN4llvm16DwarfCompileUnit12initStmtListEv
libLLVM.so.11:_ZN4llvm16DwarfCompileUnit13addGlobalNameENS_9StringRefERKNS_3DIEEPKNS_7DIScopeE
libLLVM.so.11:_ZN4llvm16DwarfCompileUnit13addGlobalTypeEPKNS_6DITypeERKNS_3DIEEPKNS_7DIScopeE
libLLVM.so.11:_ZN4llvm16DwarfCompileUnit13applyStmtListERNS_3DIEE
libLLVM.so.11:_ZN4llvm16DwarfCompileUnit14addBaseTypeRefERNS_12DIEValueListEx
libLLVM.so.11:_ZN4llvm16DwarfCompileUnit15addLabelAddressERNS_3DIEENS_5dwarf9AttributeEPKNS_8MCSymbolE
libLLVM.so.11:_ZN4llvm16DwarfCompileUnit15addLocationListERNS_3DIEENS_5dwarf9AttributeEj
libLLVM.so.11:_ZN4llvm16DwarfCompileUnit15attachLowHighPCERNS_3DIEEPKNS_8MCSymbolES5_
libLLVM.so.11:_ZN4llvm16DwarfCompileUnit16addAddrTableBaseEv
libLLVM.so.11:_ZN4llvm16DwarfCompileUnit17addComplexAddressERKNS_11DbgVariableERNS_3DIEENS_5dwarf9AttributeERKNS_15MachineLocationE
libLLVM.so.11:_ZN4llvm16DwarfCompileUnit17addScopeRangeListERNS_3DIEENS_11SmallVectorINS_9RangeSpanELj2EEE
libLLVM.so.11:_ZN4llvm16DwarfCompileUnit17constructLabelDIEERNS_8DbgLabelERKNS_12LexicalScopeE
libLLVM.so.11:_ZN4llvm16DwarfCompileUnit17constructScopeDIEEPNS_12LexicalScopeERNS_15SmallVectorImplIPNS_3DIEEEE
libLLVM.so.11:_ZN4llvm16DwarfCompileUnit18addVariableAddressERKNS_11DbgVariableERNS_3DIEENS_15MachineLocationE
libLLVM.so.11:_ZN4llvm16DwarfCompileUnit18createBaseTypeDIEsEv
libLLVM.so.11:_ZN4llvm16DwarfCompileUnit19getOrCreateSourceIDEPKNS_6DIFileE
libLLVM.so.11:_ZN4llvm16DwarfCompileUnit20addLocalLabelAddressERNS_3DIEENS_5dwarf9AttributeEPKNS_8MCSymbolE
libLLVM.so.11:_ZN4llvm16DwarfCompileUnit20addLocationAttributeEPNS_3DIEEPKNS_16DIGlobalVariableENS_8ArrayRefINS0_10GlobalExprEEE
libLLVM.so.11:_ZN4llvm16DwarfCompileUnit20applyLabelAttributesERKNS_8DbgLabelERNS_3DIEE
libLLVM.so.11:_ZN4llvm16DwarfCompileUnit20constructVariableDIEERNS_11DbgVariableERKNS_12LexicalScopeERPNS_3DIEE
libLLVM.so.11:_ZN4llvm16DwarfCompileUnit20constructVariableDIEERNS_11DbgVariableEb
libLLVM.so.11:_ZN4llvm16DwarfCompileUnit20createAbstractEntityEPKNS_6DINodeEPNS_12LexicalScopeE
libLLVM.so.11:_ZN4llvm16DwarfCompileUnit20finishNonUnitTypeDIEERNS_3DIEEPKNS_15DICompositeTypeE
libLLVM.so.11:_ZN4llvm16DwarfCompileUnit21addGlobalTypeUnitTypeEPKNS_6DITypeEPKNS_7DIScopeE
libLLVM.so.11:_ZN4llvm16DwarfCompileUnit22createScopeChildrenDIEEPNS_12LexicalScopeERNS_15SmallVectorImplIPNS_3DIEEEEPb
libLLVM.so.11:_ZN4llvm16DwarfCompileUnit22finishEntityDefinitionEPKNS_9DbgEntityE
libLLVM.so.11:_ZN4llvm16DwarfCompileUnit22getOrCreateCommonBlockEPKNS_13DICommonBlockENS_8ArrayRefINS0_10GlobalExprEEE
libLLVM.so.11:_ZN4llvm16DwarfCompileUnit23applyVariableAttributesERKNS_11DbgVariableERNS_3DIEE
libLLVM.so.11:_ZN4llvm16DwarfCompileUnit23attachRangesOrLowHighPCERNS_3DIEENS_11SmallVectorINS_9RangeSpanELj2EEE
libLLVM.so.11:_ZN4llvm16DwarfCompileUnit23attachRangesOrLowHighPCERNS_3DIEERKNS_15SmallVectorImplISt4pairIPKNS_12MachineInstrES7_EEE
libLLVM.so.11:_ZN4llvm16DwarfCompileUnit24addGlobalNameForTypeUnitENS_9StringRefEPKNS_7DIScopeE
libLLVM.so.11:_ZN4llvm16DwarfCompileUnit24constructInlinedScopeDIEEPNS_12LexicalScopeE
libLLVM.so.11:_ZN4llvm16DwarfCompileUnit24constructLexicalScopeDIEEPNS_12LexicalScopeE
libLLVM.so.11:_ZN4llvm16DwarfCompileUnit24constructVariableDIEImplERKNS_11DbgVariableEb
libLLVM.so.11:_ZN4llvm16DwarfCompileUnit24updateSubprogramScopeDIEEPKNS_12DISubprogramE
libLLVM.so.11:_ZN4llvm16DwarfCompileUnit25constructCallSiteEntryDIEERNS_3DIEEPS1_bPKNS_8MCSymbolES6_j
libLLVM.so.11:_ZN4llvm16DwarfCompileUnit25createAndAddScopeChildrenEPNS_12LexicalScopeERNS_3DIEE
libLLVM.so.11:_ZN4llvm16DwarfCompileUnit25getExistingAbstractEntityEPKNS_6DINodeE
libLLVM.so.11:_ZN4llvm16DwarfCompileUnit26constructImportedEntityDIEEPKNS_16DIImportedEntityE
libLLVM.so.11:_ZN4llvm16DwarfCompileUnit26finishSubprogramDefinitionEPKNS_12DISubprogramE
libLLVM.so.11:_ZN4llvm16DwarfCompileUnit27constructSubprogramScopeDIEEPKNS_12DISubprogramEPNS_12LexicalScopeE
libLLVM.so.11:_ZN4llvm16DwarfCompileUnit28getOrCreateGlobalVariableDIEEPKNS_16DIGlobalVariableENS_8ArrayRefINS0_10GlobalExprEEE
libLLVM.so.11:_ZN4llvm16DwarfCompileUnit30constructCallSiteParmEntryDIEsERNS_3DIEERNS_11SmallVectorINS_16DbgCallSiteParamELj4EEE
libLLVM.so.11:_ZN4llvm16DwarfCompileUnit35constructAbstractSubprogramScopeDIEEPNS_12LexicalScopeE
libLLVM.so.11:_ZN4llvm16DwarfCompileUnit37applySubprogramAttributesToDefinitionEPKNS_12DISubprogramERNS_3DIEE
libLLVM.so.11:_ZN4llvm16DwarfCompileUnit7addExprERNS_6DIELocENS_5dwarf4FormEPKNS_6MCExprE
libLLVM.so.11:_ZN4llvm16DwarfCompileUnit8addRangeENS_9RangeSpanE
libLLVM.so.11:_ZN4llvm16DwarfCompileUnitC1EjPKNS_13DICompileUnitEPNS_10AsmPrinterEPNS_10DwarfDebugEPNS_9DwarfFileENS_8UnitKindE
libLLVM.so.11:_ZN4llvm16DwarfCompileUnitC2EjPKNS_13DICompileUnitEPNS_10AsmPrinterEPNS_10DwarfDebugEPNS_9DwarfFileENS_8UnitKindE
libLLVM.so.11:_ZN4llvm16EmitImportsFilesENS_9StringRefES0_RKSt3mapINSt7__cxx1112basic_stringIcSt11char_traitsIcESaIcEEENS_8DenseMapIyPNS_18GlobalValueSummaryENS_12DenseMapInfoIyEENS_6detail12DenseMapPairIySA_EEEESt4lessIS7_ESaISt4pairIKS7_SG_EEE
libLLVM.so.11:_ZN4llvm16EnableStatisticsEb
libLLVM.so.11:_ZN4llvm16EscapeEnumerator4NextEv
libLLVM.so.11:_ZN4llvm16ExtractValueInst14getIndexedTypeEPNS_4TypeENS_8ArrayRefIjEE
libLLVM.so.11:_ZN4llvm16ExtractValueInst4initENS_8ArrayRefIjEERKNS_5TwineE
libLLVM.so.11:_ZN4llvm16ExtractValueInstC1ERKS0_
libLLVM.so.11:_ZN4llvm16ExtractValueInstC2ERKS0_
libLLVM.so.11:_ZN4llvm16FileOutputBuffer6createENS_9StringRefEjj
libLLVM.so.11:_ZN4llvm16FoldingSetNodeID10AddIntegerEi
libLLVM.so.11:_ZN4llvm16FoldingSetNodeID10AddIntegerEj
libLLVM.so.11:_ZN4llvm16FoldingSetNodeID10AddIntegerEl
libLLVM.so.11:_ZN4llvm16FoldingSetNodeID10AddIntegerEm
libLLVM.so.11:_ZN4llvm16FoldingSetNodeID10AddIntegerEx
libLLVM.so.11:_ZN4llvm16FoldingSetNodeID10AddIntegerEy
libLLVM.so.11:_ZN4llvm16FoldingSetNodeID10AddPointerEPKv
libLLVM.so.11:_ZN4llvm16FoldingSetNodeID9AddNodeIDERKS0_
libLLVM.so.11:_ZN4llvm16FoldingSetNodeID9AddStringENS_9StringRefE
libLLVM.so.11:_ZN4llvm16FunctionImporter15importFunctionsERNS_6ModuleERKNS_9StringMapISt13unordered_setIySt4hashIyESt8equal_toIyESaIyEENS_15MallocAllocatorEEE
libLLVM.so.11:_ZN4llvm16GCOVProfilerPass3runERNS_6ModuleERNS_15AnalysisManagerIS1_JEEE
libLLVM.so.11:_ZN4llvm16GenericScheduler10initPolicyENS_26MachineInstrBundleIteratorINS_12MachineInstrELb0EEES3_j
libLLVM.so.11:_ZN4llvm16GenericScheduler10initializeEPNS_13ScheduleDAGMIE
libLLVM.so.11:_ZN4llvm16GenericScheduler13initCandidateERNS_20GenericSchedulerBase14SchedCandidateEPNS_5SUnitEbRKNS_18RegPressureTrackerERS6_
libLLVM.so.11:_ZN4llvm16GenericScheduler13registerRootsEv
libLLVM.so.11:_ZN4llvm16GenericScheduler17pickNodeFromQueueERNS_13SchedBoundaryERKNS_20GenericSchedulerBase10CandPolicyERKNS_18RegPressureTrackerERNS3_14SchedCandidateE
libLLVM.so.11:_ZN4llvm16GenericScheduler17reschedulePhysRegEPNS_5SUnitEb
libLLVM.so.11:_ZN4llvm16GenericScheduler19checkAcyclicLatencyEv
libLLVM.so.11:_ZN4llvm16GenericScheduler21pickNodeBidirectionalERb
libLLVM.so.11:_ZN4llvm16GenericScheduler8pickNodeERb
libLLVM.so.11:_ZN4llvm16GenericScheduler9schedNodeEPNS_5SUnitEb
libLLVM.so.11:_ZN4llvm16HardwareLoopInfo10canAnalyzeERNS_8LoopInfoE
libLLVM.so.11:_ZN4llvm16HardwareLoopInfo23isHardwareLoopCandidateERNS_15ScalarEvolutionERNS_8LoopInfoERNS_13DominatorTreeEbb
libLLVM.so.11:_ZN4llvm16HotColdSplitting17extractColdRegionERKNS_11SmallVectorIPNS_10BasicBlockELj0EEERKNS_26CodeExtractorAnalysisCacheERNS_13DominatorTreeEPNS_18BlockFrequencyInfoERNS_19TargetTransformInfoERNS_25OptimizationRemarkEmitterEPNS_15AssumptionCacheEj
libLLVM.so.11:_ZN4llvm16HotColdSplitting18outlineColdRegionsERNS_8FunctionEb
libLLVM.so.11:_ZN4llvm16HotColdSplitting3runERNS_6ModuleE
libLLVM.so.11:_ZN4llvm16IndexedReference11delinearizeERKNS_8LoopInfoE
libLLVM.so.11:_ZN4llvm16IndexedReferenceC1ERNS_11InstructionERKNS_8LoopInfoERNS_15ScalarEvolutionE
libLLVM.so.11:_ZN4llvm16IndexedReferenceC2ERNS_11InstructionERKNS_8LoopInfoERNS_15ScalarEvolutionE
libLLVM.so.11:_ZN4llvm16InformationCache12FunctionInfoD1Ev
libLLVM.so.11:_ZN4llvm16InformationCache12FunctionInfoD2Ev
libLLVM.so.11:_ZN4llvm16InformationCache26initializeInformationCacheERKNS_8FunctionERNS0_12FunctionInfoE
libLLVM.so.11:_ZN4llvm16InstSimplifyPass3runERNS_8FunctionERNS_15AnalysisManagerIS1_JEEE
libLLVM.so.11:_ZN4llvm16IntervalPressure10openBottomENS_9SlotIndexE
libLLVM.so.11:_ZN4llvm16IntervalPressure5resetEv
libLLVM.so.11:_ZN4llvm16IntervalPressure7openTopENS_9SlotIndexE
libLLVM.so.11:_ZN4llvm16JITEventListener29createGDBRegistrationListenerEv
libLLVM.so.11:_ZN4llvm16JITEventListener6anchorEv
libLLVM.so.11:_ZN4llvm16LTOCodeGenerator11emitWarningERKNSt7__cxx1112basic_stringIcSt11char_traitsIcESaIcEEE
libLLVM.so.11:_ZN4llvm16LTOCodeGenerator11setOptLevelEj
libLLVM.so.11:_ZN4llvm16LTOCodeGenerator12setDebugInfoE15lto_debug_model
libLLVM.so.11:_ZN4llvm16LTOCodeGenerator15compile_to_fileEPPKcbbbb
libLLVM.so.11:_ZN4llvm16LTOCodeGenerator15determineTargetEv
libLLVM.so.11:_ZN4llvm16LTOCodeGenerator16compileOptimizedENS_8ArrayRefIPNS_17raw_pwrite_streamEEE
libLLVM.so.11:_ZN4llvm16LTOCodeGenerator16compileOptimizedEv
libLLVM.so.11:_ZN4llvm16LTOCodeGenerator16getVersionStringEv
libLLVM.so.11:_ZN4llvm16LTOCodeGenerator16setTargetOptionsERKNS_13TargetOptionsE
libLLVM.so.11:_ZN4llvm16LTOCodeGenerator17DiagnosticHandlerERKNS_14DiagnosticInfoE
libLLVM.so.11:_ZN4llvm16LTOCodeGenerator18writeMergedModulesENS_9StringRefE
libLLVM.so.11:_ZN4llvm16LTOCodeGenerator19createTargetMachineEv
libLLVM.so.11:_ZN4llvm16LTOCodeGenerator19initializeLTOPassesEv
libLLVM.so.11:_ZN4llvm16LTOCodeGenerator19setAsmUndefinedRefsEPNS_9LTOModuleE
libLLVM.so.11:_ZN4llvm16LTOCodeGenerator20setDiagnosticHandlerEPFv33lto_codegen_diagnostic_severity_tPKcPvES4_
libLLVM.so.11:_ZN4llvm16LTOCodeGenerator22applyScopeRestrictionsEv
libLLVM.so.11:_ZN4llvm16LTOCodeGenerator22compileOptimizedToFileEPPKc
libLLVM.so.11:_ZN4llvm16LTOCodeGenerator22preserveDiscardableGVsERNS_6ModuleENS_12function_refIFbRKNS_11GlobalValueEEEE
libLLVM.so.11:_ZN4llvm16LTOCodeGenerator22setCodeGenDebugOptionsENS_8ArrayRefINS_9StringRefEEE
libLLVM.so.11:_ZN4llvm16LTOCodeGenerator22verifyMergedModuleOnceEv
libLLVM.so.11:_ZN4llvm16LTOCodeGenerator24parseCodeGenDebugOptionsEv
libLLVM.so.11:_ZN4llvm16LTOCodeGenerator25finishOptimizationRemarksEv
libLLVM.so.11:_ZN4llvm16LTOCodeGenerator26restoreLinkageForExternalsEv
libLLVM.so.11:_ZN4llvm16LTOCodeGenerator7compileEbbbb
libLLVM.so.11:_ZN4llvm16LTOCodeGenerator8optimizeEbbbb
libLLVM.so.11:_ZN4llvm16LTOCodeGenerator9addModuleEPNS_9LTOModuleE
libLLVM.so.11:_ZN4llvm16LTOCodeGenerator9emitErrorERKNSt7__cxx1112basic_stringIcSt11char_traitsIcESaIcEEE
libLLVM.so.11:_ZN4llvm16LTOCodeGenerator9setModuleESt10unique_ptrINS_9LTOModuleESt14default_deleteIS2_EE
libLLVM.so.11:_ZN4llvm16LTOCodeGeneratorC1ERNS_11LLVMContextE
libLLVM.so.11:_ZN4llvm16LTOCodeGeneratorC2ERNS_11LLVMContextE
libLLVM.so.11:_ZN4llvm16LTOCodeGeneratorD1Ev
libLLVM.so.11:_ZN4llvm16LTOCodeGeneratorD2Ev
libLLVM.so.11:_ZN4llvm16LiveIntervalCalc12extendToUsesERNS_9LiveRangeENS_8RegisterENS_11LaneBitmaskEPNS_12LiveIntervalE
libLLVM.so.11:_ZN4llvm16LiveIntervalCalc14createDeadDefsERNS_9LiveRangeENS_8RegisterE
libLLVM.so.11:_ZN4llvm16LiveIntervalCalc31constructMainRangeFromSubrangesERNS_12LiveIntervalE
libLLVM.so.11:_ZN4llvm16LiveIntervalCalc9calculateERNS_12LiveIntervalEb
libLLVM.so.11:_ZN4llvm16LiveRangeUpdater11mergeSpillsEv
libLLVM.so.11:_ZN4llvm16LiveRangeUpdater3addENS_9LiveRange7SegmentE
libLLVM.so.11:_ZN4llvm16LiveRangeUpdater5flushEv
libLLVM.so.11:_ZN4llvm16LocationMetadata5parseEPNS_6MDNodeE
libLLVM.so.11:_ZN4llvm16LoopDeletionPass3runERNS_4LoopERNS_15AnalysisManagerIS1_JRNS_27LoopStandardAnalysisResultsEEEES5_RNS_10LPMUpdaterE
libLLVM.so.11:_ZN4llvm16LoopSimplifyPass3runERNS_8FunctionERNS_15AnalysisManagerIS1_JEEE
libLLVM.so.11:_ZN4llvm16LoopVerifierPass3runERNS_8FunctionERNS_15AnalysisManagerIS1_JEEE
libLLVM.so.11:_ZN4llvm16MCAsmInfoGNUCOFF6anchorEv
libLLVM.so.11:_ZN4llvm16MCAsmInfoGNUCOFFC1Ev
libLLVM.so.11:_ZN4llvm16MCAsmInfoGNUCOFFC2Ev
libLLVM.so.11:_ZN4llvm16MCDwarfLineEntry4MakeEPNS_16MCObjectStreamerEPNS_9MCSectionE
libLLVM.so.11:_ZN4llvm16MCDwarfLineTable10tryGetFileERNS_9StringRefES2_NS_8OptionalINS_3MD59MD5ResultEEENS3_IS1_EEtj
libLLVM.so.11:_ZN4llvm16MCDwarfLineTable4EmitEPNS_16MCObjectStreamerENS_22MCDwarfLineTableParamsE
libLLVM.so.11:_ZN4llvm16MCObjectFileInfo20InitMCObjectFileInfoERKNS_6TripleEbRNS_9MCContextEb
libLLVM.so.11:_ZN4llvm16MCObjectFileInfo23initELFMCObjectFileInfoERKNS_6TripleEb
libLLVM.so.11:_ZN4llvm16MCObjectFileInfo24initCOFFMCObjectFileInfoERKNS_6TripleE
libLLVM.so.11:_ZN4llvm16MCObjectFileInfo24initWasmMCObjectFileInfoERKNS_6TripleE
libLLVM.so.11:_ZN4llvm16MCObjectFileInfo25initMachOMCObjectFileInfoERKNS_6TripleE
libLLVM.so.11:_ZN4llvm16MCObjectFileInfo25initXCOFFMCObjectFileInfoERKNS_6TripleE
libLLVM.so.11:_ZN4llvm16MCObjectStreamer10emitFramesEPNS_12MCAsmBackendE
libLLVM.so.11:_ZN4llvm16MCObjectStreamer10finishImplEv
libLLVM.so.11:_ZN4llvm16MCObjectStreamer11emitAddrsigEv
libLLVM.so.11:_ZN4llvm16MCObjectStreamer12emitCFILabelEv
libLLVM.so.11:_ZN4llvm16MCObjectStreamer13changeSectionEPNS_9MCSectionEPKNS_6MCExprE
libLLVM.so.11:_ZN4llvm16MCObjectStreamer13emitValueImplEPKNS_6MCExprEjNS_5SMLocE
libLLVM.so.11:_ZN4llvm16MCObjectStreamer14emitAddrsigSymEPKNS_8MCSymbolE
libLLVM.so.11:_ZN4llvm16MCObjectStreamer14emitAssignmentEPNS_8MCSymbolEPKNS_6MCExprE
libLLVM.so.11:_ZN4llvm16MCObjectStreamer14emitBundleLockEb
libLLVM.so.11:_ZN4llvm16MCObjectStreamer14emitLabelAtPosEPNS_8MCSymbolENS_5SMLocEPNS_10MCFragmentEy
libLLVM.so.11:_ZN4llvm16MCObjectStreamer15addPendingLabelEPNS_8MCSymbolE
libLLVM.so.11:_ZN4llvm16MCObjectStreamer15emitCFISectionsEbb
libLLVM.so.11:_ZN4llvm16MCObjectStreamer15emitInstructionERKNS_6MCInstERKNS_15MCSubtargetInfoE
libLLVM.so.11:_ZN4llvm16MCObjectStreamer15getAssemblerPtrEv
libLLVM.so.11:_ZN4llvm16MCObjectStreamer15visitUsedSymbolERKNS_8MCSymbolE
libLLVM.so.11:_ZN4llvm16MCObjectStreamer16emitBundleUnlockEv
libLLVM.so.11:_ZN4llvm16MCObjectStreamer16emitGPRel32ValueEPKNS_6MCExprE
libLLVM.so.11:_ZN4llvm16MCObjectStreamer16emitGPRel64ValueEPKNS_6MCExprE
libLLVM.so.11:_ZN4llvm16MCObjectStreamer16emitSLEB128ValueEPKNS_6MCExprE
libLLVM.so.11:_ZN4llvm16MCObjectStreamer16emitTPRel32ValueEPKNS_6MCExprE
libLLVM.so.11:_ZN4llvm16MCObjectStreamer16emitTPRel64ValueEPKNS_6MCExprE
libLLVM.so.11:_ZN4llvm16MCObjectStreamer16emitULEB128ValueEPKNS_6MCExprE
libLLVM.so.11:_ZN4llvm16MCObjectStreamer17changeSectionImplEPNS_9MCSectionEPKNS_6MCExprE
libLLVM.so.11:_ZN4llvm16MCObjectStreamer17emitCodeAlignmentEjj
libLLVM.so.11:_ZN4llvm16MCObjectStreamer17emitDTPRel32ValueEPKNS_6MCExprE
libLLVM.so.11:_ZN4llvm16MCObjectStreamer17emitDTPRel64ValueEPKNS_6MCExprE
libLLVM.so.11:_ZN4llvm16MCObjectStreamer17emitFileDirectiveENS_9StringRefE
libLLVM.so.11:_ZN4llvm16MCObjectStreamer17emitValueToOffsetEPKNS_6MCExprEhNS_5SMLocE
libLLVM.so.11:_ZN4llvm16MCObjectStreamer17emitWeakReferenceEPNS_8MCSymbolEPKS1_
libLLVM.so.11:_ZN4llvm16MCObjectStreamer18emitCFIEndProcImplERNS_16MCDwarfFrameInfoE
libLLVM.so.11:_ZN4llvm16MCObjectStreamer18emitCVLocDirectiveEjjjjbbNS_9StringRefENS_5SMLocE
libLLVM.so.11:_ZN4llvm16MCObjectStreamer18emitInstToFragmentERKNS_6MCInstERKNS_15MCSubtargetInfoE
libLLVM.so.11:_ZN4llvm16MCObjectStreamer18emitRelocDirectiveB5cxx11ERKNS_6MCExprENS_9StringRefEPS2_NS_5SMLocERKNS_15MCSubtargetInfoE
libLLVM.so.11:_ZN4llvm16MCObjectStreamer18flushPendingLabelsEPNS_10MCFragmentEy
libLLVM.so.11:_ZN4llvm16MCObjectStreamer18flushPendingLabelsEv
libLLVM.so.11:_ZN4llvm16MCObjectStreamer19emitBundleAlignModeEj
libLLVM.so.11:_ZN4llvm16MCObjectStreamer19emitInstructionImplERKNS_6MCInstERKNS_15MCSubtargetInfoE
libLLVM.so.11:_ZN4llvm16MCObjectStreamer20emitCFIStartProcImplERNS_16MCDwarfFrameInfoE
libLLVM.so.11:_ZN4llvm16MCObjectStreamer20emitValueToAlignmentEjxjj
libLLVM.so.11:_ZN4llvm16MCObjectStreamer20resolvePendingFixupsEv
libLLVM.so.11:_ZN4llvm16MCObjectStreamer21emitDwarfLocDirectiveEjjjjjjNS_9StringRefE
libLLVM.so.11:_ZN4llvm16MCObjectStreamer22emitAbsoluteSymbolDiffEPKNS_8MCSymbolES3_j
libLLVM.so.11:_ZN4llvm16MCObjectStreamer23emitCVDefRangeDirectiveENS_8ArrayRefISt4pairIPKNS_8MCSymbolES5_EEENS_9StringRefE
libLLVM.so.11:_ZN4llvm16MCObjectStreamer23getOrCreateDataFragmentEPKNS_15MCSubtargetInfoE
libLLVM.so.11:_ZN4llvm16MCObjectStreamer24emitCVLinetableDirectiveEjPKNS_8MCSymbolES3_
libLLVM.so.11:_ZN4llvm16MCObjectStreamer24emitDwarfAdvanceLineAddrExPKNS_8MCSymbolES3_j
libLLVM.so.11:_ZN4llvm16MCObjectStreamer25emitDwarfAdvanceFrameAddrEPKNS_8MCSymbolES3_
libLLVM.so.11:_ZN4llvm16MCObjectStreamer26emitCVStringTableDirectiveEv
libLLVM.so.11:_ZN4llvm16MCObjectStreamer28emitCVFileChecksumsDirectiveEv
libLLVM.so.11:_ZN4llvm16MCObjectStreamer30emitCVInlineLinetableDirectiveEjjjPKNS_8MCSymbolES3_
libLLVM.so.11:_ZN4llvm16MCObjectStreamer31emitAbsoluteSymbolDiffAsULEB128EPKNS_8MCSymbolES3_
libLLVM.so.11:_ZN4llvm16MCObjectStreamer33emitCVFileChecksumOffsetDirectiveEj
libLLVM.so.11:_ZN4llvm16MCObjectStreamer5resetEv
libLLVM.so.11:_ZN4llvm16MCObjectStreamer8emitFillERKNS_6MCExprExxNS_5SMLocE
libLLVM.so.11:_ZN4llvm16MCObjectStreamer8emitFillERKNS_6MCExprEyNS_5SMLocE
libLLVM.so.11:_ZN4llvm16MCObjectStreamer9emitBytesENS_9StringRefE
libLLVM.so.11:_ZN4llvm16MCObjectStreamer9emitLabelEPNS_8MCSymbolENS_5SMLocE
libLLVM.so.11:_ZN4llvm16MCObjectStreamerC2ERNS_9MCContextESt10unique_ptrINS_12MCAsmBackendESt14default_deleteIS4_EES3_INS_14MCObjectWriterES5_IS8_EES3_INS_13MCCodeEmitterES5_ISB_EE
libLLVM.so.11:_ZN4llvm16MCObjectStreamerD0Ev
libLLVM.so.11:_ZN4llvm16MCObjectStreamerD1Ev
libLLVM.so.11:_ZN4llvm16MCObjectStreamerD2Ev
libLLVM.so.11:_ZN4llvm16MCRelocationInfo28createExprForCAPIVariantKindEPKNS_6MCExprEj
libLLVM.so.11:_ZN4llvm16MCRelocationInfoC1ERNS_9MCContextE
libLLVM.so.11:_ZN4llvm16MCRelocationInfoC2ERNS_9MCContextE
libLLVM.so.11:_ZN4llvm16MCRelocationInfoD0Ev
libLLVM.so.11:_ZN4llvm16MCRelocationInfoD1Ev
libLLVM.so.11:_ZN4llvm16MCRelocationInfoD2Ev
libLLVM.so.11:_ZN4llvm16MCTargetStreamer12emitRawBytesENS_9StringRefE
libLLVM.so.11:_ZN4llvm16MCTargetStreamer13changeSectionEPKNS_9MCSectionEPS1_PKNS_6MCExprERNS_11raw_ostreamE
libLLVM.so.11:_ZN4llvm16MCTargetStreamer14emitAssignmentEPNS_8MCSymbolEPKNS_6MCExprE
libLLVM.so.11:_ZN4llvm16MCTargetStreamer14prettyPrintAsmERNS_13MCInstPrinterEyRKNS_6MCInstERKNS_15MCSubtargetInfoERNS_11raw_ostreamE
libLLVM.so.11:_ZN4llvm16MCTargetStreamer22emitDwarfFileDirectiveENS_9StringRefE
libLLVM.so.11:_ZN4llvm16MCTargetStreamer6finishEv
libLLVM.so.11:_ZN4llvm16MCTargetStreamer9emitLabelEPNS_8MCSymbolE
libLLVM.so.11:_ZN4llvm16MCTargetStreamer9emitValueEPKNS_6MCExprE
libLLVM.so.11:_ZN4llvm16MCTargetStreamerC1ERNS_10MCStreamerE
libLLVM.so.11:_ZN4llvm16MCTargetStreamerC2ERNS_10MCStreamerE
libLLVM.so.11:_ZN4llvm16MCTargetStreamerD0Ev
libLLVM.so.11:_ZN4llvm16MCTargetStreamerD1Ev
libLLVM.so.11:_ZN4llvm16MCTargetStreamerD2Ev
libLLVM.so.11:_ZN4llvm16MachObjectWriter10writeNlistERNS0_14MachSymbolDataERKNS_11MCAsmLayoutE
libLLVM.so.11:_ZN4llvm16MachObjectWriter11writeHeaderENS_5MachO14HeaderFileTypeEjjb
libLLVM.so.11:_ZN4llvm16MachObjectWriter11writeObjectERNS_11MCAssemblerERKNS_11MCAsmLayoutE
libLLVM.so.11:_ZN4llvm16MachObjectWriter12writeSectionERKNS_11MCAsmLayoutERKNS_9MCSectionEyyjyj
libLLVM.so.11:_ZN4llvm16MachObjectWriter14findSymbolDataERKNS_8MCSymbolE
libLLVM.so.11:_ZN4llvm16MachObjectWriter16isFixupKindPCRelERKNS_11MCAssemblerEj
libLLVM.so.11:_ZN4llvm16MachObjectWriter16recordRelocationERNS_11MCAssemblerERKNS_11MCAsmLayoutEPKNS_10MCFragmentERKNS_7MCFixupENS_7MCValueERy
libLLVM.so.11:_ZN4llvm16MachObjectWriter16writeWithPaddingENS_9StringRefEy
libLLVM.so.11:_ZN4llvm16MachObjectWriter18computeSymbolTableERNS_11MCAssemblerERSt6vectorINS0_14MachSymbolDataESaIS4_EES7_S7_
libLLVM.so.11:_ZN4llvm16MachObjectWriter19bindIndirectSymbolsERNS_11MCAssemblerE
libLLVM.so.11:_ZN4llvm16MachObjectWriter22writeSymtabLoadCommandEjjjj
libLLVM.so.11:_ZN4llvm16MachObjectWriter23computeSectionAddressesERKNS_11MCAssemblerERKNS_11MCAsmLayoutE
libLLVM.so.11:_ZN4llvm16MachObjectWriter23writeSegmentLoadCommandENS_9StringRefEjyyyyjj
libLLVM.so.11:_ZN4llvm16MachObjectWriter24executePostLayoutBindingERNS_11MCAssemblerERKNS_11MCAsmLayoutE
libLLVM.so.11:_ZN4llvm16MachObjectWriter24writeDysymtabLoadCommandEjjjjjjjj
libLLVM.so.11:_ZN4llvm16MachObjectWriter24writeLinkeditLoadCommandEjjj
libLLVM.so.11:_ZN4llvm16MachObjectWriter29writeLinkerOptionsLoadCommandERKSt6vectorINSt7__cxx1112basic_stringIcSt11char_traitsIcESaIcEEESaIS7_EE
libLLVM.so.11:_ZN4llvm16MachObjectWriter33doesSymbolRequireExternRelocationERKNS_8MCSymbolE
libLLVM.so.11:_ZN4llvm16MachObjectWriter5resetEv
libLLVM.so.11:_ZN4llvm16MachineFrameInfo17CreateFixedObjectEyxbb
libLLVM.so.11:_ZN4llvm16MachineFrameInfo17CreateStackObjectEyNS_5AlignEbPKNS_10AllocaInstEh
libLLVM.so.11:_ZN4llvm16MachineFrameInfo18ensureMaxAlignmentENS_5AlignE
libLLVM.so.11:_ZN4llvm16MachineFrameInfo22CreateSpillStackObjectEyNS_5AlignE
libLLVM.so.11:_ZN4llvm16MachineFrameInfo23computeMaxCallFrameSizeERKNS_15MachineFunctionE
libLLVM.so.11:_ZN4llvm16MachineFrameInfo25CreateVariableSizedObjectENS_5AlignEPKNS_10AllocaInstE
libLLVM.so.11:_ZN4llvm16MachineFrameInfo27CreateFixedSpillStackObjectEyxb
libLLVM.so.11:_ZN4llvm16MachineIRBuilder10buildFenceEjj
libLLVM.so.11:_ZN4llvm16MachineIRBuilder10buildInstrEjNS_8ArrayRefINS_5DstOpEEENS1_INS_5SrcOpEEENS_8OptionalIjEE
libLLVM.so.11:_ZN4llvm16MachineIRBuilder10buildMergeERKNS_5DstOpENS_8ArrayRefINS_8RegisterEEE
libLLVM.so.11:_ZN4llvm16MachineIRBuilder10buildMergeERKNS_5DstOpESt16initializer_listINS_5SrcOpEE
libLLVM.so.11:_ZN4llvm16MachineIRBuilder10buildStoreERKNS_5SrcOpES3_RNS_17MachineMemOperandE
libLLVM.so.11:_ZN4llvm16MachineIRBuilder10buildTruncERKNS_5DstOpERKNS_5SrcOpE
libLLVM.so.11:_ZN4llvm16MachineIRBuilder10buildUndefERKNS_5DstOpE
libLLVM.so.11:_ZN4llvm16MachineIRBuilder11buildAnyExtERKNS_5DstOpERKNS_5SrcOpE
libLLVM.so.11:_ZN4llvm16MachineIRBuilder11buildBrCondENS_8RegisterERNS_17MachineBasicBlockE
libLLVM.so.11:_ZN4llvm16MachineIRBuilder11buildInsertERKNS_5DstOpERKNS_5SrcOpES6_j
libLLVM.so.11:_ZN4llvm16MachineIRBuilder11buildPtrAddERKNS_5DstOpERKNS_5SrcOpES6_
libLLVM.so.11:_ZN4llvm16MachineIRBuilder11buildSelectERKNS_5DstOpERKNS_5SrcOpES6_S6_NS_8OptionalIjEE
libLLVM.so.11:_ZN4llvm16MachineIRBuilder11insertInstrENS_19MachineInstrBuilderE
libLLVM.so.11:_ZN4llvm16MachineIRBuilder12buildBoolExtERKNS_5DstOpERKNS_5SrcOpEb
libLLVM.so.11:_ZN4llvm16MachineIRBuilder12buildExtractERKNS_5DstOpERKNS_5SrcOpEy
libLLVM.so.11:_ZN4llvm16MachineIRBuilder12buildFPTruncERKNS_5DstOpERKNS_5SrcOpENS_8OptionalIjEE
libLLVM.so.11:_ZN4llvm16MachineIRBuilder12buildUnmergeENS_3LLTERKNS_5SrcOpE
libLLVM.so.11:_ZN4llvm16MachineIRBuilder12buildUnmergeENS_8ArrayRefINS_3LLTEEERKNS_5SrcOpE
libLLVM.so.11:_ZN4llvm16MachineIRBuilder12buildUnmergeENS_8ArrayRefINS_8RegisterEEERKNS_5SrcOpE
libLLVM.so.11:_ZN4llvm16MachineIRBuilder13buildConstantERKNS_5DstOpERKNS_11ConstantIntE
libLLVM.so.11:_ZN4llvm16MachineIRBuilder13buildConstantERKNS_5DstOpERKNS_5APIntE
libLLVM.so.11:_ZN4llvm16MachineIRBuilder13buildConstantERKNS_5DstOpEx
libLLVM.so.11:_ZN4llvm16MachineIRBuilder13buildDbgLabelEPKNS_6MDNodeE
libLLVM.so.11:_ZN4llvm16MachineIRBuilder13buildSequenceENS_8RegisterENS_8ArrayRefIS1_EENS2_IyEE
libLLVM.so.11:_ZN4llvm16MachineIRBuilder14buildAtomicRMWEjRKNS_5DstOpERKNS_5SrcOpES6_RNS_17MachineMemOperandE
libLLVM.so.11:_ZN4llvm16MachineIRBuilder14buildFConstantERKNS_5DstOpERKNS_10ConstantFPE
libLLVM.so.11:_ZN4llvm16MachineIRBuilder14buildFConstantERKNS_5DstOpERKNS_7APFloatE
libLLVM.so.11:_ZN4llvm16MachineIRBuilder14buildFConstantERKNS_5DstOpEd
libLLVM.so.11:_ZN4llvm16MachineIRBuilder14buildIntrinsicEjNS_8ArrayRefINS_5DstOpEEEb
libLLVM.so.11:_ZN4llvm16MachineIRBuilder14buildIntrinsicEjNS_8ArrayRefINS_8RegisterEEEb
libLLVM.so.11:_ZN4llvm16MachineIRBuilder14buildJumpTableENS_3LLTEj
libLLVM.so.11:_ZN4llvm16MachineIRBuilder14buildLoadInstrEjRKNS_5DstOpERKNS_5SrcOpERNS_17MachineMemOperandE
libLLVM.so.11:_ZN4llvm16MachineIRBuilder15buildBrIndirectENS_8RegisterE
libLLVM.so.11:_ZN4llvm16MachineIRBuilder15buildExtOrTruncEjRKNS_5DstOpERKNS_5SrcOpE
libLLVM.so.11:_ZN4llvm16MachineIRBuilder15buildFIDbgValueEiPKNS_6MDNodeES3_
libLLVM.so.11:_ZN4llvm16MachineIRBuilder15buildFrameIndexERKNS_5DstOpEi
libLLVM.so.11:_ZN4llvm16MachineIRBuilder15validateShiftOpENS_3LLTES1_S1_
libLLVM.so.11:_ZN4llvm16MachineIRBuilder16buildAtomicRMWOrENS_8RegisterES1_S1_RNS_17MachineMemOperandE
libLLVM.so.11:_ZN4llvm16MachineIRBuilder16buildBuildVectorERKNS_5DstOpENS_8ArrayRefINS_8RegisterEEE
libLLVM.so.11:_ZN4llvm16MachineIRBuilder16buildGlobalValueERKNS_5DstOpEPKNS_11GlobalValueE
libLLVM.so.11:_ZN4llvm16MachineIRBuilder16buildSExtOrTruncERKNS_5DstOpERKNS_5SrcOpE
libLLVM.so.11:_ZN4llvm16MachineIRBuilder16buildSplatVectorERKNS_5DstOpERKNS_5SrcOpE
libLLVM.so.11:_ZN4llvm16MachineIRBuilder16buildZExtOrTruncERKNS_5DstOpERKNS_5SrcOpE
libLLVM.so.11:_ZN4llvm16MachineIRBuilder16validateBinaryOpENS_3LLTES1_S1_
libLLVM.so.11:_ZN4llvm16MachineIRBuilder16validateSelectOpENS_3LLTES1_S1_S1_
libLLVM.so.11:_ZN4llvm16MachineIRBuilder16validateTruncExtENS_3LLTES1_b
libLLVM.so.11:_ZN4llvm16MachineIRBuilder17buildAtomicRMWAddENS_8RegisterES1_S1_RNS_17MachineMemOperandE
libLLVM.so.11:_ZN4llvm16MachineIRBuilder17buildAtomicRMWAndENS_8RegisterES1_S1_RNS_17MachineMemOperandE
libLLVM.so.11:_ZN4llvm16MachineIRBuilder17buildAtomicRMWMaxENS_8RegisterES1_S1_RNS_17MachineMemOperandE
libLLVM.so.11:_ZN4llvm16MachineIRBuilder17buildAtomicRMWMinENS_8RegisterES1_S1_RNS_17MachineMemOperandE
libLLVM.so.11:_ZN4llvm16MachineIRBuilder17buildAtomicRMWSubENS_8RegisterES1_S1_RNS_17MachineMemOperandE
libLLVM.so.11:_ZN4llvm16MachineIRBuilder17buildAtomicRMWXorENS_8RegisterES1_S1_RNS_17MachineMemOperandE
libLLVM.so.11:_ZN4llvm16MachineIRBuilder17buildBlockAddressENS_8RegisterEPKNS_12BlockAddressE
libLLVM.so.11:_ZN4llvm16MachineIRBuilder17materializePtrAddERNS_8RegisterES1_NS_3LLTEy
libLLVM.so.11:_ZN4llvm16MachineIRBuilder18buildAnyExtOrTruncERKNS_5DstOpERKNS_5SrcOpE
libLLVM.so.11:_ZN4llvm16MachineIRBuilder18buildAtomicCmpXchgENS_8RegisterES1_S1_S1_RNS_17MachineMemOperandE
libLLVM.so.11:_ZN4llvm16MachineIRBuilder18buildAtomicRMWFAddERKNS_5DstOpERKNS_5SrcOpES6_RNS_17MachineMemOperandE
libLLVM.so.11:_ZN4llvm16MachineIRBuilder18buildAtomicRMWFSubERKNS_5DstOpERKNS_5SrcOpES6_RNS_17MachineMemOperandE
libLLVM.so.11:_ZN4llvm16MachineIRBuilder18buildAtomicRMWNandENS_8RegisterES1_S1_RNS_17MachineMemOperandE
libLLVM.so.11:_ZN4llvm16MachineIRBuilder18buildAtomicRMWUmaxENS_8RegisterES1_S1_RNS_17MachineMemOperandE
libLLVM.so.11:_ZN4llvm16MachineIRBuilder18buildAtomicRMWUminENS_8RegisterES1_S1_RNS_17MachineMemOperandE
libLLVM.so.11:_ZN4llvm16MachineIRBuilder18buildAtomicRMWXchgENS_8RegisterES1_S1_RNS_17MachineMemOperandE
libLLVM.so.11:_ZN4llvm16MachineIRBuilder18buildConcatVectorsERKNS_5DstOpENS_8ArrayRefINS_8RegisterEEE
libLLVM.so.11:_ZN4llvm16MachineIRBuilder18buildConstDbgValueERKNS_8ConstantEPKNS_6MDNodeES6_
libLLVM.so.11:_ZN4llvm16MachineIRBuilder18buildDynStackAllocERKNS_5DstOpERKNS_5SrcOpENS_5AlignE
libLLVM.so.11:_ZN4llvm16MachineIRBuilder18buildInstrNoInsertEj
libLLVM.so.11:_ZN4llvm16MachineIRBuilder19buildDirectDbgValueENS_8RegisterEPKNS_6MDNodeES4_
libLLVM.so.11:_ZN4llvm16MachineIRBuilder19buildLoadFromOffsetERKNS_5DstOpERKNS_5SrcOpERNS_17MachineMemOperandEx
libLLVM.so.11:_ZN4llvm16MachineIRBuilder19buildMaskLowPtrBitsERKNS_5DstOpERKNS_5SrcOpEj
libLLVM.so.11:_ZN4llvm16MachineIRBuilder21buildBuildVectorTruncERKNS_5DstOpENS_8ArrayRefINS_8RegisterEEE
libLLVM.so.11:_ZN4llvm16MachineIRBuilder21buildIndirectDbgValueENS_8RegisterEPKNS_6MDNodeES4_
libLLVM.so.11:_ZN4llvm16MachineIRBuilder24buildInsertVectorElementERKNS_5DstOpERKNS_5SrcOpES6_S6_
libLLVM.so.11:_ZN4llvm16MachineIRBuilder25buildExtractVectorElementERKNS_5DstOpERKNS_5SrcOpES6_
libLLVM.so.11:_ZN4llvm16MachineIRBuilder29buildAtomicCmpXchgWithSuccessENS_8RegisterES1_S1_S1_S1_RNS_17MachineMemOperandE
libLLVM.so.11:_ZN4llvm16MachineIRBuilder5setMFERNS_15MachineFunctionE
libLLVM.so.11:_ZN4llvm16MachineIRBuilder7buildBrERNS_17MachineBasicBlockE
libLLVM.so.11:_ZN4llvm16MachineIRBuilder9buildBrJTENS_8RegisterEjS1_
libLLVM.so.11:_ZN4llvm16MachineIRBuilder9buildCastERKNS_5DstOpERKNS_5SrcOpE
libLLVM.so.11:_ZN4llvm16MachineIRBuilder9buildCopyERKNS_5DstOpERKNS_5SrcOpE
libLLVM.so.11:_ZN4llvm16MachineIRBuilder9buildFCmpENS_7CmpInst9PredicateERKNS_5DstOpERKNS_5SrcOpES8_NS_8OptionalIjEE
libLLVM.so.11:_ZN4llvm16MachineIRBuilder9buildICmpENS_7CmpInst9PredicateERKNS_5DstOpERKNS_5SrcOpES8_
libLLVM.so.11:_ZN4llvm16MachineIRBuilder9buildLoadERKNS_5DstOpERKNS_5SrcOpERNS_17MachineMemOperandE
libLLVM.so.11:_ZN4llvm16MachineIRBuilder9buildSExtERKNS_5DstOpERKNS_5SrcOpE
libLLVM.so.11:_ZN4llvm16MachineIRBuilder9buildZExtERKNS_5DstOpERKNS_5SrcOpE
libLLVM.so.11:_ZN4llvm16MachinePipeliner12scheduleLoopERNS_11MachineLoopE
libLLVM.so.11:_ZN4llvm16MachinePipeliner15canPipelineLoopERNS_11MachineLoopE
libLLVM.so.11:_ZN4llvm16MachinePipeliner18preprocessPhiNodesERNS_17MachineBasicBlockE
libLLVM.so.11:_ZN4llvm16MachinePipeliner20runOnMachineFunctionERNS_15MachineFunctionE
libLLVM.so.11:_ZN4llvm16MachinePipeliner20swingModuloSchedulerERNS_11MachineLoopE
libLLVM.so.11:_ZN4llvm16MachinePipeliner24setPragmaPipelineOptionsERNS_11MachineLoopE
libLLVM.so.11:_ZN4llvm16MemoryDepChecker10Dependence22isSafeForVectorizationENS1_7DepTypeE
libLLVM.so.11:_ZN4llvm16MemoryDepChecker11areDepsSafeERNS_18EquivalenceClassesINS_14PointerIntPairIPNS_5ValueELj1EbNS_21PointerLikeTypeTraitsIS4_EENS_18PointerIntPairInfoIS4_Lj1ES6_EEEEEERNS_11SmallVectorIS9_Lj8EEERKNS_8DenseMapIPKS3_S4_NS_12DenseMapInfoISH_EENS_6detail12DenseMapPairISH_S4_EEEE
libLLVM.so.11:_ZN4llvm16MemoryDepChecker11isDependentERKNS_14PointerIntPairIPNS_5ValueELj1EbNS_21PointerLikeTypeTraitsIS3_EENS_18PointerIntPairInfoIS3_Lj1ES5_EEEEjSA_jRKNS_8DenseMapIPKS2_S3_NS_12DenseMapInfoISD_EENS_6detail12DenseMapPairISD_S3_EEEE
libLLVM.so.11:_ZN4llvm16MemoryDepChecker13mergeInStatusENS0_25VectorizationSafetyStatusE
libLLVM.so.11:_ZN4llvm16MemoryDepChecker28couldPreventStoreLoadForwardEyy
libLLVM.so.11:_ZN4llvm16MemorySSAUpdater10moveBeforeEPNS_14MemoryUseOrDefES2_
libLLVM.so.11:_ZN4llvm16MemorySSAUpdater10recursePhiEPNS_12MemoryAccessE
libLLVM.so.11:_ZN4llvm16MemorySSAUpdater10removeEdgeEPNS_10BasicBlockES2_
libLLVM.so.11:_ZN4llvm16MemorySSAUpdater11moveToPlaceEPNS_14MemoryUseOrDefEPNS_10BasicBlockENS_9MemorySSA14InsertionPlaceE
libLLVM.so.11:_ZN4llvm16MemorySSAUpdater12applyUpdatesENS_8ArrayRefINS_3cfg6UpdateIPNS_10BasicBlockEEEEERNS_13DominatorTreeE
libLLVM.so.11:_ZN4llvm16MemorySSAUpdater12removeBlocksERKNS_14SmallSetVectorIPNS_10BasicBlockELj8EEE
libLLVM.so.11:_ZN4llvm16MemorySSAUpdater14getPreviousDefEPNS_12MemoryAccessE
libLLVM.so.11:_ZN4llvm16MemorySSAUpdater15moveAllAccessesEPNS_10BasicBlockES2_PNS_11InstructionE
libLLVM.so.11:_ZN4llvm16MemorySSAUpdater16cloneUsesAndDefsEPNS_10BasicBlockES2_RKNS_8ValueMapIPKNS_5ValueENS_14WeakTrackingVHENS_14ValueMapConfigIS6_NS_3sys10SmartMutexILb0EEEEEEERNS_13SmallDenseMapIPNS_9MemoryPhiEPNS_12MemoryAccessELj4ENS_12DenseMapInfoISI_EENS_6detail12DenseMapPairISI_SK_EEEEb
libLLVM.so.11:_ZN4llvm16MemorySSAUpdater18applyInsertUpdatesENS_8ArrayRefINS_3cfg6UpdateIPNS_10BasicBlockEEEEERNS_13DominatorTreeE
libLLVM.so.11:_ZN4llvm16MemorySSAUpdater18applyInsertUpdatesENS_8ArrayRefINS_3cfg6UpdateIPNS_10BasicBlockEEEEERNS_13DominatorTreeEPKNS_9GraphDiffIS5_Lb0EEE
libLLVM.so.11:_ZN4llvm16MemorySSAUpdater18removeMemoryAccessEPNS_12MemoryAccessEb
libLLVM.so.11:_ZN4llvm16MemorySSAUpdater19changeToUnreachableEPKNS_11InstructionE
libLLVM.so.11:_ZN4llvm16MemorySSAUpdater19tryRemoveTrivialPhiEPNS_9MemoryPhiE
libLLVM.so.11:_ZN4llvm16MemorySSAUpdater19updateForClonedLoopERKNS_13LoopBlocksRPOENS_8ArrayRefIPNS_10BasicBlockEEERKNS_8ValueMapIPKNS_5ValueENS_14WeakTrackingVHENS_14ValueMapConfigISB_NS_3sys10SmartMutexILb0EEEEEEEb
libLLVM.so.11:_ZN4llvm16MemorySSAUpdater20tryRemoveTrivialPhisENS_8ArrayRefINS_6WeakVHEEE
libLLVM.so.11:_ZN4llvm16MemorySSAUpdater21getPreviousDefFromEndEPNS_10BasicBlockERNS_8DenseMapIS2_NS_10TrackingVHINS_12MemoryAccessEEENS_12DenseMapInfoIS2_EENS_6detail12DenseMapPairIS2_S6_EEEE
libLLVM.so.11:_ZN4llvm16MemorySSAUpdater21getPreviousDefInBlockEPNS_12MemoryAccessE
libLLVM.so.11:_ZN4llvm16MemorySSAUpdater22createMemoryAccessInBBEPNS_11InstructionEPNS_12MemoryAccessEPKNS_10BasicBlockENS_9MemorySSA14InsertionPlaceE
libLLVM.so.11:_ZN4llvm16MemorySSAUpdater23createMemoryAccessAfterEPNS_11InstructionEPNS_12MemoryAccessES4_
libLLVM.so.11:_ZN4llvm16MemorySSAUpdater23getPreviousDefRecursiveEPNS_10BasicBlockERNS_8DenseMapIS2_NS_10TrackingVHINS_12MemoryAccessEEENS_12DenseMapInfoIS2_EENS_6detail12DenseMapPairIS2_S6_EEEE
libLLVM.so.11:_ZN4llvm16MemorySSAUpdater23moveAllAfterMergeBlocksEPNS_10BasicBlockES2_PNS_11InstructionE
libLLVM.so.11:_ZN4llvm16MemorySSAUpdater24createMemoryAccessBeforeEPNS_11InstructionEPNS_12MemoryAccessEPNS_14MemoryUseOrDefE
libLLVM.so.11:_ZN4llvm16MemorySSAUpdater24moveAllAfterSpliceBlocksEPNS_10BasicBlockES2_PNS_11InstructionE
libLLVM.so.11:_ZN4llvm16MemorySSAUpdater28updateForClonedBlockIntoPredEPNS_10BasicBlockES2_RKNS_8ValueMapIPKNS_5ValueENS_14WeakTrackingVHENS_14ValueMapConfigIS6_NS_3sys10SmartMutexILb0EEEEEEE
libLLVM.so.11:_ZN4llvm16MemorySSAUpdater29updateExitBlocksForClonedLoopENS_8ArrayRefIPNS_10BasicBlockEEENS1_ISt10unique_ptrINS_8ValueMapIPKNS_5ValueENS_14WeakTrackingVHENS_14ValueMapConfigIS9_NS_3sys10SmartMutexILb0EEEEEEESt14default_deleteISG_EEEERNS_13DominatorTreeE
libLLVM.so.11:_ZN4llvm16MemorySSAUpdater29updateExitBlocksForClonedLoopENS_8ArrayRefIPNS_10BasicBlockEEERKNS_8ValueMapIPKNS_5ValueENS_14WeakTrackingVHENS_14ValueMapConfigIS8_NS_3sys10SmartMutexILb0EEEEEEERNS_13DominatorTreeE
libLLVM.so.11:_ZN4llvm16MemorySSAUpdater30removeDuplicatePhiEdgesBetweenEPKNS_10BasicBlockES3_
libLLVM.so.11:_ZN4llvm16MemorySSAUpdater33changeCondBranchToUnconditionalToEPKNS_10BranchInstEPKNS_10BasicBlockE
libLLVM.so.11:_ZN4llvm16MemorySSAUpdater42updatePhisWhenInsertingUniqueBackedgeBlockEPNS_10BasicBlockES2_S2_
libLLVM.so.11:_ZN4llvm16MemorySSAUpdater44wireOldPredecessorsToNewImmediatePredecessorEPNS_10BasicBlockES2_NS_8ArrayRefIS2_EEb
libLLVM.so.11:_ZN4llvm16MemorySSAUpdater9fixupDefsERKNS_15SmallVectorImplINS_6WeakVHEEE
libLLVM.so.11:_ZN4llvm16MemorySSAUpdater9insertDefEPNS_9MemoryDefEb
libLLVM.so.11:_ZN4llvm16MemorySSAUpdater9insertUseEPNS_9MemoryUseEb
libLLVM.so.11:_ZN4llvm16MemorySSAUpdater9moveAfterEPNS_14MemoryUseOrDefES2_
libLLVM.so.11:_ZN4llvm16MetadataTracking13isReplaceableERKNS_8MetadataE
libLLVM.so.11:_ZN4llvm16MetadataTracking5trackEPvRNS_8MetadataENS_12PointerUnionIJPNS_15MetadataAsValueEPS2_EEE
libLLVM.so.11:_ZN4llvm16MetadataTracking7retrackEPvRNS_8MetadataES1_
libLLVM.so.11:_ZN4llvm16MetadataTracking7untrackEPvRNS_8MetadataE
libLLVM.so.11:_ZN4llvm16NamedRegionTimerC1ENS_9StringRefES1_S1_S1_b
libLLVM.so.11:_ZN4llvm16NamedRegionTimerC2ENS_9StringRefES1_S1_S1_b
libLLVM.so.11:_ZN4llvm16NewArchiveMember12getOldMemberERKNS_6object7Archive5ChildEb
libLLVM.so.11:_ZN4llvm16NewArchiveMember7getFileENS_9StringRefEb
libLLVM.so.11:_ZN4llvm16NewArchiveMemberC1ENS_15MemoryBufferRefE
libLLVM.so.11:_ZN4llvm16NewArchiveMemberC2ENS_15MemoryBufferRefE
libLLVM.so.11:_ZN4llvm16PBQPRAConstraint6anchorEv
libLLVM.so.11:_ZN4llvm16PBQPRAConstraintD0Ev
libLLVM.so.11:_ZN4llvm16PBQPRAConstraintD1Ev
libLLVM.so.11:_ZN4llvm16PBQPRAConstraintD2Ev
libLLVM.so.11:_ZN4llvm16PointerAlignElem3getEjNS_5AlignES1_jj
libLLVM.so.11:_ZN4llvm16RegisterBankInfo14OperandsMapper11createVRegsEj
libLLVM.so.11:_ZN4llvm16RegisterBankInfo14OperandsMapper11getVRegsMemEj
libLLVM.so.11:_ZN4llvm16RegisterBankInfo14OperandsMapper14getNewVRegsEndEjj
libLLVM.so.11:_ZN4llvm16RegisterBankInfo14OperandsMapper8setVRegsEjjNS_8RegisterE
libLLVM.so.11:_ZN4llvm16RegisterBankInfo14OperandsMapperC1ERNS_12MachineInstrERKNS0_18InstructionMappingERNS_19MachineRegisterInfoE
libLLVM.so.11:_ZN4llvm16RegisterBankInfo14OperandsMapperC2ERNS_12MachineInstrERKNS0_18InstructionMappingERNS_19MachineRegisterInfoE
libLLVM.so.11:_ZN4llvm16RegisterBankInfo19applyDefaultMappingERKNS0_14OperandsMapperE
libLLVM.so.11:_ZN4llvm16RegisterBankInfo24constrainGenericRegisterENS_8RegisterERKNS_19TargetRegisterClassERNS_19MachineRegisterInfoE
libLLVM.so.11:_ZN4llvm16RegisterBankInfoC1EPPNS_12RegisterBankEj
libLLVM.so.11:_ZN4llvm16RegisterBankInfoC2EPPNS_12RegisterBankEj
libLLVM.so.11:_ZN4llvm16RegisterOperands14detectDeadDefsERKNS_12MachineInstrERKNS_13LiveIntervalsE
libLLVM.so.11:_ZN4llvm16RegisterOperands18adjustLaneLivenessERKNS_13LiveIntervalsERKNS_19MachineRegisterInfoENS_9SlotIndexEPNS_12MachineInstrE
libLLVM.so.11:_ZN4llvm16RegisterOperands7collectERKNS_12MachineInstrERKNS_18TargetRegisterInfoERKNS_19MachineRegisterInfoEbb
libLLVM.so.11:_ZN4llvm16RuntimeDyldMachO10loadObjectERKNS_6object10ObjectFileE
libLLVM.so.11:_ZN4llvm16RuntimeDyldMachO19getSectionByAddressERKNS_6object15MachOObjectFileEy
libLLVM.so.11:_ZN4llvm16RuntimeDyldMachO20makeValueAddendPCRelERNS_18RelocationValueRefERKNS_6object16content_iteratorINS3_13RelocationRefEEEj
libLLVM.so.11:_ZN4llvm16RuntimeDyldMachO21getRelocationValueRefERKNS_6object10ObjectFileERKNS1_16content_iteratorINS1_13RelocationRefEEERKNS_15RelocationEntryERSt3mapINS1_10SectionRefEjSt4lessISE_ESaISt4pairIKSE_jEEE
libLLVM.so.11:_ZN4llvm16RuntimeDyldMachO23processScatteredVANILLAEjNS_6object16content_iteratorINS1_13RelocationRefEEERKNS1_10ObjectFileERSt3mapINS1_10SectionRefEjSt4lessIS9_ESaISt4pairIKS9_jEEEb
libLLVM.so.11:_ZN4llvm16RuntimeDyldMachO37populateIndirectSymbolPointersSectionERKNS_6object15MachOObjectFileERKNS1_10SectionRefEj
libLLVM.so.11:_ZN4llvm16RuntimeDyldMachO6createENS_6Triple8ArchTypeERNS_11RuntimeDyld13MemoryManagerERNS_17JITSymbolResolverE
libLLVM.so.11:_ZN4llvm16SCEVTruncateExprC1ENS_19FoldingSetNodeIDRefEPKNS_4SCEVEPNS_4TypeE
libLLVM.so.11:_ZN4llvm16SCEVTruncateExprC2ENS_19FoldingSetNodeIDRefEPKNS_4SCEVEPNS_4TypeE
libLLVM.so.11:_ZN4llvm16ScaledNumberBase4dumpEysi
libLLVM.so.11:_ZN4llvm16ScaledNumberBase5printERNS_11raw_ostreamEysij
libLLVM.so.11:_ZN4llvm16ScaledNumberBase8toStringB5cxx11Eysij
libLLVM.so.11:_ZN4llvm16SelectionDAGISel12Select_UNDEFEPNS_6SDNodeE
libLLVM.so.11:_ZN4llvm16SelectionDAGISel12UpdateChainsEPNS_6SDNodeENS_7SDValueERNS_15SmallVectorImplIS2_EEb
libLLVM.so.11:_ZN4llvm16SelectionDAGISel13IsLegalToFoldENS_7SDValueEPNS_6SDNodeES3_NS_10CodeGenOpt5LevelEb
libLLVM.so.11:_ZN4llvm16SelectionDAGISel13Select_FREEZEEPNS_6SDNodeE
libLLVM.so.11:_ZN4llvm16SelectionDAGISel14LowerArgumentsERKNS_8FunctionE
libLLVM.so.11:_ZN4llvm16SelectionDAGISel15CannotYetSelectEPNS_6SDNodeE
libLLVM.so.11:_ZN4llvm16SelectionDAGISel15CreateSchedulerEv
libLLVM.so.11:_ZN4llvm16SelectionDAGISel16FinishBasicBlockEv
libLLVM.so.11:_ZN4llvm16SelectionDAGISel16InvalidateNodeIdEPNS_6SDNodeE
libLLVM.so.11:_ZN4llvm16SelectionDAGISel16SelectBasicBlockENS_14ilist_iteratorINS_12ilist_detail12node_optionsINS_11InstructionELb0ELb0EvEELb0ELb1EEES6_Rb
libLLVM.so.11:_ZN4llvm16SelectionDAGISel16SelectCodeCommonEPNS_6SDNodeEPKhj
libLLVM.so.11:_ZN4llvm16SelectionDAGISel16Select_INLINEASMEPNS_6SDNodeE
libLLVM.so.11:_ZN4llvm16SelectionDAGISel17CodeGenAndEmitDAGEv
libLLVM.so.11:_ZN4llvm16SelectionDAGISel19PrepareEHLandingPadEv
libLLVM.so.11:_ZN4llvm16SelectionDAGISel20SelectAllBasicBlocksERKNS_8FunctionE
libLLVM.so.11:_ZN4llvm16SelectionDAGISel20Select_READ_REGISTEREPNS_6SDNodeE
libLLVM.so.11:_ZN4llvm16SelectionDAGISel20runOnMachineFunctionERNS_15MachineFunctionE
libLLVM.so.11:_ZN4llvm16SelectionDAGISel21Select_WRITE_REGISTEREPNS_6SDNodeE
libLLVM.so.11:_ZN4llvm16SelectionDAGISel22ComputeLiveOutVRegInfoEv
libLLVM.so.11:_ZN4llvm16SelectionDAGISel22DoInstructionSelectionEv
libLLVM.so.11:_ZN4llvm16SelectionDAGISel22EnforceNodeIdInvariantEPNS_6SDNodeE
libLLVM.so.11:_ZN4llvm16SelectionDAGISel22getUninvalidatedNodeIdEPNS_6SDNodeE
libLLVM.so.11:_ZN4llvm16SelectionDAGISel29SelectInlineAsmMemoryOperandsERSt6vectorINS_7SDValueESaIS2_EERKNS_5SDLocE
libLLVM.so.11:_ZN4llvm16SelectionDAGISel9MorphNodeEPNS_6SDNodeEjNS_8SDVTListENS_8ArrayRefINS_7SDValueEEEj
libLLVM.so.11:_ZN4llvm16SelectionDAGISelC2ERNS_13TargetMachineENS_10CodeGenOpt5LevelE
libLLVM.so.11:_ZN4llvm16SelectionDAGISelD0Ev
libLLVM.so.11:_ZN4llvm16SelectionDAGISelD1Ev
libLLVM.so.11:_ZN4llvm16SelectionDAGISelD2Ev
libLLVM.so.11:_ZN4llvm16SimplifyAShrInstEPNS_5ValueES1_bRKNS_13SimplifyQueryE
libLLVM.so.11:_ZN4llvm16SimplifyCastInstEjPNS_5ValueEPNS_4TypeERKNS_13SimplifyQueryE
libLLVM.so.11:_ZN4llvm16SimplifyFAddInstEPNS_5ValueES1_NS_13FastMathFlagsERKNS_13SimplifyQueryE
libLLVM.so.11:_ZN4llvm16SimplifyFCmpInstEjPNS_5ValueES1_NS_13FastMathFlagsERKNS_13SimplifyQueryE
libLLVM.so.11:_ZN4llvm16SimplifyFDivInstEPNS_5ValueES1_NS_13FastMathFlagsERKNS_13SimplifyQueryE
libLLVM.so.11:_ZN4llvm16SimplifyFMulInstEPNS_5ValueES1_NS_13FastMathFlagsERKNS_13SimplifyQueryE
libLLVM.so.11:_ZN4llvm16SimplifyFNegInstEPNS_5ValueENS_13FastMathFlagsERKNS_13SimplifyQueryE
libLLVM.so.11:_ZN4llvm16SimplifyFRemInstEPNS_5ValueES1_NS_13FastMathFlagsERKNS_13SimplifyQueryE
libLLVM.so.11:_ZN4llvm16SimplifyFSubInstEPNS_5ValueES1_NS_13FastMathFlagsERKNS_13SimplifyQueryE
libLLVM.so.11:_ZN4llvm16SimplifyICmpInstEjPNS_5ValueES1_RKNS_13SimplifyQueryE
libLLVM.so.11:_ZN4llvm16SimplifyLShrInstEPNS_5ValueES1_bRKNS_13SimplifyQueryE
libLLVM.so.11:_ZN4llvm16SimplifySDivInstEPNS_5ValueES1_RKNS_13SimplifyQueryE
libLLVM.so.11:_ZN4llvm16SimplifySRemInstEPNS_5ValueES1_RKNS_13SimplifyQueryE
libLLVM.so.11:_ZN4llvm16SimplifyUDivInstEPNS_5ValueES1_RKNS_13SimplifyQueryE
libLLVM.so.11:_ZN4llvm16SimplifyURemInstEPNS_5ValueES1_RKNS_13SimplifyQueryE
libLLVM.so.11:_ZN4llvm16StoreIntToMemoryERKNS_5APIntEPhj
libLLVM.so.11:_ZN4llvm16TailCallElimPass3runERNS_8FunctionERNS_15AnalysisManagerIS1_JEEE
libLLVM.so.11:_ZN4llvm16TargetIRAnalysis13getDefaultTTIERKNS_8FunctionE
libLLVM.so.11:_ZN4llvm16TargetIRAnalysis3runERKNS_8FunctionERNS_15AnalysisManagerIS1_JEEE
libLLVM.so.11:_ZN4llvm16TargetIRAnalysisC1ESt8functionIFNS_19TargetTransformInfoERKNS_8FunctionEEE
libLLVM.so.11:_ZN4llvm16TargetIRAnalysisC1Ev
libLLVM.so.11:_ZN4llvm16TargetIRAnalysisC2ESt8functionIFNS_19TargetTransformInfoERKNS_8FunctionEEE
libLLVM.so.11:_ZN4llvm16TargetIRAnalysisC2Ev
libLLVM.so.11:_ZN4llvm16TargetPassConfig10insertPassEPKvNS_18IdentifyingPassPtrEbb
libLLVM.so.11:_ZN4llvm16TargetPassConfig11addGCPassesEv
libLLVM.so.11:_ZN4llvm16TargetPassConfig11addIRPassesEv
libLLVM.so.11:_ZN4llvm16TargetPassConfig12addPrintPassERKNSt7__cxx1112basic_stringIcSt11char_traitsIcESaIcEEE
libLLVM.so.11:_ZN4llvm16TargetPassConfig13addISelPassesEv
libLLVM.so.11:_ZN4llvm16TargetPassConfig13addVerifyPassERKNSt7__cxx1112basic_stringIcSt11char_traitsIcESaIcEEE
libLLVM.so.11:_ZN4llvm16TargetPassConfig14addISelPrepareEv
libLLVM.so.11:_ZN4llvm16TargetPassConfig14printAndVerifyERKNSt7__cxx1112basic_stringIcSt11char_traitsIcESaIcEEE
libLLVM.so.11:_ZN4llvm16TargetPassConfig14substitutePassEPKvNS_18IdentifyingPassPtrE
libLLVM.so.11:_ZN4llvm16TargetPassConfig15addDebugifyPassEv
libLLVM.so.11:_ZN4llvm16TargetPassConfig15addFastRegAllocEv
libLLVM.so.11:_ZN4llvm16TargetPassConfig16addMachinePassesEv
libLLVM.so.11:_ZN4llvm16TargetPassConfig17addBlockPlacementEv
libLLVM.so.11:_ZN4llvm16TargetPassConfig17addCodeGenPrepareEv
libLLVM.so.11:_ZN4llvm16TargetPassConfig17addCoreISelPassesEv
libLLVM.so.11:_ZN4llvm16TargetPassConfig17addStripDebugPassEv
libLLVM.so.11:_ZN4llvm16TargetPassConfig18createRegAllocPassEb
libLLVM.so.11:_ZN4llvm16TargetPassConfig18setStartStopPassesEv
libLLVM.so.11:_ZN4llvm16TargetPassConfig19addMachinePrePassesEb
libLLVM.so.11:_ZN4llvm16TargetPassConfig20addMachinePostPassesERKNSt7__cxx1112basic_stringIcSt11char_traitsIcESaIcEEEbbb
libLLVM.so.11:_ZN4llvm16TargetPassConfig20addOptimizedRegAllocEv
libLLVM.so.11:_ZN4llvm16TargetPassConfig20addRegAssignmentFastEv
libLLVM.so.11:_ZN4llvm16TargetPassConfig25addMachineSSAOptimizationEv
libLLVM.so.11:_ZN4llvm16TargetPassConfig25addRegAssignmentOptimizedEv
libLLVM.so.11:_ZN4llvm16TargetPassConfig25hasLimitedCodeGenPipelineEv
libLLVM.so.11:_ZN4llvm16TargetPassConfig26addMachineLateOptimizationEv
libLLVM.so.11:_ZN4llvm16TargetPassConfig27addPassesToHandleExceptionsEv
libLLVM.so.11:_ZN4llvm16TargetPassConfig27willCompleteCodeGenPipelineEv
libLLVM.so.11:_ZN4llvm16TargetPassConfig29createTargetRegisterAllocatorEb
libLLVM.so.11:_ZN4llvm16TargetPassConfig31getLimitedCodeGenPipelineReasonB5cxx11EPKc
libLLVM.so.11:_ZN4llvm16TargetPassConfig6setOptERbb
libLLVM.so.11:_ZN4llvm16TargetPassConfig7addPassEPKvbb
libLLVM.so.11:_ZN4llvm16TargetPassConfig7addPassEPNS_4PassEbb
libLLVM.so.11:_ZN4llvm16TargetPassConfigC1ERNS_17LLVMTargetMachineERNS_6legacy15PassManagerBaseE
libLLVM.so.11:_ZN4llvm16TargetPassConfigC1Ev
libLLVM.so.11:_ZN4llvm16TargetPassConfigC2ERNS_17LLVMTargetMachineERNS_6legacy15PassManagerBaseE
libLLVM.so.11:_ZN4llvm16TargetPassConfigC2Ev
libLLVM.so.11:_ZN4llvm16TargetPassConfigD0Ev
libLLVM.so.11:_ZN4llvm16TargetPassConfigD1Ev
libLLVM.so.11:_ZN4llvm16TargetPassConfigD2Ev
libLLVM.so.11:_ZN4llvm16TargetSchedModel4initEPKNS_19TargetSubtargetInfoE
libLLVM.so.11:_ZN4llvm16TruncInstCombine14getMinBitWidthEv
libLLVM.so.11:_ZN4llvm16TruncInstCombine17getReducedOperandEPNS_5ValueEPNS_4TypeE
libLLVM.so.11:_ZN4llvm16TruncInstCombine19ReduceExpressionDagEPNS_4TypeE
libLLVM.so.11:_ZN4llvm16TruncInstCombine20getBestTruncatedTypeEv
libLLVM.so.11:_ZN4llvm16TruncInstCombine23buildTruncExpressionDagEv
libLLVM.so.11:_ZN4llvm16TruncInstCombine3runERNS_8FunctionE
libLLVM.so.11:_ZN4llvm16UnrollAndJamLoopEPNS_4LoopEjjjbPNS_8LoopInfoEPNS_15ScalarEvolutionEPNS_13DominatorTreeEPNS_15AssumptionCacheEPKNS_19TargetTransformInfoEPNS_25OptimizationRemarkEmitterEPS1_
libLLVM.so.11:_ZN4llvm16UpgradeDebugInfoERNS_6ModuleE
libLLVM.so.11:_ZN4llvm16VPWidenGEPRecipe7executeERNS_16VPTransformStateE
libLLVM.so.11:_ZN4llvm16VPWidenPHIRecipe7executeERNS_16VPTransformStateE
libLLVM.so.11:_ZN4llvm16VPlanHCFGBuilder13buildPlainCFGEv
libLLVM.so.11:_ZN4llvm16VPlanHCFGBuilder20buildHierarchicalCFGEv
libLLVM.so.11:_ZN4llvm16ValueSymbolTable13reinsertValueEPNS_5ValueE
libLLVM.so.11:_ZN4llvm16ValueSymbolTable14makeUniqueNameEPNS_5ValueERNS_11SmallStringILj256EEE
libLLVM.so.11:_ZN4llvm16ValueSymbolTable15createValueNameENS_9StringRefEPNS_5ValueE
libLLVM.so.11:_ZN4llvm16ValueSymbolTable15removeValueNameEPNS_14StringMapEntryIPNS_5ValueEEE
libLLVM.so.11:_ZN4llvm16ValueSymbolTableD1Ev
libLLVM.so.11:_ZN4llvm16ValueSymbolTableD2Ev
libLLVM.so.11:_ZN4llvm16VectorizerParams18isInterleaveForcedEv
libLLVM.so.11:_ZN4llvm16VerifierAnalysis3runERNS_6ModuleERNS_15AnalysisManagerIS1_JEEE
libLLVM.so.11:_ZN4llvm16VerifierAnalysis3runERNS_8FunctionERNS_15AnalysisManagerIS1_JEEE
libLLVM.so.11:_ZN4llvm16WriteIndexToFileERKNS_18ModuleSummaryIndexERNS_11raw_ostreamEPKSt3mapINSt7__cxx1112basic_stringIcSt11char_traitsIcESaIcEEENS_8DenseMapIyPNS_18GlobalValueSummaryENS_12DenseMapInfoIyEENS_6detail12DenseMapPairIySE_EEEESt4lessISB_ESaISt4pairIKSB_SK_EEE
libLLVM.so.11:_ZN4llvm16addRuntimeChecksEPNS_11InstructionEPNS_4LoopERKNS_15SmallVectorImplISt4pairIPKNS_23RuntimeCheckingPtrGroupES8_EEEPNS_15ScalarEvolutionE
libLLVM.so.11:_ZN4llvm16computeKnownBitsEPKNS_5ValueERKNS_10DataLayoutEjPNS_15AssumptionCacheEPKNS_11InstructionEPKNS_13DominatorTreeEPNS_25OptimizationRemarkEmitterEb
libLLVM.so.11:_ZN4llvm16computeKnownBitsEPKNS_5ValueERKNS_5APIntERKNS_10DataLayoutEjPNS_15AssumptionCacheEPKNS_11InstructionEPKNS_13DominatorTreeEPNS_25OptimizationRemarkEmitterEb
libLLVM.so.11:_ZN4llvm16computeKnownBitsEPKNS_5ValueERKNS_5APIntERNS_9KnownBitsERKNS_10DataLayoutEjPNS_15AssumptionCacheEPKNS_11InstructionEPKNS_13DominatorTreeEPNS_25OptimizationRemarkEmitterEb
libLLVM.so.11:_ZN4llvm16computeKnownBitsEPKNS_5ValueERNS_9KnownBitsERKNS_10DataLayoutEjPNS_15AssumptionCacheEPKNS_11InstructionEPKNS_13DominatorTreeEPNS_25OptimizationRemarkEmitterEb
libLLVM.so.11:_ZN4llvm16computePeelCountEPNS_4LoopEjRNS_19TargetTransformInfo20UnrollingPreferencesERNS2_18PeelingPreferencesERjRNS_15ScalarEvolutionE
libLLVM.so.11:_ZN4llvm16computeValueLLTsERKNS_10DataLayoutERNS_4TypeERNS_15SmallVectorImplINS_3LLTEEEPNS5_IyEEy
libLLVM.so.11:_ZN4llvm16createAAEvalPassEv
libLLVM.so.11:_ZN4llvm16createIPSCCPPassEv
libLLVM.so.11:_ZN4llvm16createMemLibcallERNS_16MachineIRBuilderERNS_19MachineRegisterInfoERNS_12MachineInstrE
libLLVM.so.11:_ZN4llvm16createNewGVNPassEv
libLLVM.so.11:_ZN4llvm16createPAEvalPassEv
libLLVM.so.11:_ZN4llvm16createStrideMaskEjjj
libLLVM.so.11:_ZN4llvm16createWasmEHPassEv
libLLVM.so.11:_ZN4llvm16errorCodeToErrorESt10error_code
libLLVM.so.11:_ZN4llvm16errorToErrorCodeENS_5ErrorE
libLLVM.so.11:_ZN4llvm16getUniqueCastUseEPNS_5ValueEPNS_4LoopEPNS_4TypeE
libLLVM.so.11:_ZN4llvm16initializeTargetERNS_12PassRegistryE
libLLVM.so.11:_ZN4llvm16isIRPrintingPassEPNS_4PassE
libLLVM.so.11:_ZN4llvm16isLegalToPromoteERKNS_8CallBaseEPNS_8FunctionEPPKc
libLLVM.so.11:_ZN4llvm16isNullFPConstantENS_7SDValueE
libLLVM.so.11:_ZN4llvm16isSafeToExpandAtEPKNS_4SCEVEPKNS_11InstructionERNS_15ScalarEvolutionE
libLLVM.so.11:_ZN4llvm16itanium_demangle19parse_discriminatorEPKcS2_
libLLVM.so.11:_ZN4llvm16parseBitcodeFileENS_15MemoryBufferRefERNS_11LLVMContextENS_12function_refIFNS_8OptionalINSt7__cxx1112basic_stringIcSt11char_traitsIcESaIcEEEEENS_9StringRefEEEE
libLLVM.so.11:_ZN4llvm16printHTMLEscapedENS_9StringRefERNS_11raw_ostreamE
libLLVM.so.11:_ZN4llvm16propagateIRFlagsEPNS_5ValueENS_8ArrayRefIS1_EES1_
libLLVM.so.11:_ZN4llvm16propagatesPoisonEPKNS_11InstructionE
libLLVM.so.11:_ZN4llvm16raw_null_ostream10write_implEPKcj
libLLVM.so.11:_ZN4llvm16raw_null_ostream11pwrite_implEPKcjy
libLLVM.so.11:_ZN4llvm16raw_null_ostreamD0Ev
libLLVM.so.11:_ZN4llvm16raw_null_ostreamD1Ev
libLLVM.so.11:_ZN4llvm16raw_null_ostreamD2Ev
libLLVM.so.11:_ZN4llvm16removeUnwindEdgeEPNS_10BasicBlockEPNS_14DomTreeUpdaterE
libLLVM.so.11:_ZN4llvm16salvageDebugInfoERNS_11InstructionE
libLLVM.so.11:_ZN4llvm16salvageKnowledgeEPNS_11InstructionEPNS_15AssumptionCacheEPNS_13DominatorTreeE
libLLVM.so.11:_ZN4llvm16stripIntegerCastEPNS_5ValueE
libLLVM.so.11:_ZN4llvm16windows_manifest11isAvailableEv
libLLVM.so.11:_ZN4llvm16windows_manifest20WindowsManifestErrorC1ERKNS_5TwineE
libLLVM.so.11:_ZN4llvm16windows_manifest20WindowsManifestErrorC2ERKNS_5TwineE
libLLVM.so.11:_ZN4llvm16windows_manifest21WindowsManifestMerger17getMergedManifestEv
libLLVM.so.11:_ZN4llvm16windows_manifest21WindowsManifestMerger25WindowsManifestMergerImpl13errorCallbackEPvPKcz
libLLVM.so.11:_ZN4llvm16windows_manifest21WindowsManifestMerger25WindowsManifestMergerImpl13getParseErrorEv
libLLVM.so.11:_ZN4llvm16windows_manifest21WindowsManifestMerger25WindowsManifestMergerImpl17getMergedManifestEv
libLLVM.so.11:_ZN4llvm16windows_manifest21WindowsManifestMerger25WindowsManifestMergerImpl5mergeERKNS_12MemoryBufferE
libLLVM.so.11:_ZN4llvm16windows_manifest21WindowsManifestMerger25WindowsManifestMergerImplD1Ev
libLLVM.so.11:_ZN4llvm16windows_manifest21WindowsManifestMerger25WindowsManifestMergerImplD2Ev
libLLVM.so.11:_ZN4llvm16windows_manifest21WindowsManifestMerger5mergeERKNS_12MemoryBufferE
libLLVM.so.11:_ZN4llvm16windows_manifest21WindowsManifestMergerC1Ev
libLLVM.so.11:_ZN4llvm16windows_manifest21WindowsManifestMergerC2Ev
libLLVM.so.11:_ZN4llvm16windows_manifest21WindowsManifestMergerD1Ev
libLLVM.so.11:_ZN4llvm16windows_manifest21WindowsManifestMergerD2Ev
libLLVM.so.11:_ZN4llvm17AADereferenceable17createForPositionERKNS_10IRPositionERNS_10AttributorE
libLLVM.so.11:_ZN4llvm17AAPrivatizablePtr17createForPositionERKNS_10IRPositionERNS_10AttributorE
libLLVM.so.11:_ZN4llvm17ARMJITSymbolFlags16fromObjectSymbolERKNS_6object9SymbolRefE
libLLVM.so.11:_ZN4llvm17AbstractAttribute6updateERNS_10AttributorE
libLLVM.so.11:_ZN4llvm17AddrSpaceCastInstC1EPNS_5ValueEPNS_4TypeERKNS_5TwineEPNS_10BasicBlockE
libLLVM.so.11:_ZN4llvm17AddrSpaceCastInstC1EPNS_5ValueEPNS_4TypeERKNS_5TwineEPNS_11InstructionE
libLLVM.so.11:_ZN4llvm17AddrSpaceCastInstC2EPNS_5ValueEPNS_4TypeERKNS_5TwineEPNS_10BasicBlockE
libLLVM.so.11:_ZN4llvm17AddrSpaceCastInstC2EPNS_5ValueEPNS_4TypeERKNS_5TwineEPNS_11InstructionE
libLLVM.so.11:_ZN4llvm17AlwaysInlinerPass3runERNS_6ModuleERNS_15AnalysisManagerIS1_JEEE
libLLVM.so.11:_ZN4llvm17AsmPrinterHandler15markFunctionEndEv
libLLVM.so.11:_ZN4llvm17AsmPrinterHandlerD0Ev
libLLVM.so.11:_ZN4llvm17AsmPrinterHandlerD1Ev
libLLVM.so.11:_ZN4llvm17AsmPrinterHandlerD2Ev
libLLVM.so.11:_ZN4llvm17AssumeBuilderPass3runERNS_8FunctionERNS_15AnalysisManagerIS1_JEEE
libLLVM.so.11:_ZN4llvm17AtomicCmpXchgInst4InitEPNS_5ValueES2_S2_NS_5AlignENS_14AtomicOrderingES4_h
libLLVM.so.11:_ZN4llvm17AtomicCmpXchgInstC1EPNS_5ValueES2_S2_NS_5AlignENS_14AtomicOrderingES4_hPNS_10BasicBlockE
libLLVM.so.11:_ZN4llvm17AtomicCmpXchgInstC1EPNS_5ValueES2_S2_NS_5AlignENS_14AtomicOrderingES4_hPNS_11InstructionE
libLLVM.so.11:_ZN4llvm17AtomicCmpXchgInstC2EPNS_5ValueES2_S2_NS_5AlignENS_14AtomicOrderingES4_hPNS_10BasicBlockE
libLLVM.so.11:_ZN4llvm17AtomicCmpXchgInstC2EPNS_5ValueES2_S2_NS_5AlignENS_14AtomicOrderingES4_hPNS_11InstructionE
libLLVM.so.11:_ZN4llvm17AttributeListImpl7ProfileERNS_16FoldingSetNodeIDENS_8ArrayRefINS_12AttributeSetEEE
libLLVM.so.11:_ZN4llvm17AttributeListImplC1ENS_8ArrayRefINS_12AttributeSetEEE
libLLVM.so.11:_ZN4llvm17AttributeListImplC2ENS_8ArrayRefINS_12AttributeSetEEE
libLLVM.so.11:_ZN4llvm17BinaryStreamErrorC1ENS_17stream_error_codeE
libLLVM.so.11:_ZN4llvm17BinaryStreamErrorC1ENS_17stream_error_codeENS_9StringRefE
libLLVM.so.11:_ZN4llvm17BinaryStreamErrorC1ENS_9StringRefE
libLLVM.so.11:_ZN4llvm17BinaryStreamErrorC2ENS_17stream_error_codeE
libLLVM.so.11:_ZN4llvm17BinaryStreamErrorC2ENS_17stream_error_codeENS_9StringRefE
libLLVM.so.11:_ZN4llvm17BinaryStreamErrorC2ENS_9StringRefE
libLLVM.so.11:_ZN4llvm17BitcodeWriterPass3runERNS_6ModuleERNS_15AnalysisManagerIS1_JEEE
libLLVM.so.11:_ZN4llvm17BranchProbability20getBranchProbabilityEyy
libLLVM.so.11:_ZN4llvm17BranchProbabilityC1Ejj
libLLVM.so.11:_ZN4llvm17BranchProbabilityC2Ejj
libLLVM.so.11:_ZN4llvm17CFGOnlyViewerPass3runERNS_8FunctionERNS_15AnalysisManagerIS1_JEEE
libLLVM.so.11:_ZN4llvm17CFLAndersAAResult12ensureCachedERKNS_8FunctionE
libLLVM.so.11:_ZN4llvm17CFLAndersAAResult13buildInfoFromERKNS_8FunctionE
libLLVM.so.11:_ZN4llvm17CFLAndersAAResult15getAliasSummaryERKNS_8FunctionE
libLLVM.so.11:_ZN4llvm17CFLAndersAAResult4scanERKNS_8FunctionE
libLLVM.so.11:_ZN4llvm17CFLAndersAAResult5aliasERKNS_14MemoryLocationES3_RNS_11AAQueryInfoE
libLLVM.so.11:_ZN4llvm17CFLAndersAAResult5evictEPKNS_8FunctionE
libLLVM.so.11:_ZN4llvm17CFLAndersAAResult5queryERKNS_14MemoryLocationES3_
libLLVM.so.11:_ZN4llvm17CFLAndersAAResultC1EOS0_
libLLVM.so.11:_ZN4llvm17CFLAndersAAResultC1ESt8functionIFRKNS_17TargetLibraryInfoERNS_8FunctionEEE
libLLVM.so.11:_ZN4llvm17CFLAndersAAResultC2EOS0_
libLLVM.so.11:_ZN4llvm17CFLAndersAAResultC2ESt8functionIFRKNS_17TargetLibraryInfoERNS_8FunctionEEE
libLLVM.so.11:_ZN4llvm17CFLAndersAAResultD1Ev
libLLVM.so.11:_ZN4llvm17CFLAndersAAResultD2Ev
libLLVM.so.11:_ZN4llvm17CFLSteensAAResult12FunctionInfoC1ERNS_8FunctionERKNS_15SmallVectorImplIPNS_5ValueEEENS_5cflaa14StratifiedSetsINSA_17InstantiatedValueEEE
libLLVM.so.11:_ZN4llvm17CFLSteensAAResult12FunctionInfoC2ERNS_8FunctionERKNS_15SmallVectorImplIPNS_5ValueEEENS_5cflaa14StratifiedSetsINSA_17InstantiatedValueEEE
libLLVM.so.11:_ZN4llvm17CFLSteensAAResult12ensureCachedEPNS_8FunctionE
libLLVM.so.11:_ZN4llvm17CFLSteensAAResult13buildSetsFromEPNS_8FunctionE
libLLVM.so.11:_ZN4llvm17CFLSteensAAResult15getAliasSummaryERNS_8FunctionE
libLLVM.so.11:_ZN4llvm17CFLSteensAAResult4scanEPNS_8FunctionE
libLLVM.so.11:_ZN4llvm17CFLSteensAAResult5evictEPNS_8FunctionE
libLLVM.so.11:_ZN4llvm17CFLSteensAAResult5queryERKNS_14MemoryLocationES3_
libLLVM.so.11:_ZN4llvm17CFLSteensAAResultC1EOS0_
libLLVM.so.11:_ZN4llvm17CFLSteensAAResultC1ESt8functionIFRKNS_17TargetLibraryInfoERNS_8FunctionEEE
libLLVM.so.11:_ZN4llvm17CFLSteensAAResultC2EOS0_
libLLVM.so.11:_ZN4llvm17CFLSteensAAResultC2ESt8functionIFRKNS_17TargetLibraryInfoERNS_8FunctionEEE
libLLVM.so.11:_ZN4llvm17CFLSteensAAResultD1Ev
libLLVM.so.11:_ZN4llvm17CFLSteensAAResultD2Ev
libLLVM.so.11:_ZN4llvm17CleanupReturnInst4initEPNS_5ValueEPNS_10BasicBlockE
libLLVM.so.11:_ZN4llvm17CleanupReturnInstC1EPNS_5ValueEPNS_10BasicBlockEjPNS_11InstructionE
libLLVM.so.11:_ZN4llvm17CleanupReturnInstC1EPNS_5ValueEPNS_10BasicBlockEjS4_
libLLVM.so.11:_ZN4llvm17CleanupReturnInstC1ERKS0_
libLLVM.so.11:_ZN4llvm17CleanupReturnInstC2EPNS_5ValueEPNS_10BasicBlockEjPNS_11InstructionE
libLLVM.so.11:_ZN4llvm17CleanupReturnInstC2EPNS_5ValueEPNS_10BasicBlockEjS4_
libLLVM.so.11:_ZN4llvm17CleanupReturnInstC2ERKS0_
libLLVM.so.11:_ZN4llvm17CloneFunctionIntoEPNS_8FunctionEPKS0_RNS_8ValueMapIPKNS_5ValueENS_14WeakTrackingVHENS_14ValueMapConfigIS7_NS_3sys10SmartMutexILb0EEEEEEEbRNS_15SmallVectorImplIPNS_10ReturnInstEEEPKcPNS_14ClonedCodeInfoEPNS_20ValueMapTypeRemapperEPNS_17ValueMaterializerE
libLLVM.so.11:_ZN4llvm17ConstantAggregateC1EPNS_4TypeENS_5Value7ValueTyENS_8ArrayRefIPNS_8ConstantEEE
libLLVM.so.11:_ZN4llvm17ConstantAggregateC2EPNS_4TypeENS_5Value7ValueTyENS_8ArrayRefIPNS_8ConstantEEE
libLLVM.so.11:_ZN4llvm17ConstantDataArray5getFPEPNS_4TypeENS_8ArrayRefIjEE
libLLVM.so.11:_ZN4llvm17ConstantDataArray5getFPEPNS_4TypeENS_8ArrayRefItEE
libLLVM.so.11:_ZN4llvm17ConstantDataArray5getFPEPNS_4TypeENS_8ArrayRefIyEE
