libLTO.so.14:LLVM_14
libLTO.so.14:lto_api_version
libLTO.so.14:lto_codegen_add_module
libLTO.so.14:lto_codegen_add_must_preserve_symbol
libLTO.so.14:lto_codegen_compile
libLTO.so.14:lto_codegen_compile_optimized
libLTO.so.14:lto_codegen_compile_to_file
libLTO.so.14:lto_codegen_create
libLTO.so.14:lto_codegen_create_in_local_context
libLTO.so.14:lto_codegen_debug_options
libLTO.so.14:lto_codegen_debug_options_array
libLTO.so.14:lto_codegen_dispose
libLTO.so.14:lto_codegen_optimize
libLTO.so.14:lto_codegen_set_assembler_args
libLTO.so.14:lto_codegen_set_assembler_path
libLTO.so.14:lto_codegen_set_cpu
libLTO.so.14:lto_codegen_set_debug_model
libLTO.so.14:lto_codegen_set_diagnostic_handler
libLTO.so.14:lto_codegen_set_module
libLTO.so.14:lto_codegen_set_pic_model
libLTO.so.14:lto_codegen_set_should_embed_uselists
libLTO.so.14:lto_codegen_set_should_internalize
libLTO.so.14:lto_codegen_write_merged_modules
libLTO.so.14:lto_get_error_message
libLTO.so.14:lto_get_version
libLTO.so.14:lto_initialize_disassembler
libLTO.so.14:lto_input_create
libLTO.so.14:lto_input_dispose
libLTO.so.14:lto_input_get_dependent_library
libLTO.so.14:lto_input_get_num_dependent_libraries
libLTO.so.14:lto_module_create
libLTO.so.14:lto_module_create_from_fd
libLTO.so.14:lto_module_create_from_fd_at_offset
libLTO.so.14:lto_module_create_from_memory
libLTO.so.14:lto_module_create_from_memory_with_path
libLTO.so.14:lto_module_create_in_codegen_context
libLTO.so.14:lto_module_create_in_local_context
libLTO.so.14:lto_module_dispose
libLTO.so.14:lto_module_get_linkeropts
libLTO.so.14:lto_module_get_macho_cputype
libLTO.so.14:lto_module_get_num_symbols
libLTO.so.14:lto_module_get_symbol_attribute
libLTO.so.14:lto_module_get_symbol_name
libLTO.so.14:lto_module_get_target_triple
libLTO.so.14:lto_module_has_ctor_dtor
libLTO.so.14:lto_module_has_objc_category
libLTO.so.14:lto_module_is_object_file
libLTO.so.14:lto_module_is_object_file_for_target
libLTO.so.14:lto_module_is_object_file_in_memory
libLTO.so.14:lto_module_is_object_file_in_memory_for_target
libLTO.so.14:lto_module_is_thinlto
libLTO.so.14:lto_module_set_target_triple
libLTO.so.14:lto_runtime_lib_symbols_list
libLTO.so.14:lto_set_debug_options
libLTO.so.14:thinlto_codegen_add_cross_referenced_symbol
libLTO.so.14:thinlto_codegen_add_module
libLTO.so.14:thinlto_codegen_add_must_preserve_symbol
libLTO.so.14:thinlto_codegen_disable_codegen
libLTO.so.14:thinlto_codegen_dispose
libLTO.so.14:thinlto_codegen_process
libLTO.so.14:thinlto_codegen_set_cache_dir
libLTO.so.14:thinlto_codegen_set_cache_entry_expiration
libLTO.so.14:thinlto_codegen_set_cache_pruning_interval
libLTO.so.14:thinlto_codegen_set_cache_size_bytes
libLTO.so.14:thinlto_codegen_set_cache_size_files
libLTO.so.14:thinlto_codegen_set_cache_size_megabytes
libLTO.so.14:thinlto_codegen_set_codegen_only
libLTO.so.14:thinlto_codegen_set_cpu
libLTO.so.14:thinlto_codegen_set_final_cache_size_relative_to_available_space
libLTO.so.14:thinlto_codegen_set_pic_model
libLTO.so.14:thinlto_codegen_set_savetemps_dir
libLTO.so.14:thinlto_create_codegen
libLTO.so.14:thinlto_debug_options
libLTO.so.14:thinlto_module_get_num_object_files
libLTO.so.14:thinlto_module_get_num_objects
libLTO.so.14:thinlto_module_get_object
libLTO.so.14:thinlto_module_get_object_file
libLTO.so.14:thinlto_set_generated_objects_dir
libRemarks.so.14:LLVMRemarkVersion
libRemarks.so.14:LLVM_14
libarcher.so:ompt_start_tool
libclang.so.14:LLVM_13
libclang.so.14:clang_BlockCommandComment_getArgText
libclang.so.14:clang_BlockCommandComment_getCommandName
libclang.so.14:clang_BlockCommandComment_getNumArgs
libclang.so.14:clang_BlockCommandComment_getParagraph
libclang.so.14:clang_CXCursorSet_contains
libclang.so.14:clang_CXCursorSet_insert
libclang.so.14:clang_CXIndex_getGlobalOptions
libclang.so.14:clang_CXIndex_setGlobalOptions
libclang.so.14:clang_CXIndex_setInvocationEmissionPathOption
libclang.so.14:clang_CXRewriter_create
libclang.so.14:clang_CXRewriter_dispose
libclang.so.14:clang_CXRewriter_insertTextBefore
libclang.so.14:clang_CXRewriter_overwriteChangedFiles
libclang.so.14:clang_CXRewriter_removeText
libclang.so.14:clang_CXRewriter_replaceText
libclang.so.14:clang_CXRewriter_writeMainFileToStdOut
libclang.so.14:clang_CXXConstructor_isConvertingConstructor
libclang.so.14:clang_CXXConstructor_isCopyConstructor
libclang.so.14:clang_CXXConstructor_isDefaultConstructor
libclang.so.14:clang_CXXConstructor_isMoveConstructor
libclang.so.14:clang_CXXField_isMutable
libclang.so.14:clang_CXXMethod_isConst
libclang.so.14:clang_CXXMethod_isDefaulted
libclang.so.14:clang_CXXMethod_isPureVirtual
libclang.so.14:clang_CXXMethod_isStatic
libclang.so.14:clang_CXXMethod_isVirtual
libclang.so.14:clang_CXXRecord_isAbstract
libclang.so.14:clang_Comment_getChild
libclang.so.14:clang_Comment_getKind
libclang.so.14:clang_Comment_getNumChildren
libclang.so.14:clang_Comment_isWhitespace
libclang.so.14:clang_CompilationDatabase_dispose
libclang.so.14:clang_CompilationDatabase_fromDirectory
libclang.so.14:clang_CompilationDatabase_getAllCompileCommands
libclang.so.14:clang_CompilationDatabase_getCompileCommands
libclang.so.14:clang_CompileCommand_getArg
libclang.so.14:clang_CompileCommand_getDirectory
libclang.so.14:clang_CompileCommand_getFilename
libclang.so.14:clang_CompileCommand_getMappedSourceContent
libclang.so.14:clang_CompileCommand_getMappedSourcePath
libclang.so.14:clang_CompileCommand_getNumArgs
libclang.so.14:clang_CompileCommand_getNumMappedSources
libclang.so.14:clang_CompileCommands_dispose
libclang.so.14:clang_CompileCommands_getCommand
libclang.so.14:clang_CompileCommands_getSize
libclang.so.14:clang_Cursor_Evaluate
libclang.so.14:clang_Cursor_getArgument
libclang.so.14:clang_Cursor_getBriefCommentText
libclang.so.14:clang_Cursor_getCXXManglings
libclang.so.14:clang_Cursor_getCommentRange
libclang.so.14:clang_Cursor_getMangling
libclang.so.14:clang_Cursor_getModule
libclang.so.14:clang_Cursor_getNumArguments
libclang.so.14:clang_Cursor_getNumTemplateArguments
libclang.so.14:clang_Cursor_getObjCDeclQualifiers
libclang.so.14:clang_Cursor_getObjCManglings
libclang.so.14:clang_Cursor_getObjCPropertyAttributes
libclang.so.14:clang_Cursor_getObjCPropertyGetterName
libclang.so.14:clang_Cursor_getObjCPropertySetterName
libclang.so.14:clang_Cursor_getObjCSelectorIndex
libclang.so.14:clang_Cursor_getOffsetOfField
libclang.so.14:clang_Cursor_getParsedComment
libclang.so.14:clang_Cursor_getRawCommentText
libclang.so.14:clang_Cursor_getReceiverType
libclang.so.14:clang_Cursor_getSpellingNameRange
libclang.so.14:clang_Cursor_getStorageClass
libclang.so.14:clang_Cursor_getTemplateArgumentKind
libclang.so.14:clang_Cursor_getTemplateArgumentType
libclang.so.14:clang_Cursor_getTemplateArgumentUnsignedValue
libclang.so.14:clang_Cursor_getTemplateArgumentValue
libclang.so.14:clang_Cursor_getTranslationUnit
libclang.so.14:clang_Cursor_getVarDeclInitializer
libclang.so.14:clang_Cursor_hasAttrs
libclang.so.14:clang_Cursor_hasVarDeclExternalStorage
libclang.so.14:clang_Cursor_hasVarDeclGlobalStorage
libclang.so.14:clang_Cursor_isAnonymous
libclang.so.14:clang_Cursor_isAnonymousRecordDecl
libclang.so.14:clang_Cursor_isBitField
libclang.so.14:clang_Cursor_isDynamicCall
libclang.so.14:clang_Cursor_isExternalSymbol
libclang.so.14:clang_Cursor_isFunctionInlined
libclang.so.14:clang_Cursor_isInlineNamespace
libclang.so.14:clang_Cursor_isMacroBuiltin
libclang.so.14:clang_Cursor_isMacroFunctionLike
libclang.so.14:clang_Cursor_isNull
libclang.so.14:clang_Cursor_isObjCOptional
libclang.so.14:clang_Cursor_isVariadic
libclang.so.14:clang_EnumDecl_isScoped
libclang.so.14:clang_EvalResult_dispose
libclang.so.14:clang_EvalResult_getAsDouble
libclang.so.14:clang_EvalResult_getAsInt
libclang.so.14:clang_EvalResult_getAsLongLong
libclang.so.14:clang_EvalResult_getAsStr
libclang.so.14:clang_EvalResult_getAsUnsigned
libclang.so.14:clang_EvalResult_getKind
libclang.so.14:clang_EvalResult_isUnsignedInt
libclang.so.14:clang_File_isEqual
libclang.so.14:clang_File_tryGetRealPathName
libclang.so.14:clang_FullComment_getAsHTML
libclang.so.14:clang_FullComment_getAsXML
libclang.so.14:clang_HTMLStartTagComment_isSelfClosing
libclang.so.14:clang_HTMLStartTag_getAttrName
libclang.so.14:clang_HTMLStartTag_getAttrValue
libclang.so.14:clang_HTMLStartTag_getNumAttrs
libclang.so.14:clang_HTMLTagComment_getAsString
libclang.so.14:clang_HTMLTagComment_getTagName
libclang.so.14:clang_IndexAction_create
libclang.so.14:clang_IndexAction_dispose
libclang.so.14:clang_InlineCommandComment_getArgText
libclang.so.14:clang_InlineCommandComment_getCommandName
libclang.so.14:clang_InlineCommandComment_getNumArgs
libclang.so.14:clang_InlineCommandComment_getRenderKind
libclang.so.14:clang_InlineContentComment_hasTrailingNewline
libclang.so.14:clang_Location_isFromMainFile
libclang.so.14:clang_Location_isInSystemHeader
libclang.so.14:clang_ModuleMapDescriptor_create
libclang.so.14:clang_ModuleMapDescriptor_dispose
libclang.so.14:clang_ModuleMapDescriptor_setFrameworkModuleName
libclang.so.14:clang_ModuleMapDescriptor_setUmbrellaHeader
libclang.so.14:clang_ModuleMapDescriptor_writeToBuffer
libclang.so.14:clang_Module_getASTFile
libclang.so.14:clang_Module_getFullName
libclang.so.14:clang_Module_getName
libclang.so.14:clang_Module_getNumTopLevelHeaders
libclang.so.14:clang_Module_getParent
libclang.so.14:clang_Module_getTopLevelHeader
libclang.so.14:clang_Module_isSystem
libclang.so.14:clang_ParamCommandComment_getDirection
libclang.so.14:clang_ParamCommandComment_getParamIndex
libclang.so.14:clang_ParamCommandComment_getParamName
libclang.so.14:clang_ParamCommandComment_isDirectionExplicit
libclang.so.14:clang_ParamCommandComment_isParamIndexValid
libclang.so.14:clang_PrintingPolicy_dispose
libclang.so.14:clang_PrintingPolicy_getProperty
libclang.so.14:clang_PrintingPolicy_setProperty
libclang.so.14:clang_Range_isNull
libclang.so.14:clang_TParamCommandComment_getDepth
libclang.so.14:clang_TParamCommandComment_getIndex
libclang.so.14:clang_TParamCommandComment_getParamName
libclang.so.14:clang_TParamCommandComment_isParamPositionValid
libclang.so.14:clang_TargetInfo_dispose
libclang.so.14:clang_TargetInfo_getPointerWidth
libclang.so.14:clang_TargetInfo_getTriple
libclang.so.14:clang_TextComment_getText
libclang.so.14:clang_Type_getAlignOf
libclang.so.14:clang_Type_getCXXRefQualifier
libclang.so.14:clang_Type_getClassType
libclang.so.14:clang_Type_getModifiedType
libclang.so.14:clang_Type_getNamedType
libclang.so.14:clang_Type_getNullability
libclang.so.14:clang_Type_getNumObjCProtocolRefs
libclang.so.14:clang_Type_getNumObjCTypeArgs
libclang.so.14:clang_Type_getNumTemplateArguments
libclang.so.14:clang_Type_getObjCEncoding
libclang.so.14:clang_Type_getObjCObjectBaseType
libclang.so.14:clang_Type_getObjCProtocolDecl
libclang.so.14:clang_Type_getObjCTypeArg
libclang.so.14:clang_Type_getOffsetOf
libclang.so.14:clang_Type_getSizeOf
libclang.so.14:clang_Type_getTemplateArgumentAsType
libclang.so.14:clang_Type_getValueType
libclang.so.14:clang_Type_isTransparentTagTypedef
libclang.so.14:clang_Type_visitFields
libclang.so.14:clang_VerbatimBlockLineComment_getText
libclang.so.14:clang_VerbatimLineComment_getText
libclang.so.14:clang_VirtualFileOverlay_addFileMapping
libclang.so.14:clang_VirtualFileOverlay_create
libclang.so.14:clang_VirtualFileOverlay_dispose
libclang.so.14:clang_VirtualFileOverlay_setCaseSensitivity
libclang.so.14:clang_VirtualFileOverlay_writeToBuffer
libclang.so.14:clang_annotateTokens
libclang.so.14:clang_codeCompleteAt
libclang.so.14:clang_codeCompleteGetContainerKind
libclang.so.14:clang_codeCompleteGetContainerUSR
libclang.so.14:clang_codeCompleteGetContexts
libclang.so.14:clang_codeCompleteGetDiagnostic
libclang.so.14:clang_codeCompleteGetNumDiagnostics
libclang.so.14:clang_codeCompleteGetObjCSelector
libclang.so.14:clang_constructUSR_ObjCCategory
libclang.so.14:clang_constructUSR_ObjCClass
libclang.so.14:clang_constructUSR_ObjCIvar
libclang.so.14:clang_constructUSR_ObjCMethod
libclang.so.14:clang_constructUSR_ObjCProperty
libclang.so.14:clang_constructUSR_ObjCProtocol
libclang.so.14:clang_createCXCursorSet
libclang.so.14:clang_createIndex
libclang.so.14:clang_createTranslationUnit
libclang.so.14:clang_createTranslationUnit2
libclang.so.14:clang_createTranslationUnitFromSourceFile
libclang.so.14:clang_defaultCodeCompleteOptions
libclang.so.14:clang_defaultDiagnosticDisplayOptions
libclang.so.14:clang_defaultEditingTranslationUnitOptions
libclang.so.14:clang_defaultReparseOptions
libclang.so.14:clang_defaultSaveOptions
libclang.so.14:clang_disposeCXCursorSet
libclang.so.14:clang_disposeCXPlatformAvailability
libclang.so.14:clang_disposeCXTUResourceUsage
libclang.so.14:clang_disposeCodeCompleteResults
libclang.so.14:clang_disposeDiagnostic
libclang.so.14:clang_disposeDiagnosticSet
libclang.so.14:clang_disposeIndex
libclang.so.14:clang_disposeOverriddenCursors
libclang.so.14:clang_disposeSourceRangeList
libclang.so.14:clang_disposeString
libclang.so.14:clang_disposeStringSet
libclang.so.14:clang_disposeTokens
libclang.so.14:clang_disposeTranslationUnit
libclang.so.14:clang_enableStackTraces
libclang.so.14:clang_equalCursors
libclang.so.14:clang_equalLocations
libclang.so.14:clang_equalRanges
libclang.so.14:clang_equalTypes
libclang.so.14:clang_executeOnThread
libclang.so.14:clang_findIncludesInFile
libclang.so.14:clang_findIncludesInFileWithBlock
libclang.so.14:clang_findReferencesInFile
libclang.so.14:clang_findReferencesInFileWithBlock
libclang.so.14:clang_formatDiagnostic
libclang.so.14:clang_free
libclang.so.14:clang_getAddressSpace
libclang.so.14:clang_getAllSkippedRanges
libclang.so.14:clang_getArgType
libclang.so.14:clang_getArrayElementType
libclang.so.14:clang_getArraySize
libclang.so.14:clang_getBuildSessionTimestamp
libclang.so.14:clang_getCString
libclang.so.14:clang_getCXTUResourceUsage
libclang.so.14:clang_getCXXAccessSpecifier
libclang.so.14:clang_getCanonicalCursor
libclang.so.14:clang_getCanonicalType
libclang.so.14:clang_getChildDiagnostics
libclang.so.14:clang_getClangVersion
libclang.so.14:clang_getCompletionAnnotation
libclang.so.14:clang_getCompletionAvailability
libclang.so.14:clang_getCompletionBriefComment
libclang.so.14:clang_getCompletionChunkCompletionString
libclang.so.14:clang_getCompletionChunkKind
libclang.so.14:clang_getCompletionChunkText
libclang.so.14:clang_getCompletionFixIt
libclang.so.14:clang_getCompletionNumAnnotations
libclang.so.14:clang_getCompletionNumFixIts
libclang.so.14:clang_getCompletionParent
libclang.so.14:clang_getCompletionPriority
libclang.so.14:clang_getCursor
libclang.so.14:clang_getCursorAvailability
libclang.so.14:clang_getCursorCompletionString
libclang.so.14:clang_getCursorDefinition
libclang.so.14:clang_getCursorDisplayName
libclang.so.14:clang_getCursorExceptionSpecificationType
libclang.so.14:clang_getCursorExtent
libclang.so.14:clang_getCursorKind
libclang.so.14:clang_getCursorKindSpelling
libclang.so.14:clang_getCursorLanguage
libclang.so.14:clang_getCursorLexicalParent
libclang.so.14:clang_getCursorLinkage
libclang.so.14:clang_getCursorLocation
libclang.so.14:clang_getCursorPlatformAvailability
libclang.so.14:clang_getCursorPrettyPrinted
libclang.so.14:clang_getCursorPrintingPolicy
libclang.so.14:clang_getCursorReferenceNameRange
libclang.so.14:clang_getCursorReferenced
libclang.so.14:clang_getCursorResultType
libclang.so.14:clang_getCursorSemanticParent
libclang.so.14:clang_getCursorSpelling
libclang.so.14:clang_getCursorTLSKind
libclang.so.14:clang_getCursorType
libclang.so.14:clang_getCursorUSR
libclang.so.14:clang_getCursorVisibility
libclang.so.14:clang_getDeclObjCTypeEncoding
libclang.so.14:clang_getDefinitionSpellingAndExtent
libclang.so.14:clang_getDiagnostic
libclang.so.14:clang_getDiagnosticCategory
libclang.so.14:clang_getDiagnosticCategoryName
libclang.so.14:clang_getDiagnosticCategoryText
libclang.so.14:clang_getDiagnosticFixIt
libclang.so.14:clang_getDiagnosticInSet
libclang.so.14:clang_getDiagnosticLocation
libclang.so.14:clang_getDiagnosticNumFixIts
libclang.so.14:clang_getDiagnosticNumRanges
libclang.so.14:clang_getDiagnosticOption
libclang.so.14:clang_getDiagnosticRange
libclang.so.14:clang_getDiagnosticSetFromTU
libclang.so.14:clang_getDiagnosticSeverity
libclang.so.14:clang_getDiagnosticSpelling
libclang.so.14:clang_getElementType
libclang.so.14:clang_getEnumConstantDeclUnsignedValue
libclang.so.14:clang_getEnumConstantDeclValue
libclang.so.14:clang_getEnumDeclIntegerType
libclang.so.14:clang_getExceptionSpecificationType
libclang.so.14:clang_getExpansionLocation
libclang.so.14:clang_getFieldDeclBitWidth
libclang.so.14:clang_getFile
libclang.so.14:clang_getFileContents
libclang.so.14:clang_getFileLocation
libclang.so.14:clang_getFileName
libclang.so.14:clang_getFileTime
libclang.so.14:clang_getFileUniqueID
libclang.so.14:clang_getFunctionTypeCallingConv
libclang.so.14:clang_getIBOutletCollectionType
libclang.so.14:clang_getIncludedFile
libclang.so.14:clang_getInclusions
libclang.so.14:clang_getInstantiationLocation
libclang.so.14:clang_getLocation
libclang.so.14:clang_getLocationForOffset
libclang.so.14:clang_getModuleForFile
libclang.so.14:clang_getNullCursor
libclang.so.14:clang_getNullLocation
libclang.so.14:clang_getNullRange
libclang.so.14:clang_getNumArgTypes
libclang.so.14:clang_getNumCompletionChunks
libclang.so.14:clang_getNumDiagnostics
libclang.so.14:clang_getNumDiagnosticsInSet
libclang.so.14:clang_getNumElements
libclang.so.14:clang_getNumOverloadedDecls
libclang.so.14:clang_getOverloadedDecl
libclang.so.14:clang_getOverriddenCursors
libclang.so.14:clang_getPointeeType
libclang.so.14:clang_getPresumedLocation
libclang.so.14:clang_getRange
libclang.so.14:clang_getRangeEnd
libclang.so.14:clang_getRangeStart
libclang.so.14:clang_getRemappings
libclang.so.14:clang_getRemappingsFromFileList
libclang.so.14:clang_getResultType
libclang.so.14:clang_getSkippedRanges
libclang.so.14:clang_getSpecializedCursorTemplate
libclang.so.14:clang_getSpellingLocation
libclang.so.14:clang_getTUResourceUsageName
libclang.so.14:clang_getTemplateCursorKind
libclang.so.14:clang_getToken
libclang.so.14:clang_getTokenExtent
libclang.so.14:clang_getTokenKind
libclang.so.14:clang_getTokenLocation
libclang.so.14:clang_getTokenSpelling
libclang.so.14:clang_getTranslationUnitCursor
libclang.so.14:clang_getTranslationUnitSpelling
libclang.so.14:clang_getTranslationUnitTargetInfo
libclang.so.14:clang_getTypeDeclaration
libclang.so.14:clang_getTypeKindSpelling
libclang.so.14:clang_getTypeSpelling
libclang.so.14:clang_getTypedefDeclUnderlyingType
libclang.so.14:clang_getTypedefName
libclang.so.14:clang_hashCursor
libclang.so.14:clang_indexLoc_getCXSourceLocation
libclang.so.14:clang_indexLoc_getFileLocation
libclang.so.14:clang_indexSourceFile
libclang.so.14:clang_indexSourceFileFullArgv
libclang.so.14:clang_indexTranslationUnit
libclang.so.14:clang_index_getCXXClassDeclInfo
libclang.so.14:clang_index_getClientContainer
libclang.so.14:clang_index_getClientEntity
libclang.so.14:clang_index_getIBOutletCollectionAttrInfo
libclang.so.14:clang_index_getObjCCategoryDeclInfo
libclang.so.14:clang_index_getObjCContainerDeclInfo
libclang.so.14:clang_index_getObjCInterfaceDeclInfo
libclang.so.14:clang_index_getObjCPropertyDeclInfo
libclang.so.14:clang_index_getObjCProtocolRefListInfo
libclang.so.14:clang_index_isEntityObjCContainerKind
libclang.so.14:clang_index_setClientContainer
libclang.so.14:clang_index_setClientEntity
libclang.so.14:clang_install_aborting_llvm_fatal_error_handler
libclang.so.14:clang_isAttribute
libclang.so.14:clang_isConstQualifiedType
libclang.so.14:clang_isCursorDefinition
libclang.so.14:clang_isDeclaration
libclang.so.14:clang_isExpression
libclang.so.14:clang_isFileMultipleIncludeGuarded
libclang.so.14:clang_isFunctionTypeVariadic
libclang.so.14:clang_isInvalid
libclang.so.14:clang_isInvalidDeclaration
libclang.so.14:clang_isPODType
libclang.so.14:clang_isPreprocessing
libclang.so.14:clang_isReference
libclang.so.14:clang_isRestrictQualifiedType
libclang.so.14:clang_isStatement
libclang.so.14:clang_isTranslationUnit
libclang.so.14:clang_isUnexposed
libclang.so.14:clang_isVirtualBase
libclang.so.14:clang_isVolatileQualifiedType
libclang.so.14:clang_loadDiagnostics
libclang.so.14:clang_parseTranslationUnit
libclang.so.14:clang_parseTranslationUnit2
libclang.so.14:clang_parseTranslationUnit2FullArgv
libclang.so.14:clang_remap_dispose
libclang.so.14:clang_remap_getFilenames
libclang.so.14:clang_remap_getNumFiles
libclang.so.14:clang_reparseTranslationUnit
libclang.so.14:clang_saveTranslationUnit
libclang.so.14:clang_sortCodeCompletionResults
libclang.so.14:clang_suspendTranslationUnit
libclang.so.14:clang_toggleCrashRecovery
libclang.so.14:clang_tokenize
libclang.so.14:clang_uninstall_llvm_fatal_error_handler
libclang.so.14:clang_visitChildren
libclang.so.14:clang_visitChildrenWithBlock
liblldb.so.14:LLVM_14
liblldb.so.14:PyInit__lldb
liblldb.so.14:_ZN4lldb10SBDebugger10InitializeEv
liblldb.so.14:_ZN4lldb10SBDebugger11GetCategoryENS_12LanguageTypeE
liblldb.so.14:_ZN4lldb10SBDebugger11GetCategoryEPKc
liblldb.so.14:_ZN4lldb10SBDebugger11GetListenerEv
liblldb.so.14:_ZN4lldb10SBDebugger11SetUseColorEb
liblldb.so.14:_ZN4lldb10SBDebugger12CreateTargetEPKc
liblldb.so.14:_ZN4lldb10SBDebugger12CreateTargetEPKcS2_S2_bRNS_7SBErrorE
liblldb.so.14:_ZN4lldb10SBDebugger12DeleteTargetERNS_8SBTargetE
liblldb.so.14:_ZN4lldb10SBDebugger12GetErrorFileEv
liblldb.so.14:_ZN4lldb10SBDebugger12GetInputFileEv
liblldb.so.14:_ZN4lldb10SBDebugger12SetErrorFileENS_6SBFileE
liblldb.so.14:_ZN4lldb10SBDebugger12SetErrorFileESt10shared_ptrIN12lldb_private4FileEE
liblldb.so.14:_ZN4lldb10SBDebugger12SetInputFileENS_6SBFileE
liblldb.so.14:_ZN4lldb10SBDebugger12SetInputFileESt10shared_ptrIN12lldb_private4FileEE
liblldb.so.14:_ZN4lldb10SBDebugger13DispatchInputEPKvm
liblldb.so.14:_ZN4lldb10SBDebugger13DispatchInputEPvPKvm
liblldb.so.14:_ZN4lldb10SBDebugger13GetNumTargetsEv
liblldb.so.14:_ZN4lldb10SBDebugger13GetOutputFileEv
liblldb.so.14:_ZN4lldb10SBDebugger13HandleCommandEPKc
liblldb.so.14:_ZN4lldb10SBDebugger13SetOutputFileENS_6SBFileE
liblldb.so.14:_ZN4lldb10SBDebugger13SetOutputFileESt10shared_ptrIN12lldb_private4FileEE
liblldb.so.14:_ZN4lldb10SBDebugger14CreateCategoryEPKc
liblldb.so.14:_ZN4lldb10SBDebugger14DeleteCategoryEPKc
liblldb.so.14:_ZN4lldb10SBDebugger14GetBroadcasterEv
liblldb.so.14:_ZN4lldb10SBDebugger14GetDescriptionERNS_8SBStreamE
liblldb.so.14:_ZN4lldb10SBDebugger14GetDummyTargetEv
liblldb.so.14:_ZN4lldb10SBDebugger14SetInputStringEPKc
liblldb.so.14:_ZN4lldb10SBDebugger14StateAsCStringENS_9StateTypeE
liblldb.so.14:_ZN4lldb10SBDebugger15GetInstanceNameEv
liblldb.so.14:_ZN4lldb10SBDebugger15GetNumPlatformsEv
liblldb.so.14:_ZN4lldb10SBDebugger15PushInputReaderERNS_13SBInputReaderE
liblldb.so.14:_ZN4lldb10SBDebugger15SetREPLLanguageENS_12LanguageTypeE
liblldb.so.14:_ZN4lldb10SBDebugger16GetFilterForTypeENS_19SBTypeNameSpecifierE
liblldb.so.14:_ZN4lldb10SBDebugger16GetFormatForTypeENS_19SBTypeNameSpecifierE
liblldb.so.14:_ZN4lldb10SBDebugger16GetIndexOfTargetENS_8SBTargetE
liblldb.so.14:_ZN4lldb10SBDebugger16GetNumCategoriesEv
liblldb.so.14:_ZN4lldb10SBDebugger16GetSourceManagerEv
liblldb.so.14:_ZN4lldb10SBDebugger16GetTargetAtIndexEj
liblldb.so.14:_ZN4lldb10SBDebugger16GetVersionStringEv
liblldb.so.14:_ZN4lldb10SBDebugger16SetTerminalWidthEj
liblldb.so.14:_ZN4lldb10SBDebugger16SkipAppInitFilesEb
liblldb.so.14:_ZN4lldb10SBDebugger17GetSelectedTargetEv
liblldb.so.14:_ZN4lldb10SBDebugger17GetSummaryForTypeENS_19SBTypeNameSpecifierE
liblldb.so.14:_ZN4lldb10SBDebugger17SetScriptLanguageENS_14ScriptLanguageE
liblldb.so.14:_ZN4lldb10SBDebugger17SetSelectedTargetERNS_8SBTargetE
liblldb.so.14:_ZN4lldb10SBDebugger17SetUseSourceCacheEb
liblldb.so.14:_ZN4lldb10SBDebugger17SkipLLDBInitFilesEb
liblldb.so.14:_ZN4lldb10SBDebugger18FindDebuggerWithIDEi
liblldb.so.14:_ZN4lldb10SBDebugger18GetCategoryAtIndexEj
liblldb.so.14:_ZN4lldb10SBDebugger18GetDefaultCategoryEv
liblldb.so.14:_ZN4lldb10SBDebugger18GetErrorFileHandleEv
liblldb.so.14:_ZN4lldb10SBDebugger18GetInputFileHandleEv
liblldb.so.14:_ZN4lldb10SBDebugger18GetPlatformAtIndexEj
liblldb.so.14:_ZN4lldb10SBDebugger18HandleProcessEventERKNS_9SBProcessERKNS_7SBEventENS_6SBFileES7_
liblldb.so.14:_ZN4lldb10SBDebugger18HandleProcessEventERKNS_9SBProcessERKNS_7SBEventEP8_IO_FILES8_
liblldb.so.14:_ZN4lldb10SBDebugger18HandleProcessEventERKNS_9SBProcessERKNS_7SBEventESt10shared_ptrIN12lldb_private4FileEESA_
liblldb.so.14:_ZN4lldb10SBDebugger18SetCloseInputOnEOFEb
liblldb.so.14:_ZN4lldb10SBDebugger18SetCurrentPlatformEPKc
liblldb.so.14:_ZN4lldb10SBDebugger18SetErrorFileHandleEP8_IO_FILEb
liblldb.so.14:_ZN4lldb10SBDebugger18SetInputFileHandleEP8_IO_FILEb
liblldb.so.14:_ZN4lldb10SBDebugger18SetLoggingCallbackEPFvPKcPvES3_
liblldb.so.14:_ZN4lldb10SBDebugger19GetBroadcasterClassEv
liblldb.so.14:_ZN4lldb10SBDebugger19GetOutputFileHandleEv
liblldb.so.14:_ZN4lldb10SBDebugger19GetSelectedPlatformEv
liblldb.so.14:_ZN4lldb10SBDebugger19GetSyntheticForTypeENS_19SBTypeNameSpecifierE
liblldb.so.14:_ZN4lldb10SBDebugger19SetInternalVariableEPKcS2_S2_
liblldb.so.14:_ZN4lldb10SBDebugger19SetOutputFileHandleEP8_IO_FILEb
liblldb.so.14:_ZN4lldb10SBDebugger19SetSelectedPlatformERNS_10SBPlatformE
liblldb.so.14:_ZN4lldb10SBDebugger19StateIsRunningStateENS_9StateTypeE
liblldb.so.14:_ZN4lldb10SBDebugger19StateIsStoppedStateENS_9StateTypeE
liblldb.so.14:_ZN4lldb10SBDebugger20GetProgressFromEventERKNS_7SBEventERmS4_S4_Rb
liblldb.so.14:_ZN4lldb10SBDebugger20GetScriptingLanguageEPKc
liblldb.so.14:_ZN4lldb10SBDebugger20GetUseExternalEditorEv
liblldb.so.14:_ZN4lldb10SBDebugger20SetUseExternalEditorEb
liblldb.so.14:_ZN4lldb10SBDebugger21GetBuildConfigurationEv
liblldb.so.14:_ZN4lldb10SBDebugger21GetCommandInterpreterEv
liblldb.so.14:_ZN4lldb10SBDebugger21RunCommandInterpreterERKNS_30SBCommandInterpreterRunOptionsE
liblldb.so.14:_ZN4lldb10SBDebugger21RunCommandInterpreterEbb
liblldb.so.14:_ZN4lldb10SBDebugger21RunCommandInterpreterEbbRNS_30SBCommandInterpreterRunOptionsERiRbS4_
liblldb.so.14:_ZN4lldb10SBDebugger22DispatchInputEndOfFileEv
liblldb.so.14:_ZN4lldb10SBDebugger22DispatchInputInterruptEv
liblldb.so.14:_ZN4lldb10SBDebugger22GetDefaultArchitectureEPcm
liblldb.so.14:_ZN4lldb10SBDebugger22MemoryPressureDetectedEv
liblldb.so.14:_ZN4lldb10SBDebugger22SaveInputTerminalStateEv
liblldb.so.14:_ZN4lldb10SBDebugger22SetDefaultArchitectureEPKc
liblldb.so.14:_ZN4lldb10SBDebugger23FindTargetWithProcessIDEm
liblldb.so.14:_ZN4lldb10SBDebugger24GetInternalVariableValueEPKcS2_
liblldb.so.14:_ZN4lldb10SBDebugger24GetNumAvailablePlatformsEv
liblldb.so.14:_ZN4lldb10SBDebugger24GetScriptInterpreterInfoENS_14ScriptLanguageE
liblldb.so.14:_ZN4lldb10SBDebugger25FindTargetWithFileAndArchEPKcS2_
liblldb.so.14:_ZN4lldb10SBDebugger25FindTargetWithLLDBProcessERKSt10shared_ptrIN12lldb_private7ProcessEE
liblldb.so.14:_ZN4lldb10SBDebugger25RestoreInputTerminalStateEv
liblldb.so.14:_ZN4lldb10SBDebugger25SetCurrentPlatformSDKRootEPKc
liblldb.so.14:_ZN4lldb10SBDebugger27CreateTargetWithFileAndArchEPKcS2_
liblldb.so.14:_ZN4lldb10SBDebugger27InitializeWithErrorHandlingEv
liblldb.so.14:_ZN4lldb10SBDebugger31GetAvailablePlatformInfoAtIndexEj
liblldb.so.14:_ZN4lldb10SBDebugger35CreateTargetWithFileAndTargetTripleEPKcS2_
liblldb.so.14:_ZN4lldb10SBDebugger5ClearEv
liblldb.so.14:_ZN4lldb10SBDebugger5GetIDEv
liblldb.so.14:_ZN4lldb10SBDebugger5resetERKSt10shared_ptrIN12lldb_private8DebuggerEE
liblldb.so.14:_ZN4lldb10SBDebugger6CreateEb
liblldb.so.14:_ZN4lldb10SBDebugger6CreateEbPFvPKcPvES3_
liblldb.so.14:_ZN4lldb10SBDebugger6CreateEv
liblldb.so.14:_ZN4lldb10SBDebugger7DestroyERS0_
liblldb.so.14:_ZN4lldb10SBDebugger7RunREPLENS_12LanguageTypeEPKc
liblldb.so.14:_ZN4lldb10SBDebugger8GetAsyncEv
liblldb.so.14:_ZN4lldb10SBDebugger8SetAsyncEb
liblldb.so.14:_ZN4lldb10SBDebugger9EnableLogEPKcPS2_
liblldb.so.14:_ZN4lldb10SBDebugger9SetPromptEPKc
liblldb.so.14:_ZN4lldb10SBDebugger9TerminateEv
liblldb.so.14:_ZN4lldb10SBDebuggerC1ERKS0_
liblldb.so.14:_ZN4lldb10SBDebuggerC1ERKSt10shared_ptrIN12lldb_private8DebuggerEE
liblldb.so.14:_ZN4lldb10SBDebuggerC1Ev
liblldb.so.14:_ZN4lldb10SBDebuggerC2ERKS0_
liblldb.so.14:_ZN4lldb10SBDebuggerC2ERKSt10shared_ptrIN12lldb_private8DebuggerEE
liblldb.so.14:_ZN4lldb10SBDebuggerC2Ev
liblldb.so.14:_ZN4lldb10SBDebuggerD1Ev
liblldb.so.14:_ZN4lldb10SBDebuggerD2Ev
liblldb.so.14:_ZN4lldb10SBDebuggeraSERKS0_
liblldb.so.14:_ZN4lldb10SBFileSpec11ResolvePathEPKcPcm
liblldb.so.14:_ZN4lldb10SBFileSpec11SetFileSpecERKN12lldb_private8FileSpecE
liblldb.so.14:_ZN4lldb10SBFileSpec11SetFilenameEPKc
liblldb.so.14:_ZN4lldb10SBFileSpec12SetDirectoryEPKc
liblldb.so.14:_ZN4lldb10SBFileSpec19AppendPathComponentEPKc
liblldb.so.14:_ZN4lldb10SBFileSpec25ResolveExecutableLocationEv
liblldb.so.14:_ZN4lldb10SBFileSpecC1EPKc
liblldb.so.14:_ZN4lldb10SBFileSpecC1EPKcb
liblldb.so.14:_ZN4lldb10SBFileSpecC1ERKN12lldb_private8FileSpecE
liblldb.so.14:_ZN4lldb10SBFileSpecC1ERKS0_
liblldb.so.14:_ZN4lldb10SBFileSpecC1Ev
liblldb.so.14:_ZN4lldb10SBFileSpecC2EPKc
liblldb.so.14:_ZN4lldb10SBFileSpecC2EPKcb
liblldb.so.14:_ZN4lldb10SBFileSpecC2ERKN12lldb_private8FileSpecE
liblldb.so.14:_ZN4lldb10SBFileSpecC2ERKS0_
liblldb.so.14:_ZN4lldb10SBFileSpecC2Ev
liblldb.so.14:_ZN4lldb10SBFileSpecD1Ev
liblldb.so.14:_ZN4lldb10SBFileSpecD2Ev
liblldb.so.14:_ZN4lldb10SBFileSpecaSERKS0_
liblldb.so.14:_ZN4lldb10SBFunction11GetLanguageEv
liblldb.so.14:_ZN4lldb10SBFunction13GetEndAddressEv
liblldb.so.14:_ZN4lldb10SBFunction14GetDescriptionERNS_8SBStreamE
liblldb.so.14:_ZN4lldb10SBFunction14GetIsOptimizedEv
liblldb.so.14:_ZN4lldb10SBFunction15GetArgumentNameEj
liblldb.so.14:_ZN4lldb10SBFunction15GetInstructionsENS_8SBTargetE
liblldb.so.14:_ZN4lldb10SBFunction15GetInstructionsENS_8SBTargetEPKc
liblldb.so.14:_ZN4lldb10SBFunction15GetStartAddressEv
liblldb.so.14:_ZN4lldb10SBFunction19GetPrologueByteSizeEv
liblldb.so.14:_ZN4lldb10SBFunction3getEv
liblldb.so.14:_ZN4lldb10SBFunction5resetEPN12lldb_private8FunctionE
liblldb.so.14:_ZN4lldb10SBFunction7GetTypeEv
liblldb.so.14:_ZN4lldb10SBFunction8GetBlockEv
liblldb.so.14:_ZN4lldb10SBFunctionC1EPN12lldb_private8FunctionE
liblldb.so.14:_ZN4lldb10SBFunctionC1ERKS0_
liblldb.so.14:_ZN4lldb10SBFunctionC1Ev
liblldb.so.14:_ZN4lldb10SBFunctionC2EPN12lldb_private8FunctionE
liblldb.so.14:_ZN4lldb10SBFunctionC2ERKS0_
liblldb.so.14:_ZN4lldb10SBFunctionC2Ev
liblldb.so.14:_ZN4lldb10SBFunctionD1Ev
liblldb.so.14:_ZN4lldb10SBFunctionD2Ev
liblldb.so.14:_ZN4lldb10SBFunctionaSERKS0_
liblldb.so.14:_ZN4lldb10SBListener12GetNextEventERNS_7SBEventE
liblldb.so.14:_ZN4lldb10SBListener12WaitForEventEjRNS_7SBEventE
liblldb.so.14:_ZN4lldb10SBListener15PeekAtNextEventERNS_7SBEventE
liblldb.so.14:_ZN4lldb10SBListener20HandleBroadcastEventERKNS_7SBEventE
liblldb.so.14:_ZN4lldb10SBListener22StopListeningForEventsERKNS_13SBBroadcasterEj
liblldb.so.14:_ZN4lldb10SBListener23StartListeningForEventsERKNS_13SBBroadcasterEj
liblldb.so.14:_ZN4lldb10SBListener26GetNextEventForBroadcasterERKNS_13SBBroadcasterERNS_7SBEventE
liblldb.so.14:_ZN4lldb10SBListener26StopListeningForEventClassERNS_10SBDebuggerEPKcj
liblldb.so.14:_ZN4lldb10SBListener26WaitForEventForBroadcasterEjRKNS_13SBBroadcasterERNS_7SBEventE
liblldb.so.14:_ZN4lldb10SBListener27StartListeningForEventClassERNS_10SBDebuggerEPKcj
liblldb.so.14:_ZN4lldb10SBListener29PeekAtNextEventForBroadcasterERKNS_13SBBroadcasterERNS_7SBEventE
liblldb.so.14:_ZN4lldb10SBListener34GetNextEventForBroadcasterWithTypeERKNS_13SBBroadcasterEjRNS_7SBEventE
liblldb.so.14:_ZN4lldb10SBListener34WaitForEventForBroadcasterWithTypeEjRKNS_13SBBroadcasterEjRNS_7SBEventE
liblldb.so.14:_ZN4lldb10SBListener37PeekAtNextEventForBroadcasterWithTypeERKNS_13SBBroadcasterEjRNS_7SBEventE
liblldb.so.14:_ZN4lldb10SBListener5ClearEv
liblldb.so.14:_ZN4lldb10SBListener5GetSPEv
liblldb.so.14:_ZN4lldb10SBListener5resetESt10shared_ptrIN12lldb_private8ListenerEE
liblldb.so.14:_ZN4lldb10SBListener8AddEventERKNS_7SBEventE
liblldb.so.14:_ZN4lldb10SBListenerC1EPKc
liblldb.so.14:_ZN4lldb10SBListenerC1ERKS0_
liblldb.so.14:_ZN4lldb10SBListenerC1ERKSt10shared_ptrIN12lldb_private8ListenerEE
liblldb.so.14:_ZN4lldb10SBListenerC1Ev
liblldb.so.14:_ZN4lldb10SBListenerC2EPKc
liblldb.so.14:_ZN4lldb10SBListenerC2ERKS0_
liblldb.so.14:_ZN4lldb10SBListenerC2ERKSt10shared_ptrIN12lldb_private8ListenerEE
liblldb.so.14:_ZN4lldb10SBListenerC2Ev
liblldb.so.14:_ZN4lldb10SBListenerD1Ev
liblldb.so.14:_ZN4lldb10SBListenerD2Ev
liblldb.so.14:_ZN4lldb10SBListeneraSERKS0_
liblldb.so.14:_ZN4lldb10SBPlatform10GetOSBuildEv
liblldb.so.14:_ZN4lldb10SBPlatform10SetSDKRootEPKc
liblldb.so.14:_ZN4lldb10SBPlatform11GetHostnameEv
liblldb.so.14:_ZN4lldb10SBPlatform11IsConnectedEv
liblldb.so.14:_ZN4lldb10SBPlatform13ConnectRemoteERNS_24SBPlatformConnectOptionsE
liblldb.so.14:_ZN4lldb10SBPlatform13MakeDirectoryEPKcj
liblldb.so.14:_ZN4lldb10SBPlatform14GetEnvironmentEv
liblldb.so.14:_ZN4lldb10SBPlatform15GetHostPlatformEv
liblldb.so.14:_ZN4lldb10SBPlatform16DisconnectRemoteEv
liblldb.so.14:_ZN4lldb10SBPlatform16ExecuteConnectedERKSt8functionIFN12lldb_private6StatusERKSt10shared_ptrINS2_8PlatformEEEE
liblldb.so.14:_ZN4lldb10SBPlatform16GetOSDescriptionEv
liblldb.so.14:_ZN4lldb10SBPlatform17GetOSMajorVersionEv
liblldb.so.14:_ZN4lldb10SBPlatform17GetOSMinorVersionEv
liblldb.so.14:_ZN4lldb10SBPlatform18GetFilePermissionsEPKc
liblldb.so.14:_ZN4lldb10SBPlatform18GetOSUpdateVersionEv
liblldb.so.14:_ZN4lldb10SBPlatform18SetFilePermissionsEPKcj
liblldb.so.14:_ZN4lldb10SBPlatform19GetWorkingDirectoryEv
liblldb.so.14:_ZN4lldb10SBPlatform19SetWorkingDirectoryEPKc
liblldb.so.14:_ZN4lldb10SBPlatform3GetERNS_10SBFileSpecES2_
liblldb.so.14:_ZN4lldb10SBPlatform3PutERNS_10SBFileSpecES2_
liblldb.so.14:_ZN4lldb10SBPlatform3RunERNS_22SBPlatformShellCommandE
liblldb.so.14:_ZN4lldb10SBPlatform4KillEm
liblldb.so.14:_ZN4lldb10SBPlatform5ClearEv
liblldb.so.14:_ZN4lldb10SBPlatform5SetSPERKSt10shared_ptrIN12lldb_private8PlatformEE
liblldb.so.14:_ZN4lldb10SBPlatform6LaunchERNS_12SBLaunchInfoE
liblldb.so.14:_ZN4lldb10SBPlatform7GetNameEv
liblldb.so.14:_ZN4lldb10SBPlatform7InstallERNS_10SBFileSpecES2_
liblldb.so.14:_ZN4lldb10SBPlatform9GetTripleEv
liblldb.so.14:_ZN4lldb10SBPlatformC1EPKc
liblldb.so.14:_ZN4lldb10SBPlatformC1ERKS0_
liblldb.so.14:_ZN4lldb10SBPlatformC1Ev
liblldb.so.14:_ZN4lldb10SBPlatformC2EPKc
liblldb.so.14:_ZN4lldb10SBPlatformC2ERKS0_
liblldb.so.14:_ZN4lldb10SBPlatformC2Ev
liblldb.so.14:_ZN4lldb10SBPlatformD1Ev
liblldb.so.14:_ZN4lldb10SBPlatformD2Ev
liblldb.so.14:_ZN4lldb10SBPlatformaSERKS0_
liblldb.so.14:_ZN4lldb10SBTypeList14GetTypeAtIndexEj
liblldb.so.14:_ZN4lldb10SBTypeList6AppendENS_6SBTypeE
liblldb.so.14:_ZN4lldb10SBTypeList7GetSizeEv
liblldb.so.14:_ZN4lldb10SBTypeList7IsValidEv
liblldb.so.14:_ZN4lldb10SBTypeListC1ERKS0_
liblldb.so.14:_ZN4lldb10SBTypeListC1Ev
liblldb.so.14:_ZN4lldb10SBTypeListC2ERKS0_
liblldb.so.14:_ZN4lldb10SBTypeListC2Ev
liblldb.so.14:_ZN4lldb10SBTypeListD1Ev
liblldb.so.14:_ZN4lldb10SBTypeListD2Ev
liblldb.so.14:_ZN4lldb10SBTypeListaSERKS0_
liblldb.so.14:_ZN4lldb11SBLineEntry11SetFileSpecENS_10SBFileSpecE
liblldb.so.14:_ZN4lldb11SBLineEntry12SetLineEntryERKN12lldb_private9LineEntryE
liblldb.so.14:_ZN4lldb11SBLineEntry14GetDescriptionERNS_8SBStreamE
liblldb.so.14:_ZN4lldb11SBLineEntry3getEv
liblldb.so.14:_ZN4lldb11SBLineEntry3refEv
liblldb.so.14:_ZN4lldb11SBLineEntry7SetLineEj
liblldb.so.14:_ZN4lldb11SBLineEntry9SetColumnEj
liblldb.so.14:_ZN4lldb11SBLineEntryC1EPKN12lldb_private9LineEntryE
liblldb.so.14:_ZN4lldb11SBLineEntryC1ERKS0_
liblldb.so.14:_ZN4lldb11SBLineEntryC1Ev
liblldb.so.14:_ZN4lldb11SBLineEntryC2EPKN12lldb_private9LineEntryE
liblldb.so.14:_ZN4lldb11SBLineEntryC2ERKS0_
liblldb.so.14:_ZN4lldb11SBLineEntryC2Ev
liblldb.so.14:_ZN4lldb11SBLineEntryD1Ev
liblldb.so.14:_ZN4lldb11SBLineEntryD2Ev
liblldb.so.14:_ZN4lldb11SBLineEntryaSERKS0_
liblldb.so.14:_ZN4lldb11SBQueueItem10SetAddressENS_9SBAddressE
liblldb.so.14:_ZN4lldb11SBQueueItem12SetQueueItemERKSt10shared_ptrIN12lldb_private9QueueItemEE
liblldb.so.14:_ZN4lldb11SBQueueItem26GetExtendedBacktraceThreadEPKc
liblldb.so.14:_ZN4lldb11SBQueueItem5ClearEv
liblldb.so.14:_ZN4lldb11SBQueueItem7SetKindENS_13QueueItemKindE
liblldb.so.14:_ZN4lldb11SBQueueItemC1ERKSt10shared_ptrIN12lldb_private9QueueItemEE
liblldb.so.14:_ZN4lldb11SBQueueItemC1Ev
liblldb.so.14:_ZN4lldb11SBQueueItemC2ERKSt10shared_ptrIN12lldb_private9QueueItemEE
liblldb.so.14:_ZN4lldb11SBQueueItemC2Ev
liblldb.so.14:_ZN4lldb11SBQueueItemD1Ev
liblldb.so.14:_ZN4lldb11SBQueueItemD2Ev
liblldb.so.14:_ZN4lldb11SBValueList10opaque_ptrEv
liblldb.so.14:_ZN4lldb11SBValueList14CreateIfNeededEv
liblldb.so.14:_ZN4lldb11SBValueList20FindValueObjectByUIDEm
liblldb.so.14:_ZN4lldb11SBValueList3refEv
liblldb.so.14:_ZN4lldb11SBValueList5ClearEv
liblldb.so.14:_ZN4lldb11SBValueList6AppendERKNS_7SBValueE
liblldb.so.14:_ZN4lldb11SBValueList6AppendERKS0_
liblldb.so.14:_ZN4lldb11SBValueList6AppendERSt10shared_ptrIN12lldb_private11ValueObjectEE
liblldb.so.14:_ZN4lldb11SBValueListC1EPK13ValueListImpl
liblldb.so.14:_ZN4lldb11SBValueListC1ERKS0_
liblldb.so.14:_ZN4lldb11SBValueListC1Ev
liblldb.so.14:_ZN4lldb11SBValueListC2EPK13ValueListImpl
liblldb.so.14:_ZN4lldb11SBValueListC2ERKS0_
liblldb.so.14:_ZN4lldb11SBValueListC2Ev
liblldb.so.14:_ZN4lldb11SBValueListD1Ev
liblldb.so.14:_ZN4lldb11SBValueListD2Ev
liblldb.so.14:_ZN4lldb11SBValueListaSERKS0_
liblldb.so.14:_ZN4lldb11SBValueListdeEv
liblldb.so.14:_ZN4lldb11SBValueListptEv
liblldb.so.14:_ZN4lldb12SBAttachInfo10GetGroupIDEv
liblldb.so.14:_ZN4lldb12SBAttachInfo10SetGroupIDEj
liblldb.so.14:_ZN4lldb12SBAttachInfo11GetListenerEv
liblldb.so.14:_ZN4lldb12SBAttachInfo11SetListenerERNS_10SBListenerE
liblldb.so.14:_ZN4lldb12SBAttachInfo12GetProcessIDEv
liblldb.so.14:_ZN4lldb12SBAttachInfo12SetProcessIDEm
liblldb.so.14:_ZN4lldb12SBAttachInfo13SetExecutableENS_10SBFileSpecE
liblldb.so.14:_ZN4lldb12SBAttachInfo13SetExecutableEPKc
liblldb.so.14:_ZN4lldb12SBAttachInfo13UserIDIsValidEv
liblldb.so.14:_ZN4lldb12SBAttachInfo14GetResumeCountEv
liblldb.so.14:_ZN4lldb12SBAttachInfo14GroupIDIsValidEv
liblldb.so.14:_ZN4lldb12SBAttachInfo14SetResumeCountEj
liblldb.so.14:_ZN4lldb12SBAttachInfo16GetWaitForLaunchEv
liblldb.so.14:_ZN4lldb12SBAttachInfo16SetWaitForLaunchEb
liblldb.so.14:_ZN4lldb12SBAttachInfo16SetWaitForLaunchEbb
liblldb.so.14:_ZN4lldb12SBAttachInfo17GetIgnoreExistingEv
liblldb.so.14:_ZN4lldb12SBAttachInfo17SetIgnoreExistingEb
liblldb.so.14:_ZN4lldb12SBAttachInfo18GetEffectiveUserIDEv
liblldb.so.14:_ZN4lldb12SBAttachInfo18GetParentProcessIDEv
liblldb.so.14:_ZN4lldb12SBAttachInfo18SetEffectiveUserIDEj
liblldb.so.14:_ZN4lldb12SBAttachInfo18SetParentProcessIDEm
liblldb.so.14:_ZN4lldb12SBAttachInfo19GetEffectiveGroupIDEv
liblldb.so.14:_ZN4lldb12SBAttachInfo19SetEffectiveGroupIDEj
liblldb.so.14:_ZN4lldb12SBAttachInfo20GetProcessPluginNameEv
liblldb.so.14:_ZN4lldb12SBAttachInfo20SetProcessPluginNameEPKc
liblldb.so.14:_ZN4lldb12SBAttachInfo22EffectiveUserIDIsValidEv
liblldb.so.14:_ZN4lldb12SBAttachInfo22ParentProcessIDIsValidEv
liblldb.so.14:_ZN4lldb12SBAttachInfo23EffectiveGroupIDIsValidEv
liblldb.so.14:_ZN4lldb12SBAttachInfo3refEv
liblldb.so.14:_ZN4lldb12SBAttachInfo9GetUserIDEv
liblldb.so.14:_ZN4lldb12SBAttachInfo9SetUserIDEj
liblldb.so.14:_ZN4lldb12SBAttachInfoC1EPKcb
liblldb.so.14:_ZN4lldb12SBAttachInfoC1EPKcbb
liblldb.so.14:_ZN4lldb12SBAttachInfoC1ERKS0_
liblldb.so.14:_ZN4lldb12SBAttachInfoC1Em
liblldb.so.14:_ZN4lldb12SBAttachInfoC1Ev
liblldb.so.14:_ZN4lldb12SBAttachInfoC2EPKcb
liblldb.so.14:_ZN4lldb12SBAttachInfoC2EPKcbb
liblldb.so.14:_ZN4lldb12SBAttachInfoC2ERKS0_
liblldb.so.14:_ZN4lldb12SBAttachInfoC2Em
liblldb.so.14:_ZN4lldb12SBAttachInfoC2Ev
liblldb.so.14:_ZN4lldb12SBAttachInfoD1Ev
liblldb.so.14:_ZN4lldb12SBAttachInfoD2Ev
liblldb.so.14:_ZN4lldb12SBAttachInfoaSERKS0_
liblldb.so.14:_ZN4lldb12SBBreakpoint10IsInternalEv
liblldb.so.14:_ZN4lldb12SBBreakpoint10RemoveNameEPKc
liblldb.so.14:_ZN4lldb12SBBreakpoint10SetEnabledEb
liblldb.so.14:_ZN4lldb12SBBreakpoint10SetOneShotEb
liblldb.so.14:_ZN4lldb12SBBreakpoint11AddLocationERNS_9SBAddressE
liblldb.so.14:_ZN4lldb12SBBreakpoint11GetThreadIDEv
liblldb.so.14:_ZN4lldb12SBBreakpoint11MatchesNameEPKc
liblldb.so.14:_ZN4lldb12SBBreakpoint11SetCallbackEPFbPvRNS_9SBProcessERNS_8SBThreadERNS_20SBBreakpointLocationEES1_
liblldb.so.14:_ZN4lldb12SBBreakpoint11SetThreadIDEm
liblldb.so.14:_ZN4lldb12SBBreakpoint12GetConditionEv
liblldb.so.14:_ZN4lldb12SBBreakpoint12SetConditionEPKc
liblldb.so.14:_ZN4lldb12SBBreakpoint12SetQueueNameEPKc
liblldb.so.14:_ZN4lldb12SBBreakpoint13SetThreadNameEPKc
liblldb.so.14:_ZN4lldb12SBBreakpoint14GetDescriptionERNS_8SBStreamE
liblldb.so.14:_ZN4lldb12SBBreakpoint14GetDescriptionERNS_8SBStreamEb
liblldb.so.14:_ZN4lldb12SBBreakpoint14SetIgnoreCountEj
liblldb.so.14:_ZN4lldb12SBBreakpoint14SetThreadIndexEj
liblldb.so.14:_ZN4lldb12SBBreakpoint15GetAutoContinueEv
liblldb.so.14:_ZN4lldb12SBBreakpoint15SetAutoContinueEb
liblldb.so.14:_ZN4lldb12SBBreakpoint16FindLocationByIDEi
liblldb.so.14:_ZN4lldb12SBBreakpoint18GetLocationAtIndexEj
liblldb.so.14:_ZN4lldb12SBBreakpoint21FindLocationByAddressEm
liblldb.so.14:_ZN4lldb12SBBreakpoint21SetScriptCallbackBodyEPKc
liblldb.so.14:_ZN4lldb12SBBreakpoint22EventIsBreakpointEventERKNS_7SBEventE
liblldb.so.14:_ZN4lldb12SBBreakpoint22GetBreakpointFromEventERKNS_7SBEventE
liblldb.so.14:_ZN4lldb12SBBreakpoint22GetCommandLineCommandsERNS_12SBStringListE
liblldb.so.14:_ZN4lldb12SBBreakpoint22SetCommandLineCommandsERNS_12SBStringListE
liblldb.so.14:_ZN4lldb12SBBreakpoint23ClearAllBreakpointSitesEv
liblldb.so.14:_ZN4lldb12SBBreakpoint23FindLocationIDByAddressEm
liblldb.so.14:_ZN4lldb12SBBreakpoint24AddNameWithErrorHandlingEPKc
liblldb.so.14:_ZN4lldb12SBBreakpoint25SerializeToStructuredDataEv
liblldb.so.14:_ZN4lldb12SBBreakpoint25SetScriptCallbackFunctionEPKc
liblldb.so.14:_ZN4lldb12SBBreakpoint25SetScriptCallbackFunctionEPKcRNS_16SBStructuredDataE
liblldb.so.14:_ZN4lldb12SBBreakpoint31GetBreakpointEventTypeFromEventERKNS_7SBEventE
liblldb.so.14:_ZN4lldb12SBBreakpoint34GetNumBreakpointLocationsFromEventERKNS_7SBEventE
liblldb.so.14:_ZN4lldb12SBBreakpoint37GetBreakpointLocationAtIndexFromEventERKNS_7SBEventEj
liblldb.so.14:_ZN4lldb12SBBreakpoint7AddNameEPKc
liblldb.so.14:_ZN4lldb12SBBreakpoint8GetNamesERNS_12SBStringListE
liblldb.so.14:_ZN4lldb12SBBreakpoint9IsEnabledEv
liblldb.so.14:_ZN4lldb12SBBreakpointC1ERKS0_
liblldb.so.14:_ZN4lldb12SBBreakpointC1ERKSt10shared_ptrIN12lldb_private10BreakpointEE
liblldb.so.14:_ZN4lldb12SBBreakpointC1Ev
liblldb.so.14:_ZN4lldb12SBBreakpointC2ERKS0_
liblldb.so.14:_ZN4lldb12SBBreakpointC2ERKSt10shared_ptrIN12lldb_private10BreakpointEE
liblldb.so.14:_ZN4lldb12SBBreakpointC2Ev
liblldb.so.14:_ZN4lldb12SBBreakpointD1Ev
liblldb.so.14:_ZN4lldb12SBBreakpointD2Ev
liblldb.so.14:_ZN4lldb12SBBreakpointaSERKS0_
liblldb.so.14:_ZN4lldb12SBBreakpointeqERKS0_
liblldb.so.14:_ZN4lldb12SBBreakpointneERKS0_
liblldb.so.14:_ZN4lldb12SBLaunchInfo10GetGroupIDEv
liblldb.so.14:_ZN4lldb12SBLaunchInfo10SetGroupIDEj
liblldb.so.14:_ZN4lldb12SBLaunchInfo11GetListenerEv
liblldb.so.14:_ZN4lldb12SBLaunchInfo11SetListenerERNS_10SBListenerE
liblldb.so.14:_ZN4lldb12SBLaunchInfo12GetProcessIDEv
liblldb.so.14:_ZN4lldb12SBLaunchInfo12SetArgumentsEPPKcb
liblldb.so.14:_ZN4lldb12SBLaunchInfo13UserIDIsValidEv
liblldb.so.14:_ZN4lldb12SBLaunchInfo14GetEnvironmentEv
liblldb.so.14:_ZN4lldb12SBLaunchInfo14GetLaunchFlagsEv
liblldb.so.14:_ZN4lldb12SBLaunchInfo14GetResumeCountEv
liblldb.so.14:_ZN4lldb12SBLaunchInfo14GroupIDIsValidEv
liblldb.so.14:_ZN4lldb12SBLaunchInfo14SetEnvironmentERKNS_13SBEnvironmentEb
liblldb.so.14:_ZN4lldb12SBLaunchInfo14SetLaunchFlagsEj
liblldb.so.14:_ZN4lldb12SBLaunchInfo14SetResumeCountEj
liblldb.so.14:_ZN4lldb12SBLaunchInfo15GetNumArgumentsEv
liblldb.so.14:_ZN4lldb12SBLaunchInfo16SetDetachOnErrorEb
liblldb.so.14:_ZN4lldb12SBLaunchInfo17AddOpenFileActionEiPKcbb
liblldb.so.14:_ZN4lldb12SBLaunchInfo17GetExecutableFileEv
liblldb.so.14:_ZN4lldb12SBLaunchInfo17SetExecutableFileENS_10SBFileSpecEb
liblldb.so.14:_ZN4lldb12SBLaunchInfo18AddCloseFileActionEi
liblldb.so.14:_ZN4lldb12SBLaunchInfo18GetArgumentAtIndexEj
liblldb.so.14:_ZN4lldb12SBLaunchInfo18SetLaunchEventDataEPKc
liblldb.so.14:_ZN4lldb12SBLaunchInfo19SetWorkingDirectoryEPKc
liblldb.so.14:_ZN4lldb12SBLaunchInfo20GetProcessPluginNameEv
liblldb.so.14:_ZN4lldb12SBLaunchInfo20SetProcessPluginNameEPKc
liblldb.so.14:_ZN4lldb12SBLaunchInfo21AddSuppressFileActionEibb
liblldb.so.14:_ZN4lldb12SBLaunchInfo21SetEnvironmentEntriesEPPKcb
liblldb.so.14:_ZN4lldb12SBLaunchInfo22AddDuplicateFileActionEii
liblldb.so.14:_ZN4lldb12SBLaunchInfo23GetShellExpandArgumentsEv
liblldb.so.14:_ZN4lldb12SBLaunchInfo23SetShellExpandArgumentsEb
liblldb.so.14:_ZN4lldb12SBLaunchInfo24GetNumEnvironmentEntriesEv
liblldb.so.14:_ZN4lldb12SBLaunchInfo26GetEnvironmentEntryAtIndexEj
liblldb.so.14:_ZN4lldb12SBLaunchInfo27SetScriptedProcessClassNameEPKc
liblldb.so.14:_ZN4lldb12SBLaunchInfo28SetScriptedProcessDictionaryENS_16SBStructuredDataE
liblldb.so.14:_ZN4lldb12SBLaunchInfo5ClearEv
liblldb.so.14:_ZN4lldb12SBLaunchInfo7set_refERKN12lldb_private17ProcessLaunchInfoE
liblldb.so.14:_ZN4lldb12SBLaunchInfo8GetShellEv
liblldb.so.14:_ZN4lldb12SBLaunchInfo8SetShellEPKc
liblldb.so.14:_ZN4lldb12SBLaunchInfo9GetUserIDEv
liblldb.so.14:_ZN4lldb12SBLaunchInfo9SetUserIDEj
liblldb.so.14:_ZN4lldb12SBLaunchInfoC1EPPKc
liblldb.so.14:_ZN4lldb12SBLaunchInfoC1ERKS0_
liblldb.so.14:_ZN4lldb12SBLaunchInfoC2EPPKc
liblldb.so.14:_ZN4lldb12SBLaunchInfoC2ERKS0_
liblldb.so.14:_ZN4lldb12SBLaunchInfoD1Ev
liblldb.so.14:_ZN4lldb12SBLaunchInfoD2Ev
liblldb.so.14:_ZN4lldb12SBLaunchInfoaSERKS0_
liblldb.so.14:_ZN4lldb12SBModuleSpec11GetFileSpecEv
liblldb.so.14:_ZN4lldb12SBModuleSpec11SetFileSpecERKNS_10SBFileSpecE
liblldb.so.14:_ZN4lldb12SBModuleSpec12GetUUIDBytesEv
liblldb.so.14:_ZN4lldb12SBModuleSpec12SetUUIDBytesEPKhm
liblldb.so.14:_ZN4lldb12SBModuleSpec13GetObjectNameEv
liblldb.so.14:_ZN4lldb12SBModuleSpec13GetUUIDLengthEv
liblldb.so.14:_ZN4lldb12SBModuleSpec13SetObjectNameEPKc
liblldb.so.14:_ZN4lldb12SBModuleSpec14GetDescriptionERNS_8SBStreamE
liblldb.so.14:_ZN4lldb12SBModuleSpec17GetSymbolFileSpecEv
liblldb.so.14:_ZN4lldb12SBModuleSpec17SetSymbolFileSpecERKNS_10SBFileSpecE
liblldb.so.14:_ZN4lldb12SBModuleSpec19GetPlatformFileSpecEv
liblldb.so.14:_ZN4lldb12SBModuleSpec19SetPlatformFileSpecERKNS_10SBFileSpecE
liblldb.so.14:_ZN4lldb12SBModuleSpec5ClearEv
liblldb.so.14:_ZN4lldb12SBModuleSpec9GetTripleEv
liblldb.so.14:_ZN4lldb12SBModuleSpec9SetTripleEPKc
liblldb.so.14:_ZN4lldb12SBModuleSpecC1ERKS0_
liblldb.so.14:_ZN4lldb12SBModuleSpecC1Ev
liblldb.so.14:_ZN4lldb12SBModuleSpecC2ERKS0_
liblldb.so.14:_ZN4lldb12SBModuleSpecC2Ev
liblldb.so.14:_ZN4lldb12SBModuleSpecD1Ev
liblldb.so.14:_ZN4lldb12SBModuleSpecD2Ev
liblldb.so.14:_ZN4lldb12SBModuleSpecaSERKS0_
liblldb.so.14:_ZN4lldb12SBReproducer13PassiveReplayEPKc
liblldb.so.14:_ZN4lldb12SBReproducer15SetAutoGenerateEb
liblldb.so.14:_ZN4lldb12SBReproducer19SetWorkingDirectoryEPKc
liblldb.so.14:_ZN4lldb12SBReproducer6ReplayEPKc
liblldb.so.14:_ZN4lldb12SBReproducer6ReplayEPKcRKNS_15SBReplayOptionsE
liblldb.so.14:_ZN4lldb12SBReproducer6ReplayEPKcb
liblldb.so.14:_ZN4lldb12SBReproducer7CaptureEPKc
liblldb.so.14:_ZN4lldb12SBReproducer7CaptureEv
liblldb.so.14:_ZN4lldb12SBReproducer7GetPathEv
liblldb.so.14:_ZN4lldb12SBReproducer8FinalizeEPKc
liblldb.so.14:_ZN4lldb12SBReproducer8GenerateEv
liblldb.so.14:_ZN4lldb12SBStringList10AppendListEPPKci
liblldb.so.14:_ZN4lldb12SBStringList10AppendListERKN12lldb_private10StringListE
liblldb.so.14:_ZN4lldb12SBStringList10AppendListERKS0_
liblldb.so.14:_ZN4lldb12SBStringList12AppendStringEPKc
liblldb.so.14:_ZN4lldb12SBStringList16GetStringAtIndexEm
liblldb.so.14:_ZN4lldb12SBStringList5ClearEv
liblldb.so.14:_ZN4lldb12SBStringListC1EPKN12lldb_private10StringListE
liblldb.so.14:_ZN4lldb12SBStringListC1ERKS0_
liblldb.so.14:_ZN4lldb12SBStringListC1Ev
liblldb.so.14:_ZN4lldb12SBStringListC2EPKN12lldb_private10StringListE
liblldb.so.14:_ZN4lldb12SBStringListC2ERKS0_
liblldb.so.14:_ZN4lldb12SBStringListC2Ev
liblldb.so.14:_ZN4lldb12SBStringListD1Ev
liblldb.so.14:_ZN4lldb12SBStringListD2Ev
liblldb.so.14:_ZN4lldb12SBStringListaSERKS0_
liblldb.so.14:_ZN4lldb12SBThreadPlan11IsPlanStaleEv
liblldb.so.14:_ZN4lldb12SBThreadPlan13GetStopOthersEv
liblldb.so.14:_ZN4lldb12SBThreadPlan13GetStopReasonEv
liblldb.so.14:_ZN4lldb12SBThreadPlan13SetStopOthersEb
liblldb.so.14:_ZN4lldb12SBThreadPlan13SetThreadPlanERKSt10shared_ptrIN12lldb_private10ThreadPlanEE
liblldb.so.14:_ZN4lldb12SBThreadPlan14IsPlanCompleteEv
liblldb.so.14:_ZN4lldb12SBThreadPlan15SetPlanCompleteEb
liblldb.so.14:_ZN4lldb12SBThreadPlan22GetStopReasonDataCountEv
liblldb.so.14:_ZN4lldb12SBThreadPlan24GetStopReasonDataAtIndexEj
liblldb.so.14:_ZN4lldb12SBThreadPlan25QueueThreadPlanForStepOutEjb
liblldb.so.14:_ZN4lldb12SBThreadPlan25QueueThreadPlanForStepOutEjbRNS_7SBErrorE
liblldb.so.14:_ZN4lldb12SBThreadPlan29QueueThreadPlanForStepInRangeERNS_9SBAddressEm
liblldb.so.14:_ZN4lldb12SBThreadPlan29QueueThreadPlanForStepInRangeERNS_9SBAddressEmRNS_7SBErrorE
liblldb.so.14:_ZN4lldb12SBThreadPlan30QueueThreadPlanForRunToAddressENS_9SBAddressE
liblldb.so.14:_ZN4lldb12SBThreadPlan30QueueThreadPlanForRunToAddressENS_9SBAddressERNS_7SBErrorE
liblldb.so.14:_ZN4lldb12SBThreadPlan30QueueThreadPlanForStepScriptedEPKc
liblldb.so.14:_ZN4lldb12SBThreadPlan30QueueThreadPlanForStepScriptedEPKcRNS_16SBStructuredDataERNS_7SBErrorE
liblldb.so.14:_ZN4lldb12SBThreadPlan30QueueThreadPlanForStepScriptedEPKcRNS_7SBErrorE
liblldb.so.14:_ZN4lldb12SBThreadPlan31QueueThreadPlanForStepOverRangeERNS_9SBAddressEm
liblldb.so.14:_ZN4lldb12SBThreadPlan31QueueThreadPlanForStepOverRangeERNS_9SBAddressEmRNS_7SBErrorE
liblldb.so.14:_ZN4lldb12SBThreadPlan5ClearEv
liblldb.so.14:_ZN4lldb12SBThreadPlan7IsValidEv
liblldb.so.14:_ZN4lldb12SBThreadPlanC1ERKS0_
liblldb.so.14:_ZN4lldb12SBThreadPlanC1ERKSt10shared_ptrIN12lldb_private10ThreadPlanEE
liblldb.so.14:_ZN4lldb12SBThreadPlanC1ERNS_8SBThreadEPKc
liblldb.so.14:_ZN4lldb12SBThreadPlanC1ERNS_8SBThreadEPKcRNS_16SBStructuredDataE
liblldb.so.14:_ZN4lldb12SBThreadPlanC1Ev
liblldb.so.14:_ZN4lldb12SBThreadPlanC2ERKS0_
liblldb.so.14:_ZN4lldb12SBThreadPlanC2ERKSt10shared_ptrIN12lldb_private10ThreadPlanEE
liblldb.so.14:_ZN4lldb12SBThreadPlanC2ERNS_8SBThreadEPKc
liblldb.so.14:_ZN4lldb12SBThreadPlanC2ERNS_8SBThreadEPKcRNS_16SBStructuredDataE
liblldb.so.14:_ZN4lldb12SBThreadPlanC2Ev
liblldb.so.14:_ZN4lldb12SBThreadPlanD1Ev
liblldb.so.14:_ZN4lldb12SBThreadPlanD2Ev
liblldb.so.14:_ZN4lldb12SBThreadPlanaSERKS0_
liblldb.so.14:_ZN4lldb12SBTypeFilter10GetOptionsEv
liblldb.so.14:_ZN4lldb12SBTypeFilter10SetOptionsEj
liblldb.so.14:_ZN4lldb12SBTypeFilter14GetDescriptionERNS_8SBStreamENS_16DescriptionLevelE
liblldb.so.14:_ZN4lldb12SBTypeFilter16CopyOnWrite_ImplEv
liblldb.so.14:_ZN4lldb12SBTypeFilter20AppendExpressionPathEPKc
liblldb.so.14:_ZN4lldb12SBTypeFilter24GetExpressionPathAtIndexEj
liblldb.so.14:_ZN4lldb12SBTypeFilter26GetNumberOfExpressionPathsEv
liblldb.so.14:_ZN4lldb12SBTypeFilter28ReplaceExpressionPathAtIndexEjPKc
liblldb.so.14:_ZN4lldb12SBTypeFilter5ClearEv
liblldb.so.14:_ZN4lldb12SBTypeFilter5GetSPEv
liblldb.so.14:_ZN4lldb12SBTypeFilter5SetSPERKSt10shared_ptrIN12lldb_private14TypeFilterImplEE
liblldb.so.14:_ZN4lldb12SBTypeFilter9IsEqualToERS0_
liblldb.so.14:_ZN4lldb12SBTypeFilterC1ERKS0_
liblldb.so.14:_ZN4lldb12SBTypeFilterC1ERKSt10shared_ptrIN12lldb_private14TypeFilterImplEE
liblldb.so.14:_ZN4lldb12SBTypeFilterC1Ej
liblldb.so.14:_ZN4lldb12SBTypeFilterC1Ev
liblldb.so.14:_ZN4lldb12SBTypeFilterC2ERKS0_
liblldb.so.14:_ZN4lldb12SBTypeFilterC2ERKSt10shared_ptrIN12lldb_private14TypeFilterImplEE
liblldb.so.14:_ZN4lldb12SBTypeFilterC2Ej
liblldb.so.14:_ZN4lldb12SBTypeFilterC2Ev
liblldb.so.14:_ZN4lldb12SBTypeFilterD1Ev
liblldb.so.14:_ZN4lldb12SBTypeFilterD2Ev
liblldb.so.14:_ZN4lldb12SBTypeFilteraSERKS0_
liblldb.so.14:_ZN4lldb12SBTypeFiltereqERS0_
liblldb.so.14:_ZN4lldb12SBTypeFilterneERS0_
liblldb.so.14:_ZN4lldb12SBTypeFormat10GetOptionsEv
liblldb.so.14:_ZN4lldb12SBTypeFormat10SetOptionsEj
liblldb.so.14:_ZN4lldb12SBTypeFormat11GetTypeNameEv
liblldb.so.14:_ZN4lldb12SBTypeFormat11SetTypeNameEPKc
liblldb.so.14:_ZN4lldb12SBTypeFormat14GetDescriptionERNS_8SBStreamENS_16DescriptionLevelE
liblldb.so.14:_ZN4lldb12SBTypeFormat16CopyOnWrite_ImplENS0_4TypeE
liblldb.so.14:_ZN4lldb12SBTypeFormat5GetSPEv
liblldb.so.14:_ZN4lldb12SBTypeFormat5SetSPERKSt10shared_ptrIN12lldb_private14TypeFormatImplEE
liblldb.so.14:_ZN4lldb12SBTypeFormat9GetFormatEv
liblldb.so.14:_ZN4lldb12SBTypeFormat9IsEqualToERS0_
liblldb.so.14:_ZN4lldb12SBTypeFormat9SetFormatENS_6FormatE
liblldb.so.14:_ZN4lldb12SBTypeFormatC1ENS_6FormatEj
liblldb.so.14:_ZN4lldb12SBTypeFormatC1EPKcj
liblldb.so.14:_ZN4lldb12SBTypeFormatC1ERKS0_
liblldb.so.14:_ZN4lldb12SBTypeFormatC1ERKSt10shared_ptrIN12lldb_private14TypeFormatImplEE
liblldb.so.14:_ZN4lldb12SBTypeFormatC1Ev
liblldb.so.14:_ZN4lldb12SBTypeFormatC2ENS_6FormatEj
liblldb.so.14:_ZN4lldb12SBTypeFormatC2EPKcj
liblldb.so.14:_ZN4lldb12SBTypeFormatC2ERKS0_
liblldb.so.14:_ZN4lldb12SBTypeFormatC2ERKSt10shared_ptrIN12lldb_private14TypeFormatImplEE
liblldb.so.14:_ZN4lldb12SBTypeFormatC2Ev
liblldb.so.14:_ZN4lldb12SBTypeFormatD1Ev
liblldb.so.14:_ZN4lldb12SBTypeFormatD2Ev
liblldb.so.14:_ZN4lldb12SBTypeFormataSERKS0_
liblldb.so.14:_ZN4lldb12SBTypeFormateqERS0_
liblldb.so.14:_ZN4lldb12SBTypeFormatneERS0_
liblldb.so.14:_ZN4lldb12SBTypeMember10IsBitfieldEv
liblldb.so.14:_ZN4lldb12SBTypeMember14GetDescriptionERNS_8SBStreamENS_16DescriptionLevelE
liblldb.so.14:_ZN4lldb12SBTypeMember15GetOffsetInBitsEv
liblldb.so.14:_ZN4lldb12SBTypeMember16GetOffsetInBytesEv
liblldb.so.14:_ZN4lldb12SBTypeMember21GetBitfieldSizeInBitsEv
liblldb.so.14:_ZN4lldb12SBTypeMember3refEv
liblldb.so.14:_ZN4lldb12SBTypeMember5resetEPN12lldb_private14TypeMemberImplE
liblldb.so.14:_ZN4lldb12SBTypeMember7GetNameEv
liblldb.so.14:_ZN4lldb12SBTypeMember7GetTypeEv
liblldb.so.14:_ZN4lldb12SBTypeMemberC1ERKS0_
liblldb.so.14:_ZN4lldb12SBTypeMemberC1Ev
liblldb.so.14:_ZN4lldb12SBTypeMemberC2ERKS0_
liblldb.so.14:_ZN4lldb12SBTypeMemberC2Ev
liblldb.so.14:_ZN4lldb12SBTypeMemberD1Ev
liblldb.so.14:_ZN4lldb12SBTypeMemberD2Ev
liblldb.so.14:_ZN4lldb12SBTypeMemberaSERKS0_
liblldb.so.14:_ZN4lldb12SBWatchpoint10SetEnabledEb
liblldb.so.14:_ZN4lldb12SBWatchpoint11GetHitCountEv
liblldb.so.14:_ZN4lldb12SBWatchpoint12GetConditionEv
liblldb.so.14:_ZN4lldb12SBWatchpoint12GetWatchSizeEv
liblldb.so.14:_ZN4lldb12SBWatchpoint12SetConditionEPKc
liblldb.so.14:_ZN4lldb12SBWatchpoint14GetDescriptionERNS_8SBStreamENS_16DescriptionLevelE
liblldb.so.14:_ZN4lldb12SBWatchpoint14GetIgnoreCountEv
liblldb.so.14:_ZN4lldb12SBWatchpoint14SetIgnoreCountEj
liblldb.so.14:_ZN4lldb12SBWatchpoint15GetWatchAddressEv
liblldb.so.14:_ZN4lldb12SBWatchpoint16GetHardwareIndexEv
liblldb.so.14:_ZN4lldb12SBWatchpoint22EventIsWatchpointEventERKNS_7SBEventE
liblldb.so.14:_ZN4lldb12SBWatchpoint22GetWatchpointFromEventERKNS_7SBEventE
liblldb.so.14:_ZN4lldb12SBWatchpoint31GetWatchpointEventTypeFromEventERKNS_7SBEventE
liblldb.so.14:_ZN4lldb12SBWatchpoint5ClearEv
liblldb.so.14:_ZN4lldb12SBWatchpoint5GetIDEv
liblldb.so.14:_ZN4lldb12SBWatchpoint5SetSPERKSt10shared_ptrIN12lldb_private10WatchpointEE
liblldb.so.14:_ZN4lldb12SBWatchpoint8GetErrorEv
liblldb.so.14:_ZN4lldb12SBWatchpoint9IsEnabledEv
liblldb.so.14:_ZN4lldb12SBWatchpointC1ERKS0_
liblldb.so.14:_ZN4lldb12SBWatchpointC1ERKSt10shared_ptrIN12lldb_private10WatchpointEE
liblldb.so.14:_ZN4lldb12SBWatchpointC1Ev
liblldb.so.14:_ZN4lldb12SBWatchpointC2ERKS0_
liblldb.so.14:_ZN4lldb12SBWatchpointC2ERKSt10shared_ptrIN12lldb_private10WatchpointEE
liblldb.so.14:_ZN4lldb12SBWatchpointC2Ev
liblldb.so.14:_ZN4lldb12SBWatchpointD1Ev
liblldb.so.14:_ZN4lldb12SBWatchpointD2Ev
liblldb.so.14:_ZN4lldb12SBWatchpointaSERKS0_
liblldb.so.14:_ZN4lldb13SBBroadcaster11AddListenerERKNS_10SBListenerEj
liblldb.so.14:_ZN4lldb13SBBroadcaster14BroadcastEventERKNS_7SBEventEb
liblldb.so.14:_ZN4lldb13SBBroadcaster14RemoveListenerERKNS_10SBListenerEj
liblldb.so.14:_ZN4lldb13SBBroadcaster20BroadcastEventByTypeEjb
liblldb.so.14:_ZN4lldb13SBBroadcaster21EventTypeHasListenersEj
liblldb.so.14:_ZN4lldb13SBBroadcaster26AddInitialEventsToListenerERKNS_10SBListenerEj
liblldb.so.14:_ZN4lldb13SBBroadcaster5ClearEv
liblldb.so.14:_ZN4lldb13SBBroadcaster5resetEPN12lldb_private11BroadcasterEb
liblldb.so.14:_ZN4lldb13SBBroadcasterC1EPKc
liblldb.so.14:_ZN4lldb13SBBroadcasterC1EPN12lldb_private11BroadcasterEb
liblldb.so.14:_ZN4lldb13SBBroadcasterC1ERKS0_
liblldb.so.14:_ZN4lldb13SBBroadcasterC1Ev
liblldb.so.14:_ZN4lldb13SBBroadcasterC2EPKc
liblldb.so.14:_ZN4lldb13SBBroadcasterC2EPN12lldb_private11BroadcasterEb
liblldb.so.14:_ZN4lldb13SBBroadcasterC2ERKS0_
liblldb.so.14:_ZN4lldb13SBBroadcasterC2Ev
liblldb.so.14:_ZN4lldb13SBBroadcasterD1Ev
liblldb.so.14:_ZN4lldb13SBBroadcasterD2Ev
liblldb.so.14:_ZN4lldb13SBBroadcasteraSERKS0_
liblldb.so.14:_ZN4lldb13SBCompileUnit11GetLanguageEv
liblldb.so.14:_ZN4lldb13SBCompileUnit14GetDescriptionERNS_8SBStreamE
liblldb.so.14:_ZN4lldb13SBCompileUnit20FindSupportFileIndexEjRKNS_10SBFileSpecEb
liblldb.so.14:_ZN4lldb13SBCompileUnit3getEv
liblldb.so.14:_ZN4lldb13SBCompileUnit5resetEPN12lldb_private11CompileUnitE
liblldb.so.14:_ZN4lldb13SBCompileUnit8GetTypesEj
liblldb.so.14:_ZN4lldb13SBCompileUnitC1EPN12lldb_private11CompileUnitE
liblldb.so.14:_ZN4lldb13SBCompileUnitC1ERKS0_
liblldb.so.14:_ZN4lldb13SBCompileUnitC1Ev
liblldb.so.14:_ZN4lldb13SBCompileUnitC2EPN12lldb_private11CompileUnitE
liblldb.so.14:_ZN4lldb13SBCompileUnitC2ERKS0_
liblldb.so.14:_ZN4lldb13SBCompileUnitC2Ev
liblldb.so.14:_ZN4lldb13SBCompileUnitD1Ev
liblldb.so.14:_ZN4lldb13SBCompileUnitD2Ev
liblldb.so.14:_ZN4lldb13SBCompileUnitaSERKS0_
liblldb.so.14:_ZN4lldb13SBDeclaration11SetFileSpecENS_10SBFileSpecE
liblldb.so.14:_ZN4lldb13SBDeclaration14GetDescriptionERNS_8SBStreamE
liblldb.so.14:_ZN4lldb13SBDeclaration14SetDeclarationERKN12lldb_private11DeclarationE
liblldb.so.14:_ZN4lldb13SBDeclaration3getEv
liblldb.so.14:_ZN4lldb13SBDeclaration3refEv
liblldb.so.14:_ZN4lldb13SBDeclaration7SetLineEj
liblldb.so.14:_ZN4lldb13SBDeclaration9SetColumnEj
liblldb.so.14:_ZN4lldb13SBDeclarationC1EPKN12lldb_private11DeclarationE
liblldb.so.14:_ZN4lldb13SBDeclarationC1ERKS0_
liblldb.so.14:_ZN4lldb13SBDeclarationC1Ev
liblldb.so.14:_ZN4lldb13SBDeclarationC2EPKN12lldb_private11DeclarationE
liblldb.so.14:_ZN4lldb13SBDeclarationC2ERKS0_
liblldb.so.14:_ZN4lldb13SBDeclarationC2Ev
liblldb.so.14:_ZN4lldb13SBDeclarationD1Ev
liblldb.so.14:_ZN4lldb13SBDeclarationD2Ev
liblldb.so.14:_ZN4lldb13SBDeclarationaSERKS0_
liblldb.so.14:_ZN4lldb13SBEnvironment10GetEntriesEv
liblldb.so.14:_ZN4lldb13SBEnvironment10SetEntriesERKNS_12SBStringListEb
liblldb.so.14:_ZN4lldb13SBEnvironment12GetNumValuesEv
liblldb.so.14:_ZN4lldb13SBEnvironment14GetNameAtIndexEm
liblldb.so.14:_ZN4lldb13SBEnvironment15GetValueAtIndexEm
liblldb.so.14:_ZN4lldb13SBEnvironment3GetEPKc
liblldb.so.14:_ZN4lldb13SBEnvironment3SetEPKcS2_b
liblldb.so.14:_ZN4lldb13SBEnvironment5ClearEv
liblldb.so.14:_ZN4lldb13SBEnvironment5UnsetEPKc
liblldb.so.14:_ZN4lldb13SBEnvironment8PutEntryEPKc
liblldb.so.14:_ZN4lldb13SBEnvironmentC1EN12lldb_private11EnvironmentE
liblldb.so.14:_ZN4lldb13SBEnvironmentC1ERKS0_
liblldb.so.14:_ZN4lldb13SBEnvironmentC1Ev
liblldb.so.14:_ZN4lldb13SBEnvironmentC2EN12lldb_private11EnvironmentE
liblldb.so.14:_ZN4lldb13SBEnvironmentC2ERKS0_
liblldb.so.14:_ZN4lldb13SBEnvironmentC2Ev
liblldb.so.14:_ZN4lldb13SBEnvironmentD1Ev
liblldb.so.14:_ZN4lldb13SBEnvironmentD2Ev
liblldb.so.14:_ZN4lldb13SBEnvironmentaSERKS0_
liblldb.so.14:_ZN4lldb13SBInputReader10InitializeERNS_10SBDebuggerEPFmPvPS0_NS_17InputReaderActionEPKcmES3_NS_22InputReaderGranularityES7_S7_b
liblldb.so.14:_ZN4lldb13SBInputReader9SetIsDoneEb
liblldb.so.14:_ZN4lldb13SBInstruction10DoesBranchEv
liblldb.so.14:_ZN4lldb13SBInstruction10GetAddressEv
liblldb.so.14:_ZN4lldb13SBInstruction10GetCommentENS_8SBTargetE
liblldb.so.14:_ZN4lldb13SBInstruction11GetByteSizeEv
liblldb.so.14:_ZN4lldb13SBInstruction11GetMnemonicENS_8SBTargetE
liblldb.so.14:_ZN4lldb13SBInstruction11GetOperandsENS_8SBTargetE
liblldb.so.14:_ZN4lldb13SBInstruction12HasDelaySlotEv
liblldb.so.14:_ZN4lldb13SBInstruction13DumpEmulationEPKc
liblldb.so.14:_ZN4lldb13SBInstruction13TestEmulationERNS_8SBStreamEPKc
liblldb.so.14:_ZN4lldb13SBInstruction14GetDescriptionERNS_8SBStreamE
liblldb.so.14:_ZN4lldb13SBInstruction16CanSetBreakpointEv
liblldb.so.14:_ZN4lldb13SBInstruction16EmulateWithFrameERNS_7SBFrameEj
liblldb.so.14:_ZN4lldb13SBInstruction5PrintENS_6SBFileE
liblldb.so.14:_ZN4lldb13SBInstruction5PrintEP8_IO_FILE
liblldb.so.14:_ZN4lldb13SBInstruction5PrintESt10shared_ptrIN12lldb_private4FileEE
liblldb.so.14:_ZN4lldb13SBInstruction7GetDataENS_8SBTargetE
liblldb.so.14:_ZN4lldb13SBInstruction7IsValidEv
liblldb.so.14:_ZN4lldb13SBInstruction9GetOpaqueEv
liblldb.so.14:_ZN4lldb13SBInstruction9SetOpaqueERKSt10shared_ptrIN12lldb_private12DisassemblerEERKS1_INS2_11InstructionEE
liblldb.so.14:_ZN4lldb13SBInstructionC1ERKS0_
liblldb.so.14:_ZN4lldb13SBInstructionC1ERKSt10shared_ptrIN12lldb_private12DisassemblerEERKS1_INS2_11InstructionEE
liblldb.so.14:_ZN4lldb13SBInstructionC1Ev
liblldb.so.14:_ZN4lldb13SBInstructionC2ERKS0_
liblldb.so.14:_ZN4lldb13SBInstructionC2ERKSt10shared_ptrIN12lldb_private12DisassemblerEERKS1_INS2_11InstructionEE
liblldb.so.14:_ZN4lldb13SBInstructionC2Ev
liblldb.so.14:_ZN4lldb13SBInstructionD1Ev
liblldb.so.14:_ZN4lldb13SBInstructionD2Ev
liblldb.so.14:_ZN4lldb13SBInstructionaSERKS0_
liblldb.so.14:_ZN4lldb13SBProcessInfo10GetGroupIDEv
liblldb.so.14:_ZN4lldb13SBProcessInfo12GetProcessIDEv
liblldb.so.14:_ZN4lldb13SBProcessInfo13UserIDIsValidEv
liblldb.so.14:_ZN4lldb13SBProcessInfo14GroupIDIsValidEv
liblldb.so.14:_ZN4lldb13SBProcessInfo14SetProcessInfoERKN12lldb_private19ProcessInstanceInfoE
liblldb.so.14:_ZN4lldb13SBProcessInfo17GetExecutableFileEv
liblldb.so.14:_ZN4lldb13SBProcessInfo18GetEffectiveUserIDEv
liblldb.so.14:_ZN4lldb13SBProcessInfo18GetParentProcessIDEv
liblldb.so.14:_ZN4lldb13SBProcessInfo19GetEffectiveGroupIDEv
liblldb.so.14:_ZN4lldb13SBProcessInfo22EffectiveUserIDIsValidEv
liblldb.so.14:_ZN4lldb13SBProcessInfo23EffectiveGroupIDIsValidEv
liblldb.so.14:_ZN4lldb13SBProcessInfo3refEv
liblldb.so.14:_ZN4lldb13SBProcessInfo7GetNameEv
liblldb.so.14:_ZN4lldb13SBProcessInfo9GetTripleEv
liblldb.so.14:_ZN4lldb13SBProcessInfo9GetUserIDEv
liblldb.so.14:_ZN4lldb13SBProcessInfoC1ERKS0_
liblldb.so.14:_ZN4lldb13SBProcessInfoC1Ev
liblldb.so.14:_ZN4lldb13SBProcessInfoC2ERKS0_
liblldb.so.14:_ZN4lldb13SBProcessInfoC2Ev
liblldb.so.14:_ZN4lldb13SBProcessInfoD1Ev
liblldb.so.14:_ZN4lldb13SBProcessInfoD2Ev
liblldb.so.14:_ZN4lldb13SBProcessInfoaSERKS0_
liblldb.so.14:_ZN4lldb13SBTypeSummary10GetOptionsEv
liblldb.so.14:_ZN4lldb13SBTypeSummary10SetOptionsEj
liblldb.so.14:_ZN4lldb13SBTypeSummary14DoesPrintValueENS_7SBValueE
liblldb.so.14:_ZN4lldb13SBTypeSummary14GetDescriptionERNS_8SBStreamENS_16DescriptionLevelE
liblldb.so.14:_ZN4lldb13SBTypeSummary14IsFunctionCodeEv
liblldb.so.14:_ZN4lldb13SBTypeSummary14IsFunctionNameEv
liblldb.so.14:_ZN4lldb13SBTypeSummary15IsSummaryStringEv
liblldb.so.14:_ZN4lldb13SBTypeSummary15SetFunctionCodeEPKc
liblldb.so.14:_ZN4lldb13SBTypeSummary15SetFunctionNameEPKc
liblldb.so.14:_ZN4lldb13SBTypeSummary16CopyOnWrite_ImplEv
liblldb.so.14:_ZN4lldb13SBTypeSummary16SetSummaryStringEPKc
liblldb.so.14:_ZN4lldb13SBTypeSummary17ChangeSummaryTypeEb
liblldb.so.14:_ZN4lldb13SBTypeSummary18CreateWithCallbackEPFbNS_7SBValueENS_20SBTypeSummaryOptionsERNS_8SBStreamEEjPKc
liblldb.so.14:_ZN4lldb13SBTypeSummary20CreateWithScriptCodeEPKcj
liblldb.so.14:_ZN4lldb13SBTypeSummary22CreateWithFunctionNameEPKcj
liblldb.so.14:_ZN4lldb13SBTypeSummary23CreateWithSummaryStringEPKcj
liblldb.so.14:_ZN4lldb13SBTypeSummary5GetSPEv
liblldb.so.14:_ZN4lldb13SBTypeSummary5SetSPERKSt10shared_ptrIN12lldb_private15TypeSummaryImplEE
liblldb.so.14:_ZN4lldb13SBTypeSummary7GetDataEv
liblldb.so.14:_ZN4lldb13SBTypeSummary9IsEqualToERS0_
liblldb.so.14:_ZN4lldb13SBTypeSummaryC1ERKS0_
liblldb.so.14:_ZN4lldb13SBTypeSummaryC1ERKSt10shared_ptrIN12lldb_private15TypeSummaryImplEE
liblldb.so.14:_ZN4lldb13SBTypeSummaryC1Ev
liblldb.so.14:_ZN4lldb13SBTypeSummaryC2ERKS0_
liblldb.so.14:_ZN4lldb13SBTypeSummaryC2ERKSt10shared_ptrIN12lldb_private15TypeSummaryImplEE
liblldb.so.14:_ZN4lldb13SBTypeSummaryC2Ev
liblldb.so.14:_ZN4lldb13SBTypeSummaryD1Ev
liblldb.so.14:_ZN4lldb13SBTypeSummaryD2Ev
liblldb.so.14:_ZN4lldb13SBTypeSummaryaSERKS0_
liblldb.so.14:_ZN4lldb13SBTypeSummaryeqERS0_
liblldb.so.14:_ZN4lldb13SBTypeSummaryneERS0_
liblldb.so.14:_ZN4lldb13SBUnixSignals13SetShouldStopEib
liblldb.so.14:_ZN4lldb13SBUnixSignals15SetShouldNotifyEib
liblldb.so.14:_ZN4lldb13SBUnixSignals17SetShouldSuppressEib
liblldb.so.14:_ZN4lldb13SBUnixSignals5ClearEv
liblldb.so.14:_ZN4lldb13SBUnixSignals5SetSPERKSt10shared_ptrIN12lldb_private11UnixSignalsEE
liblldb.so.14:_ZN4lldb13SBUnixSignalsC1ERKS0_
liblldb.so.14:_ZN4lldb13SBUnixSignalsC1ERSt10shared_ptrIN12lldb_private7ProcessEE
liblldb.so.14:_ZN4lldb13SBUnixSignalsC1ERSt10shared_ptrIN12lldb_private8PlatformEE
liblldb.so.14:_ZN4lldb13SBUnixSignalsC1Ev
liblldb.so.14:_ZN4lldb13SBUnixSignalsC2ERKS0_
liblldb.so.14:_ZN4lldb13SBUnixSignalsC2ERSt10shared_ptrIN12lldb_private7ProcessEE
liblldb.so.14:_ZN4lldb13SBUnixSignalsC2ERSt10shared_ptrIN12lldb_private8PlatformEE
liblldb.so.14:_ZN4lldb13SBUnixSignalsC2Ev
liblldb.so.14:_ZN4lldb13SBUnixSignalsD1Ev
liblldb.so.14:_ZN4lldb13SBUnixSignalsD2Ev
liblldb.so.14:_ZN4lldb13SBUnixSignalsaSERKS0_
liblldb.so.14:_ZN4lldb14SBFileSpecList13FindFileIndexEjRKNS_10SBFileSpecEb
liblldb.so.14:_ZN4lldb14SBFileSpecList14AppendIfUniqueERKNS_10SBFileSpecE
liblldb.so.14:_ZN4lldb14SBFileSpecList5ClearEv
liblldb.so.14:_ZN4lldb14SBFileSpecList6AppendERKNS_10SBFileSpecE
liblldb.so.14:_ZN4lldb14SBFileSpecListC1ERKS0_
liblldb.so.14:_ZN4lldb14SBFileSpecListC1Ev
liblldb.so.14:_ZN4lldb14SBFileSpecListC2ERKS0_
liblldb.so.14:_ZN4lldb14SBFileSpecListC2Ev
liblldb.so.14:_ZN4lldb14SBFileSpecListD1Ev
liblldb.so.14:_ZN4lldb14SBFileSpecListD2Ev
liblldb.so.14:_ZN4lldb14SBFileSpecListaSERKS0_
liblldb.so.14:_ZN4lldb14SBTypeCategory10GetEnabledEv
liblldb.so.14:_ZN4lldb14SBTypeCategory10SetEnabledEb
liblldb.so.14:_ZN4lldb14SBTypeCategory11AddLanguageENS_12LanguageTypeE
liblldb.so.14:_ZN4lldb14SBTypeCategory13AddTypeFilterENS_19SBTypeNameSpecifierENS_12SBTypeFilterE
liblldb.so.14:_ZN4lldb14SBTypeCategory13AddTypeFormatENS_19SBTypeNameSpecifierENS_12SBTypeFormatE
liblldb.so.14:_ZN4lldb14SBTypeCategory13GetNumFiltersEv
liblldb.so.14:_ZN4lldb14SBTypeCategory13GetNumFormatsEv
liblldb.so.14:_ZN4lldb14SBTypeCategory14AddTypeSummaryENS_19SBTypeNameSpecifierENS_13SBTypeSummaryE
liblldb.so.14:_ZN4lldb14SBTypeCategory14GetDescriptionERNS_8SBStreamENS_16DescriptionLevelE
liblldb.so.14:_ZN4lldb14SBTypeCategory15GetNumLanguagesEv
liblldb.so.14:_ZN4lldb14SBTypeCategory15GetNumSummariesEv
liblldb.so.14:_ZN4lldb14SBTypeCategory16AddTypeSyntheticENS_19SBTypeNameSpecifierENS_15SBTypeSyntheticE
liblldb.so.14:_ZN4lldb14SBTypeCategory16DeleteTypeFilterENS_19SBTypeNameSpecifierE
liblldb.so.14:_ZN4lldb14SBTypeCategory16DeleteTypeFormatENS_19SBTypeNameSpecifierE
liblldb.so.14:_ZN4lldb14SBTypeCategory16GetFilterAtIndexEj
liblldb.so.14:_ZN4lldb14SBTypeCategory16GetFilterForTypeENS_19SBTypeNameSpecifierE
liblldb.so.14:_ZN4lldb14SBTypeCategory16GetFormatAtIndexEj
liblldb.so.14:_ZN4lldb14SBTypeCategory16GetFormatForTypeENS_19SBTypeNameSpecifierE
liblldb.so.14:_ZN4lldb14SBTypeCategory16GetNumSyntheticsEv
liblldb.so.14:_ZN4lldb14SBTypeCategory17DeleteTypeSummaryENS_19SBTypeNameSpecifierE
liblldb.so.14:_ZN4lldb14SBTypeCategory17GetSummaryAtIndexEj
liblldb.so.14:_ZN4lldb14SBTypeCategory17GetSummaryForTypeENS_19SBTypeNameSpecifierE
liblldb.so.14:_ZN4lldb14SBTypeCategory17IsDefaultCategoryEv
liblldb.so.14:_ZN4lldb14SBTypeCategory18GetLanguageAtIndexEj
liblldb.so.14:_ZN4lldb14SBTypeCategory19DeleteTypeSyntheticENS_19SBTypeNameSpecifierE
liblldb.so.14:_ZN4lldb14SBTypeCategory19GetSyntheticAtIndexEj
liblldb.so.14:_ZN4lldb14SBTypeCategory19GetSyntheticForTypeENS_19SBTypeNameSpecifierE
liblldb.so.14:_ZN4lldb14SBTypeCategory36GetTypeNameSpecifierForFilterAtIndexEj
liblldb.so.14:_ZN4lldb14SBTypeCategory36GetTypeNameSpecifierForFormatAtIndexEj
liblldb.so.14:_ZN4lldb14SBTypeCategory37GetTypeNameSpecifierForSummaryAtIndexEj
liblldb.so.14:_ZN4lldb14SBTypeCategory39GetTypeNameSpecifierForSyntheticAtIndexEj
liblldb.so.14:_ZN4lldb14SBTypeCategory5GetSPEv
liblldb.so.14:_ZN4lldb14SBTypeCategory5SetSPERKSt10shared_ptrIN12lldb_private16TypeCategoryImplEE
liblldb.so.14:_ZN4lldb14SBTypeCategory7GetNameEv
liblldb.so.14:_ZN4lldb14SBTypeCategoryC1EPKc
liblldb.so.14:_ZN4lldb14SBTypeCategoryC1ERKS0_
liblldb.so.14:_ZN4lldb14SBTypeCategoryC1ERKSt10shared_ptrIN12lldb_private16TypeCategoryImplEE
liblldb.so.14:_ZN4lldb14SBTypeCategoryC1Ev
liblldb.so.14:_ZN4lldb14SBTypeCategoryC2EPKc
liblldb.so.14:_ZN4lldb14SBTypeCategoryC2ERKS0_
liblldb.so.14:_ZN4lldb14SBTypeCategoryC2ERKSt10shared_ptrIN12lldb_private16TypeCategoryImplEE
liblldb.so.14:_ZN4lldb14SBTypeCategoryC2Ev
liblldb.so.14:_ZN4lldb14SBTypeCategoryD1Ev
liblldb.so.14:_ZN4lldb14SBTypeCategoryD2Ev
liblldb.so.14:_ZN4lldb14SBTypeCategoryaSERKS0_
liblldb.so.14:_ZN4lldb14SBTypeCategoryeqERS0_
liblldb.so.14:_ZN4lldb14SBTypeCategoryneERS0_
liblldb.so.14:_ZN4lldb15SBCommunication10DisconnectEv
liblldb.so.14:_ZN4lldb15SBCommunication13GetCloseOnEOFEv
liblldb.so.14:_ZN4lldb15SBCommunication13SetCloseOnEOFEb
liblldb.so.14:_ZN4lldb15SBCommunication14GetBroadcasterEv
liblldb.so.14:_ZN4lldb15SBCommunication14ReadThreadStopEv
liblldb.so.14:_ZN4lldb15SBCommunication15ReadThreadStartEv
liblldb.so.14:_ZN4lldb15SBCommunication18AdoptFileDesriptorEib
liblldb.so.14:_ZN4lldb15SBCommunication19GetBroadcasterClassEv
liblldb.so.14:_ZN4lldb15SBCommunication19ReadThreadIsRunningEv
liblldb.so.14:_ZN4lldb15SBCommunication34SetReadThreadBytesReceivedCallbackEPFvPvPKvmES1_
liblldb.so.14:_ZN4lldb15SBCommunication4ReadEPvmjRNS_16ConnectionStatusE
liblldb.so.14:_ZN4lldb15SBCommunication5WriteEPKvmRNS_16ConnectionStatusE
liblldb.so.14:_ZN4lldb15SBCommunication7ConnectEPKc
liblldb.so.14:_ZN4lldb15SBCommunicationC1EPKc
liblldb.so.14:_ZN4lldb15SBCommunicationC1Ev
liblldb.so.14:_ZN4lldb15SBCommunicationC2EPKc
liblldb.so.14:_ZN4lldb15SBCommunicationC2Ev
liblldb.so.14:_ZN4lldb15SBCommunicationD1Ev
liblldb.so.14:_ZN4lldb15SBCommunicationD2Ev
liblldb.so.14:_ZN4lldb15SBReplayOptions15SetCheckVersionEb
liblldb.so.14:_ZN4lldb15SBReplayOptions9SetVerifyEb
liblldb.so.14:_ZN4lldb15SBReplayOptionsC1ERKS0_
liblldb.so.14:_ZN4lldb15SBReplayOptionsC1Ev
liblldb.so.14:_ZN4lldb15SBReplayOptionsC2ERKS0_
liblldb.so.14:_ZN4lldb15SBReplayOptionsC2Ev
liblldb.so.14:_ZN4lldb15SBReplayOptionsD1Ev
liblldb.so.14:_ZN4lldb15SBReplayOptionsD2Ev
liblldb.so.14:_ZN4lldb15SBReplayOptionsaSERKS0_
liblldb.so.14:_ZN4lldb15SBSourceManager33DisplaySourceLinesWithLineNumbersERKNS_10SBFileSpecEjjjPKcRNS_8SBStreamE
liblldb.so.14:_ZN4lldb15SBSourceManager42DisplaySourceLinesWithLineNumbersAndColumnERKNS_10SBFileSpecEjjjjPKcRNS_8SBStreamE
liblldb.so.14:_ZN4lldb15SBSourceManagerC1ERKNS_10SBDebuggerE
liblldb.so.14:_ZN4lldb15SBSourceManagerC1ERKNS_8SBTargetE
liblldb.so.14:_ZN4lldb15SBSourceManagerC1ERKS0_
liblldb.so.14:_ZN4lldb15SBSourceManagerC2ERKNS_10SBDebuggerE
liblldb.so.14:_ZN4lldb15SBSourceManagerC2ERKNS_8SBTargetE
liblldb.so.14:_ZN4lldb15SBSourceManagerC2ERKS0_
liblldb.so.14:_ZN4lldb15SBSourceManagerD1Ev
liblldb.so.14:_ZN4lldb15SBSourceManagerD2Ev
liblldb.so.14:_ZN4lldb15SBSourceManageraSERKS0_
liblldb.so.14:_ZN4lldb15SBSymbolContext11GetFunctionEv
liblldb.so.14:_ZN4lldb15SBSymbolContext11SetFunctionENS_10SBFunctionE
liblldb.so.14:_ZN4lldb15SBSymbolContext12GetLineEntryEv
liblldb.so.14:_ZN4lldb15SBSymbolContext12SetLineEntryENS_11SBLineEntryE
liblldb.so.14:_ZN4lldb15SBSymbolContext14GetCompileUnitEv
liblldb.so.14:_ZN4lldb15SBSymbolContext14GetDescriptionERNS_8SBStreamE
liblldb.so.14:_ZN4lldb15SBSymbolContext14SetCompileUnitENS_13SBCompileUnitE
liblldb.so.14:_ZN4lldb15SBSymbolContext3refEv
liblldb.so.14:_ZN4lldb15SBSymbolContext8GetBlockEv
liblldb.so.14:_ZN4lldb15SBSymbolContext8SetBlockENS_7SBBlockE
liblldb.so.14:_ZN4lldb15SBSymbolContext9GetModuleEv
liblldb.so.14:_ZN4lldb15SBSymbolContext9GetSymbolEv
liblldb.so.14:_ZN4lldb15SBSymbolContext9SetModuleENS_8SBModuleE
liblldb.so.14:_ZN4lldb15SBSymbolContext9SetSymbolENS_8SBSymbolE
liblldb.so.14:_ZN4lldb15SBSymbolContextC1ERKN12lldb_private13SymbolContextE
liblldb.so.14:_ZN4lldb15SBSymbolContextC1ERKS0_
liblldb.so.14:_ZN4lldb15SBSymbolContextC1Ev
liblldb.so.14:_ZN4lldb15SBSymbolContextC2ERKN12lldb_private13SymbolContextE
liblldb.so.14:_ZN4lldb15SBSymbolContextC2ERKS0_
liblldb.so.14:_ZN4lldb15SBSymbolContextC2Ev
liblldb.so.14:_ZN4lldb15SBSymbolContextD1Ev
liblldb.so.14:_ZN4lldb15SBSymbolContextD2Ev
liblldb.so.14:_ZN4lldb15SBSymbolContextaSERKS0_
liblldb.so.14:_ZN4lldb15SBSymbolContextdeEv
liblldb.so.14:_ZN4lldb15SBTypeSynthetic10GetOptionsEv
liblldb.so.14:_ZN4lldb15SBTypeSynthetic10SetOptionsEj
liblldb.so.14:_ZN4lldb15SBTypeSynthetic11IsClassCodeEv
liblldb.so.14:_ZN4lldb15SBTypeSynthetic11IsClassNameEv
liblldb.so.14:_ZN4lldb15SBTypeSynthetic12SetClassCodeEPKc
liblldb.so.14:_ZN4lldb15SBTypeSynthetic12SetClassNameEPKc
liblldb.so.14:_ZN4lldb15SBTypeSynthetic14GetDescriptionERNS_8SBStreamENS_16DescriptionLevelE
liblldb.so.14:_ZN4lldb15SBTypeSynthetic16CopyOnWrite_ImplEv
liblldb.so.14:_ZN4lldb15SBTypeSynthetic19CreateWithClassNameEPKcj
liblldb.so.14:_ZN4lldb15SBTypeSynthetic20CreateWithScriptCodeEPKcj
liblldb.so.14:_ZN4lldb15SBTypeSynthetic5GetSPEv
liblldb.so.14:_ZN4lldb15SBTypeSynthetic5SetSPERKSt10shared_ptrIN12lldb_private25ScriptedSyntheticChildrenEE
liblldb.so.14:_ZN4lldb15SBTypeSynthetic7GetDataEv
liblldb.so.14:_ZN4lldb15SBTypeSynthetic9IsEqualToERS0_
liblldb.so.14:_ZN4lldb15SBTypeSyntheticC1ERKS0_
liblldb.so.14:_ZN4lldb15SBTypeSyntheticC1ERKSt10shared_ptrIN12lldb_private25ScriptedSyntheticChildrenEE
liblldb.so.14:_ZN4lldb15SBTypeSyntheticC1Ev
liblldb.so.14:_ZN4lldb15SBTypeSyntheticC2ERKS0_
liblldb.so.14:_ZN4lldb15SBTypeSyntheticC2ERKSt10shared_ptrIN12lldb_private25ScriptedSyntheticChildrenEE
liblldb.so.14:_ZN4lldb15SBTypeSyntheticC2Ev
liblldb.so.14:_ZN4lldb15SBTypeSyntheticD1Ev
liblldb.so.14:_ZN4lldb15SBTypeSyntheticD2Ev
liblldb.so.14:_ZN4lldb15SBTypeSyntheticaSERKS0_
liblldb.so.14:_ZN4lldb15SBTypeSyntheticeqERS0_
liblldb.so.14:_ZN4lldb15SBTypeSyntheticneERS0_
liblldb.so.14:_ZN4lldb16SBBreakpointList10AppendByIDEi
liblldb.so.14:_ZN4lldb16SBBreakpointList14AppendIfUniqueERKNS_12SBBreakpointE
liblldb.so.14:_ZN4lldb16SBBreakpointList18FindBreakpointByIDEi
liblldb.so.14:_ZN4lldb16SBBreakpointList20GetBreakpointAtIndexEm
liblldb.so.14:_ZN4lldb16SBBreakpointList22CopyToBreakpointIDListERN12lldb_private16BreakpointIDListE
liblldb.so.14:_ZN4lldb16SBBreakpointList5ClearEv
liblldb.so.14:_ZN4lldb16SBBreakpointList6AppendERKNS_12SBBreakpointE
liblldb.so.14:_ZN4lldb16SBBreakpointListC1ERNS_8SBTargetE
liblldb.so.14:_ZN4lldb16SBBreakpointListC2ERNS_8SBTargetE
liblldb.so.14:_ZN4lldb16SBBreakpointListD1Ev
liblldb.so.14:_ZN4lldb16SBBreakpointListD2Ev
liblldb.so.14:_ZN4lldb16SBBreakpointName10SetEnabledEb
liblldb.so.14:_ZN4lldb16SBBreakpointName10SetOneShotEb
liblldb.so.14:_ZN4lldb16SBBreakpointName10UpdateNameERN12lldb_private14BreakpointNameE
liblldb.so.14:_ZN4lldb16SBBreakpointName11GetThreadIDEv
liblldb.so.14:_ZN4lldb16SBBreakpointName11SetCallbackEPFbPvRNS_9SBProcessERNS_8SBThreadERNS_20SBBreakpointLocationEES1_
liblldb.so.14:_ZN4lldb16SBBreakpointName11SetThreadIDEm
liblldb.so.14:_ZN4lldb16SBBreakpointName12GetConditionEv
liblldb.so.14:_ZN4lldb16SBBreakpointName12SetAllowListEb
liblldb.so.14:_ZN4lldb16SBBreakpointName12SetConditionEPKc
liblldb.so.14:_ZN4lldb16SBBreakpointName12SetQueueNameEPKc
liblldb.so.14:_ZN4lldb16SBBreakpointName13SetHelpStringEPKc
liblldb.so.14:_ZN4lldb16SBBreakpointName13SetThreadNameEPKc
liblldb.so.14:_ZN4lldb16SBBreakpointName14GetAllowDeleteEv
liblldb.so.14:_ZN4lldb16SBBreakpointName14GetDescriptionERNS_8SBStreamE
liblldb.so.14:_ZN4lldb16SBBreakpointName14SetAllowDeleteEb
liblldb.so.14:_ZN4lldb16SBBreakpointName14SetIgnoreCountEj
liblldb.so.14:_ZN4lldb16SBBreakpointName14SetThreadIndexEj
liblldb.so.14:_ZN4lldb16SBBreakpointName15GetAllowDisableEv
liblldb.so.14:_ZN4lldb16SBBreakpointName15GetAutoContinueEv
liblldb.so.14:_ZN4lldb16SBBreakpointName15SetAllowDisableEb
liblldb.so.14:_ZN4lldb16SBBreakpointName15SetAutoContinueEb
liblldb.so.14:_ZN4lldb16SBBreakpointName21SetScriptCallbackBodyEPKc
liblldb.so.14:_ZN4lldb16SBBreakpointName22GetCommandLineCommandsERNS_12SBStringListE
liblldb.so.14:_ZN4lldb16SBBreakpointName22SetCommandLineCommandsERNS_12SBStringListE
liblldb.so.14:_ZN4lldb16SBBreakpointName25SetScriptCallbackFunctionEPKc
liblldb.so.14:_ZN4lldb16SBBreakpointName25SetScriptCallbackFunctionEPKcRNS_16SBStructuredDataE
liblldb.so.14:_ZN4lldb16SBBreakpointName9IsEnabledEv
liblldb.so.14:_ZN4lldb16SBBreakpointNameC1ERKS0_
liblldb.so.14:_ZN4lldb16SBBreakpointNameC1ERNS_12SBBreakpointEPKc
liblldb.so.14:_ZN4lldb16SBBreakpointNameC1ERNS_8SBTargetEPKc
liblldb.so.14:_ZN4lldb16SBBreakpointNameC1Ev
liblldb.so.14:_ZN4lldb16SBBreakpointNameC2ERKS0_
liblldb.so.14:_ZN4lldb16SBBreakpointNameC2ERNS_12SBBreakpointEPKc
liblldb.so.14:_ZN4lldb16SBBreakpointNameC2ERNS_8SBTargetEPKc
liblldb.so.14:_ZN4lldb16SBBreakpointNameC2Ev
liblldb.so.14:_ZN4lldb16SBBreakpointNameD1Ev
liblldb.so.14:_ZN4lldb16SBBreakpointNameD2Ev
liblldb.so.14:_ZN4lldb16SBBreakpointNameaSERKS0_
liblldb.so.14:_ZN4lldb16SBBreakpointNameeqERKS0_
liblldb.so.14:_ZN4lldb16SBBreakpointNameneERKS0_
liblldb.so.14:_ZN4lldb16SBModuleSpecList14GetDescriptionERNS_8SBStreamE
liblldb.so.14:_ZN4lldb16SBModuleSpecList14GetSpecAtIndexEm
liblldb.so.14:_ZN4lldb16SBModuleSpecList17FindMatchingSpecsERKNS_12SBModuleSpecE
liblldb.so.14:_ZN4lldb16SBModuleSpecList21FindFirstMatchingSpecERKNS_12SBModuleSpecE
liblldb.so.14:_ZN4lldb16SBModuleSpecList23GetModuleSpecificationsEPKc
liblldb.so.14:_ZN4lldb16SBModuleSpecList6AppendERKNS_12SBModuleSpecE
liblldb.so.14:_ZN4lldb16SBModuleSpecList6AppendERKS0_
liblldb.so.14:_ZN4lldb16SBModuleSpecList7GetSizeEv
liblldb.so.14:_ZN4lldb16SBModuleSpecListC1ERKS0_
liblldb.so.14:_ZN4lldb16SBModuleSpecListC1Ev
liblldb.so.14:_ZN4lldb16SBModuleSpecListC2ERKS0_
liblldb.so.14:_ZN4lldb16SBModuleSpecListC2Ev
liblldb.so.14:_ZN4lldb16SBModuleSpecListD1Ev
liblldb.so.14:_ZN4lldb16SBModuleSpecListD2Ev
liblldb.so.14:_ZN4lldb16SBModuleSpecListaSERKS0_
liblldb.so.14:_ZN4lldb16SBStructuredData11SetFromJSONEPKc
liblldb.so.14:_ZN4lldb16SBStructuredData11SetFromJSONERNS_8SBStreamE
liblldb.so.14:_ZN4lldb16SBStructuredData5ClearEv
liblldb.so.14:_ZN4lldb16SBStructuredDataC1ERKN12lldb_private18StructuredDataImplE
liblldb.so.14:_ZN4lldb16SBStructuredDataC1ERKS0_
liblldb.so.14:_ZN4lldb16SBStructuredDataC1ERKSt10shared_ptrIN12lldb_private5EventEE
liblldb.so.14:_ZN4lldb16SBStructuredDataC1Ev
liblldb.so.14:_ZN4lldb16SBStructuredDataC2ERKN12lldb_private18StructuredDataImplE
liblldb.so.14:_ZN4lldb16SBStructuredDataC2ERKS0_
liblldb.so.14:_ZN4lldb16SBStructuredDataC2ERKSt10shared_ptrIN12lldb_private5EventEE
liblldb.so.14:_ZN4lldb16SBStructuredDataC2Ev
liblldb.so.14:_ZN4lldb16SBStructuredDataD1Ev
liblldb.so.14:_ZN4lldb16SBStructuredDataD2Ev
liblldb.so.14:_ZN4lldb16SBStructuredDataaSERKS0_
liblldb.so.14:_ZN4lldb16SBTypeEnumMember14GetDescriptionERNS_8SBStreamENS_16DescriptionLevelE
liblldb.so.14:_ZN4lldb16SBTypeEnumMember16GetValueAsSignedEv
liblldb.so.14:_ZN4lldb16SBTypeEnumMember18GetValueAsUnsignedEv
liblldb.so.14:_ZN4lldb16SBTypeEnumMember3refEv
liblldb.so.14:_ZN4lldb16SBTypeEnumMember5resetEPN12lldb_private18TypeEnumMemberImplE
liblldb.so.14:_ZN4lldb16SBTypeEnumMember7GetNameEv
liblldb.so.14:_ZN4lldb16SBTypeEnumMember7GetTypeEv
liblldb.so.14:_ZN4lldb16SBTypeEnumMemberC1ERKS0_
liblldb.so.14:_ZN4lldb16SBTypeEnumMemberC1ERKSt10shared_ptrIN12lldb_private18TypeEnumMemberImplEE
liblldb.so.14:_ZN4lldb16SBTypeEnumMemberC1Ev
liblldb.so.14:_ZN4lldb16SBTypeEnumMemberC2ERKS0_
liblldb.so.14:_ZN4lldb16SBTypeEnumMemberC2ERKSt10shared_ptrIN12lldb_private18TypeEnumMemberImplEE
liblldb.so.14:_ZN4lldb16SBTypeEnumMemberC2Ev
liblldb.so.14:_ZN4lldb16SBTypeEnumMemberD1Ev
liblldb.so.14:_ZN4lldb16SBTypeEnumMemberD2Ev
liblldb.so.14:_ZN4lldb16SBTypeEnumMemberaSERKS0_
liblldb.so.14:_ZN4lldb17SBInstructionList14GetDescriptionERN12lldb_private6StreamE
liblldb.so.14:_ZN4lldb17SBInstructionList14GetDescriptionERNS_8SBStreamE
liblldb.so.14:_ZN4lldb17SBInstructionList15SetDisassemblerERKSt10shared_ptrIN12lldb_private12DisassemblerEE
liblldb.so.14:_ZN4lldb17SBInstructionList17AppendInstructionENS_13SBInstructionE
liblldb.so.14:_ZN4lldb17SBInstructionList20GetInstructionsCountERKNS_9SBAddressES3_b
liblldb.so.14:_ZN4lldb17SBInstructionList21GetInstructionAtIndexEj
liblldb.so.14:_ZN4lldb17SBInstructionList31DumpEmulationForAllInstructionsEPKc
liblldb.so.14:_ZN4lldb17SBInstructionList5ClearEv
liblldb.so.14:_ZN4lldb17SBInstructionList5PrintENS_6SBFileE
liblldb.so.14:_ZN4lldb17SBInstructionList5PrintEP8_IO_FILE
liblldb.so.14:_ZN4lldb17SBInstructionList5PrintESt10shared_ptrIN12lldb_private4FileEE
liblldb.so.14:_ZN4lldb17SBInstructionList7GetSizeEv
liblldb.so.14:_ZN4lldb17SBInstructionListC1ERKS0_
liblldb.so.14:_ZN4lldb17SBInstructionListC1Ev
liblldb.so.14:_ZN4lldb17SBInstructionListC2ERKS0_
liblldb.so.14:_ZN4lldb17SBInstructionListC2Ev
liblldb.so.14:_ZN4lldb17SBInstructionListD1Ev
liblldb.so.14:_ZN4lldb17SBInstructionListD2Ev
liblldb.so.14:_ZN4lldb17SBInstructionListaSERKS0_
liblldb.so.14:_ZN4lldb17SBLanguageRuntime22GetNameForLanguageTypeENS_12LanguageTypeE
liblldb.so.14:_ZN4lldb17SBLanguageRuntime25GetLanguageTypeFromStringEPKc
liblldb.so.14:_ZN4lldb18SBExecutionContextC1ENS_8SBThreadE
liblldb.so.14:_ZN4lldb18SBExecutionContextC1ERKNS_7SBFrameE
liblldb.so.14:_ZN4lldb18SBExecutionContextC1ERKNS_8SBTargetE
liblldb.so.14:_ZN4lldb18SBExecutionContextC1ERKNS_9SBProcessE
liblldb.so.14:_ZN4lldb18SBExecutionContextC1ERKS0_
liblldb.so.14:_ZN4lldb18SBExecutionContextC1ESt10shared_ptrIN12lldb_private19ExecutionContextRefEE
liblldb.so.14:_ZN4lldb18SBExecutionContextC1Ev
liblldb.so.14:_ZN4lldb18SBExecutionContextC2ENS_8SBThreadE
liblldb.so.14:_ZN4lldb18SBExecutionContextC2ERKNS_7SBFrameE
liblldb.so.14:_ZN4lldb18SBExecutionContextC2ERKNS_8SBTargetE
liblldb.so.14:_ZN4lldb18SBExecutionContextC2ERKNS_9SBProcessE
liblldb.so.14:_ZN4lldb18SBExecutionContextC2ERKS0_
liblldb.so.14:_ZN4lldb18SBExecutionContextC2ESt10shared_ptrIN12lldb_private19ExecutionContextRefEE
liblldb.so.14:_ZN4lldb18SBExecutionContextC2Ev
liblldb.so.14:_ZN4lldb18SBExecutionContextD1Ev
liblldb.so.14:_ZN4lldb18SBExecutionContextD2Ev
liblldb.so.14:_ZN4lldb18SBExecutionContextaSERKS0_
liblldb.so.14:_ZN4lldb18SBMemoryRegionInfo10IsReadableEv
liblldb.so.14:_ZN4lldb18SBMemoryRegionInfo10IsWritableEv
liblldb.so.14:_ZN4lldb18SBMemoryRegionInfo11GetPageSizeEv
liblldb.so.14:_ZN4lldb18SBMemoryRegionInfo12GetRegionEndEv
liblldb.so.14:_ZN4lldb18SBMemoryRegionInfo12IsExecutableEv
liblldb.so.14:_ZN4lldb18SBMemoryRegionInfo13GetRegionBaseEv
liblldb.so.14:_ZN4lldb18SBMemoryRegionInfo14GetDescriptionERNS_8SBStreamE
liblldb.so.14:_ZN4lldb18SBMemoryRegionInfo16GetNumDirtyPagesEv
liblldb.so.14:_ZN4lldb18SBMemoryRegionInfo22HasDirtyMemoryPageListEv
liblldb.so.14:_ZN4lldb18SBMemoryRegionInfo26GetDirtyPageAddressAtIndexEj
liblldb.so.14:_ZN4lldb18SBMemoryRegionInfo3refEv
liblldb.so.14:_ZN4lldb18SBMemoryRegionInfo5ClearEv
liblldb.so.14:_ZN4lldb18SBMemoryRegionInfo7GetNameEv
liblldb.so.14:_ZN4lldb18SBMemoryRegionInfo8IsMappedEv
liblldb.so.14:_ZN4lldb18SBMemoryRegionInfoC1EPKN12lldb_private16MemoryRegionInfoE
liblldb.so.14:_ZN4lldb18SBMemoryRegionInfoC1EPKcmmjbb
liblldb.so.14:_ZN4lldb18SBMemoryRegionInfoC1ERKS0_
liblldb.so.14:_ZN4lldb18SBMemoryRegionInfoC1Ev
liblldb.so.14:_ZN4lldb18SBMemoryRegionInfoC2EPKN12lldb_private16MemoryRegionInfoE
liblldb.so.14:_ZN4lldb18SBMemoryRegionInfoC2EPKcmmjbb
liblldb.so.14:_ZN4lldb18SBMemoryRegionInfoC2ERKS0_
liblldb.so.14:_ZN4lldb18SBMemoryRegionInfoC2Ev
liblldb.so.14:_ZN4lldb18SBMemoryRegionInfoD1Ev
liblldb.so.14:_ZN4lldb18SBMemoryRegionInfoD2Ev
liblldb.so.14:_ZN4lldb18SBMemoryRegionInfoaSERKS0_
liblldb.so.14:_ZN4lldb18SBThreadCollection16GetThreadAtIndexEm
liblldb.so.14:_ZN4lldb18SBThreadCollection7GetSizeEv
liblldb.so.14:_ZN4lldb18SBThreadCollection9SetOpaqueERKSt10shared_ptrIN12lldb_private16ThreadCollectionEE
liblldb.so.14:_ZN4lldb18SBThreadCollectionC1ERKS0_
liblldb.so.14:_ZN4lldb18SBThreadCollectionC1ERKSt10shared_ptrIN12lldb_private16ThreadCollectionEE
liblldb.so.14:_ZN4lldb18SBThreadCollectionC1Ev
liblldb.so.14:_ZN4lldb18SBThreadCollectionC2ERKS0_
liblldb.so.14:_ZN4lldb18SBThreadCollectionC2ERKSt10shared_ptrIN12lldb_private16ThreadCollectionEE
liblldb.so.14:_ZN4lldb18SBThreadCollectionC2Ev
liblldb.so.14:_ZN4lldb18SBThreadCollectionD1Ev
liblldb.so.14:_ZN4lldb18SBThreadCollectionD2Ev
liblldb.so.14:_ZN4lldb18SBThreadCollectionaSERKS0_
liblldb.so.14:_ZN4lldb18SBThreadCollectiondeEv
liblldb.so.14:_ZN4lldb18SBVariablesOptions10SetOptionsEP20VariablesOptionsImpl
liblldb.so.14:_ZN4lldb18SBVariablesOptions13SetUseDynamicENS_16DynamicValueTypeE
liblldb.so.14:_ZN4lldb18SBVariablesOptions14SetInScopeOnlyEb
liblldb.so.14:_ZN4lldb18SBVariablesOptions16SetIncludeLocalsEb
liblldb.so.14:_ZN4lldb18SBVariablesOptions17SetIncludeStaticsEb
liblldb.so.14:_ZN4lldb18SBVariablesOptions19SetIncludeArgumentsEb
liblldb.so.14:_ZN4lldb18SBVariablesOptions29SetIncludeRecognizedArgumentsEb
liblldb.so.14:_ZN4lldb18SBVariablesOptions30SetIncludeRuntimeSupportValuesEb
liblldb.so.14:_ZN4lldb18SBVariablesOptions3getEv
liblldb.so.14:_ZN4lldb18SBVariablesOptions3refEv
liblldb.so.14:_ZN4lldb18SBVariablesOptionsC1EP20VariablesOptionsImpl
liblldb.so.14:_ZN4lldb18SBVariablesOptionsC1ERKS0_
liblldb.so.14:_ZN4lldb18SBVariablesOptionsC1Ev
liblldb.so.14:_ZN4lldb18SBVariablesOptionsC2EP20VariablesOptionsImpl
liblldb.so.14:_ZN4lldb18SBVariablesOptionsC2ERKS0_
liblldb.so.14:_ZN4lldb18SBVariablesOptionsC2Ev
liblldb.so.14:_ZN4lldb18SBVariablesOptionsD1Ev
liblldb.so.14:_ZN4lldb18SBVariablesOptionsD2Ev
liblldb.so.14:_ZN4lldb18SBVariablesOptionsaSERKS0_
liblldb.so.14:_ZN4lldb18SBVariablesOptionsptEv
liblldb.so.14:_ZN4lldb19SBExpressionOptions11GetAllowJITEv
liblldb.so.14:_ZN4lldb19SBExpressionOptions11GetTopLevelEv
liblldb.so.14:_ZN4lldb19SBExpressionOptions11SetAllowJITEb
liblldb.so.14:_ZN4lldb19SBExpressionOptions11SetLanguageENS_12LanguageTypeE
liblldb.so.14:_ZN4lldb19SBExpressionOptions11SetTopLevelEb
liblldb.so.14:_ZN4lldb19SBExpressionOptions13SetStopOthersEb
liblldb.so.14:_ZN4lldb19SBExpressionOptions16SetTryAllThreadsEb
liblldb.so.14:_ZN4lldb19SBExpressionOptions16SetUnwindOnErrorEb
liblldb.so.14:_ZN4lldb19SBExpressionOptions17SetCancelCallbackEPFbNS_25ExpressionEvaluationPhaseEPvES2_
liblldb.so.14:_ZN4lldb19SBExpressionOptions17SetTrapExceptionsEb
liblldb.so.14:_ZN4lldb19SBExpressionOptions18GetAutoApplyFixItsEv
liblldb.so.14:_ZN4lldb19SBExpressionOptions18SetAutoApplyFixItsEb
liblldb.so.14:_ZN4lldb19SBExpressionOptions19SetCoerceResultToIdEb
liblldb.so.14:_ZN4lldb19SBExpressionOptions20GetGenerateDebugInfoEv
liblldb.so.14:_ZN4lldb19SBExpressionOptions20GetRetriesWithFixItsEv
liblldb.so.14:_ZN4lldb19SBExpressionOptions20SetFetchDynamicValueENS_16DynamicValueTypeE
liblldb.so.14:_ZN4lldb19SBExpressionOptions20SetGenerateDebugInfoEb
liblldb.so.14:_ZN4lldb19SBExpressionOptions20SetIgnoreBreakpointsEb
liblldb.so.14:_ZN4lldb19SBExpressionOptions20SetRetriesWithFixItsEm
liblldb.so.14:_ZN4lldb19SBExpressionOptions24SetTimeoutInMicroSecondsEj
liblldb.so.14:_ZN4lldb19SBExpressionOptions27GetSuppressPersistentResultEv
liblldb.so.14:_ZN4lldb19SBExpressionOptions27SetSuppressPersistentResultEb
liblldb.so.14:_ZN4lldb19SBExpressionOptions33SetOneThreadTimeoutInMicroSecondsEj
liblldb.so.14:_ZN4lldb19SBExpressionOptions9SetPrefixEPKc
liblldb.so.14:_ZN4lldb19SBExpressionOptionsC1ERKS0_
liblldb.so.14:_ZN4lldb19SBExpressionOptionsC1Ev
liblldb.so.14:_ZN4lldb19SBExpressionOptionsC2ERKS0_
liblldb.so.14:_ZN4lldb19SBExpressionOptionsC2Ev
liblldb.so.14:_ZN4lldb19SBExpressionOptionsD1Ev
liblldb.so.14:_ZN4lldb19SBExpressionOptionsD2Ev
liblldb.so.14:_ZN4lldb19SBExpressionOptionsaSERKS0_
liblldb.so.14:_ZN4lldb19SBSymbolContextList14GetDescriptionERNS_8SBStreamE
liblldb.so.14:_ZN4lldb19SBSymbolContextList17GetContextAtIndexEj
liblldb.so.14:_ZN4lldb19SBSymbolContextList5ClearEv
liblldb.so.14:_ZN4lldb19SBSymbolContextList6AppendERNS_15SBSymbolContextE
liblldb.so.14:_ZN4lldb19SBSymbolContextList6AppendERS0_
liblldb.so.14:_ZN4lldb19SBSymbolContextListC1ERKS0_
liblldb.so.14:_ZN4lldb19SBSymbolContextListC1Ev
liblldb.so.14:_ZN4lldb19SBSymbolContextListC2ERKS0_
liblldb.so.14:_ZN4lldb19SBSymbolContextListC2Ev
liblldb.so.14:_ZN4lldb19SBSymbolContextListD1Ev
liblldb.so.14:_ZN4lldb19SBSymbolContextListD2Ev
liblldb.so.14:_ZN4lldb19SBSymbolContextListaSERKS0_
liblldb.so.14:_ZN4lldb19SBTypeNameSpecifier14GetDescriptionERNS_8SBStreamENS_16DescriptionLevelE
liblldb.so.14:_ZN4lldb19SBTypeNameSpecifier5GetSPEv
liblldb.so.14:_ZN4lldb19SBTypeNameSpecifier5SetSPERKSt10shared_ptrIN12lldb_private21TypeNameSpecifierImplEE
liblldb.so.14:_ZN4lldb19SBTypeNameSpecifier7GetNameEv
liblldb.so.14:_ZN4lldb19SBTypeNameSpecifier7GetTypeEv
liblldb.so.14:_ZN4lldb19SBTypeNameSpecifier7IsRegexEv
liblldb.so.14:_ZN4lldb19SBTypeNameSpecifier9IsEqualToERS0_
liblldb.so.14:_ZN4lldb19SBTypeNameSpecifierC1ENS_6SBTypeE
liblldb.so.14:_ZN4lldb19SBTypeNameSpecifierC1EPKcb
liblldb.so.14:_ZN4lldb19SBTypeNameSpecifierC1ERKS0_
liblldb.so.14:_ZN4lldb19SBTypeNameSpecifierC1ERKSt10shared_ptrIN12lldb_private21TypeNameSpecifierImplEE
liblldb.so.14:_ZN4lldb19SBTypeNameSpecifierC1Ev
liblldb.so.14:_ZN4lldb19SBTypeNameSpecifierC2ENS_6SBTypeE
liblldb.so.14:_ZN4lldb19SBTypeNameSpecifierC2EPKcb
liblldb.so.14:_ZN4lldb19SBTypeNameSpecifierC2ERKS0_
liblldb.so.14:_ZN4lldb19SBTypeNameSpecifierC2ERKSt10shared_ptrIN12lldb_private21TypeNameSpecifierImplEE
liblldb.so.14:_ZN4lldb19SBTypeNameSpecifierC2Ev
liblldb.so.14:_ZN4lldb19SBTypeNameSpecifierD1Ev
liblldb.so.14:_ZN4lldb19SBTypeNameSpecifierD2Ev
liblldb.so.14:_ZN4lldb19SBTypeNameSpecifieraSERKS0_
liblldb.so.14:_ZN4lldb19SBTypeNameSpecifiereqERS0_
liblldb.so.14:_ZN4lldb19SBTypeNameSpecifierneERS0_
liblldb.so.14:_ZN4lldb20SBBreakpointLocation10GetAddressEv
liblldb.so.14:_ZN4lldb20SBBreakpointLocation10IsResolvedEv
liblldb.so.14:_ZN4lldb20SBBreakpointLocation10SetEnabledEb
liblldb.so.14:_ZN4lldb20SBBreakpointLocation11GetHitCountEv
liblldb.so.14:_ZN4lldb20SBBreakpointLocation11GetThreadIDEv
liblldb.so.14:_ZN4lldb20SBBreakpointLocation11SetLocationERKSt10shared_ptrIN12lldb_private18BreakpointLocationEE
liblldb.so.14:_ZN4lldb20SBBreakpointLocation11SetThreadIDEm
liblldb.so.14:_ZN4lldb20SBBreakpointLocation12GetConditionEv
liblldb.so.14:_ZN4lldb20SBBreakpointLocation12SetConditionEPKc
liblldb.so.14:_ZN4lldb20SBBreakpointLocation12SetQueueNameEPKc
liblldb.so.14:_ZN4lldb20SBBreakpointLocation13GetBreakpointEv
liblldb.so.14:_ZN4lldb20SBBreakpointLocation13SetThreadNameEPKc
liblldb.so.14:_ZN4lldb20SBBreakpointLocation14GetDescriptionERNS_8SBStreamENS_16DescriptionLevelE
liblldb.so.14:_ZN4lldb20SBBreakpointLocation14GetIgnoreCountEv
liblldb.so.14:_ZN4lldb20SBBreakpointLocation14GetLoadAddressEv
liblldb.so.14:_ZN4lldb20SBBreakpointLocation14SetIgnoreCountEj
liblldb.so.14:_ZN4lldb20SBBreakpointLocation14SetThreadIndexEj
liblldb.so.14:_ZN4lldb20SBBreakpointLocation15GetAutoContinueEv
liblldb.so.14:_ZN4lldb20SBBreakpointLocation15SetAutoContinueEb
liblldb.so.14:_ZN4lldb20SBBreakpointLocation21SetScriptCallbackBodyEPKc
liblldb.so.14:_ZN4lldb20SBBreakpointLocation22GetCommandLineCommandsERNS_12SBStringListE
liblldb.so.14:_ZN4lldb20SBBreakpointLocation22SetCommandLineCommandsERNS_12SBStringListE
liblldb.so.14:_ZN4lldb20SBBreakpointLocation25SetScriptCallbackFunctionEPKc
liblldb.so.14:_ZN4lldb20SBBreakpointLocation25SetScriptCallbackFunctionEPKcRNS_16SBStructuredDataE
liblldb.so.14:_ZN4lldb20SBBreakpointLocation5GetIDEv
liblldb.so.14:_ZN4lldb20SBBreakpointLocation9IsEnabledEv
liblldb.so.14:_ZN4lldb20SBBreakpointLocationC1ERKS0_
liblldb.so.14:_ZN4lldb20SBBreakpointLocationC1ERKSt10shared_ptrIN12lldb_private18BreakpointLocationEE
liblldb.so.14:_ZN4lldb20SBBreakpointLocationC1Ev
liblldb.so.14:_ZN4lldb20SBBreakpointLocationC2ERKS0_
liblldb.so.14:_ZN4lldb20SBBreakpointLocationC2ERKSt10shared_ptrIN12lldb_private18BreakpointLocationEE
liblldb.so.14:_ZN4lldb20SBBreakpointLocationC2Ev
liblldb.so.14:_ZN4lldb20SBBreakpointLocationD1Ev
liblldb.so.14:_ZN4lldb20SBBreakpointLocationD2Ev
liblldb.so.14:_ZN4lldb20SBBreakpointLocationaSERKS0_
liblldb.so.14:_ZN4lldb20SBBreakpointNameImplC1ERNS_8SBTargetEPKc
liblldb.so.14:_ZN4lldb20SBBreakpointNameImplC2ERNS_8SBTargetEPKc
liblldb.so.14:_ZN4lldb20SBBreakpointNameImpleqERKS0_
liblldb.so.14:_ZN4lldb20SBBreakpointNameImplneERKS0_
liblldb.so.14:_ZN4lldb20SBCommandInterpreter10AddCommandEPKcPNS_24SBCommandPluginInterfaceES2_
liblldb.so.14:_ZN4lldb20SBCommandInterpreter10AddCommandEPKcPNS_24SBCommandPluginInterfaceES2_S2_
liblldb.so.14:_ZN4lldb20SBCommandInterpreter10AddCommandEPKcPNS_24SBCommandPluginInterfaceES2_S2_S2_
liblldb.so.14:_ZN4lldb20SBCommandInterpreter10GetProcessEv
liblldb.so.14:_ZN4lldb20SBCommandInterpreter10HasAliasesEv
liblldb.so.14:_ZN4lldb20SBCommandInterpreter11AliasExistsEPKc
liblldb.so.14:_ZN4lldb20SBCommandInterpreter11GetDebuggerEv
liblldb.so.14:_ZN4lldb20SBCommandInterpreter11HasCommandsEv
liblldb.so.14:_ZN4lldb20SBCommandInterpreter13CommandExistsEPKc
liblldb.so.14:_ZN4lldb20SBCommandInterpreter13GetQuitStatusEv
liblldb.so.14:_ZN4lldb20SBCommandInterpreter13HandleCommandEPKcRNS_18SBExecutionContextERNS_21SBCommandReturnObjectEb
liblldb.so.14:_ZN4lldb20SBCommandInterpreter13HandleCommandEPKcRNS_21SBCommandReturnObjectEb
liblldb.so.14:_ZN4lldb20SBCommandInterpreter14GetBroadcasterEv
liblldb.so.14:_ZN4lldb20SBCommandInterpreter14ResolveCommandEPKcRNS_21SBCommandReturnObjectE
liblldb.so.14:_ZN4lldb20SBCommandInterpreter15GetPromptOnQuitEv
liblldb.so.14:_ZN4lldb20SBCommandInterpreter15HasAliasOptionsEv
liblldb.so.14:_ZN4lldb20SBCommandInterpreter15SetPromptOnQuitEb
liblldb.so.14:_ZN4lldb20SBCommandInterpreter16HandleCompletionEPKcS2_S2_iiRNS_12SBStringListE
liblldb.so.14:_ZN4lldb20SBCommandInterpreter16HandleCompletionEPKcjiiRNS_12SBStringListE
liblldb.so.14:_ZN4lldb20SBCommandInterpreter19AddMultiwordCommandEPKcS2_
liblldb.so.14:_ZN4lldb20SBCommandInterpreter19AllowExitCodeOnQuitEb
liblldb.so.14:_ZN4lldb20SBCommandInterpreter19GetBroadcasterClassEv
liblldb.so.14:_ZN4lldb20SBCommandInterpreter21HasCustomQuitExitCodeEv
liblldb.so.14:_ZN4lldb20SBCommandInterpreter22HandleCommandsFromFileERNS_10SBFileSpecERNS_18SBExecutionContextERNS_30SBCommandInterpreterRunOptionsENS_21SBCommandReturnObjectE
liblldb.so.14:_ZN4lldb20SBCommandInterpreter24GetArgumentTypeAsCStringENS_19CommandArgumentTypeE
liblldb.so.14:_ZN4lldb20SBCommandInterpreter26SetCommandOverrideCallbackEPKcPFbPvPS2_ES3_
liblldb.so.14:_ZN4lldb20SBCommandInterpreter27GetIOHandlerControlSequenceEc
liblldb.so.14:_ZN4lldb20SBCommandInterpreter29SourceInitFileInHomeDirectoryERNS_21SBCommandReturnObjectE
liblldb.so.14:_ZN4lldb20SBCommandInterpreter29SourceInitFileInHomeDirectoryERNS_21SBCommandReturnObjectEb
liblldb.so.14:_ZN4lldb20SBCommandInterpreter30EventIsCommandInterpreterEventERKNS_7SBEventE
liblldb.so.14:_ZN4lldb20SBCommandInterpreter31GetArgumentDescriptionAsCStringENS_19CommandArgumentTypeE
liblldb.so.14:_ZN4lldb20SBCommandInterpreter32HandleCompletionWithDescriptionsEPKcS2_S2_iiRNS_12SBStringListES4_
liblldb.so.14:_ZN4lldb20SBCommandInterpreter32HandleCompletionWithDescriptionsEPKcjiiRNS_12SBStringListES4_
liblldb.so.14:_ZN4lldb20SBCommandInterpreter39SourceInitFileInCurrentWorkingDirectoryERNS_21SBCommandReturnObjectE
liblldb.so.14:_ZN4lldb20SBCommandInterpreter3getEv
liblldb.so.14:_ZN4lldb20SBCommandInterpreter3refEv
liblldb.so.14:_ZN4lldb20SBCommandInterpreter5resetEPN12lldb_private18CommandInterpreterE
liblldb.so.14:_ZN4lldb20SBCommandInterpreter8IsActiveEv
liblldb.so.14:_ZN4lldb20SBCommandInterpreterC1EPN12lldb_private18CommandInterpreterE
liblldb.so.14:_ZN4lldb20SBCommandInterpreterC1ERKS0_
liblldb.so.14:_ZN4lldb20SBCommandInterpreterC2EPN12lldb_private18CommandInterpreterE
liblldb.so.14:_ZN4lldb20SBCommandInterpreterC2ERKS0_
liblldb.so.14:_ZN4lldb20SBCommandInterpreterD1Ev
liblldb.so.14:_ZN4lldb20SBCommandInterpreterD2Ev
liblldb.so.14:_ZN4lldb20SBCommandInterpreteraSERKS0_
liblldb.so.14:_ZN4lldb20SBTypeEnumMemberList24GetTypeEnumMemberAtIndexEj
liblldb.so.14:_ZN4lldb20SBTypeEnumMemberList6AppendENS_16SBTypeEnumMemberE
liblldb.so.14:_ZN4lldb20SBTypeEnumMemberList7GetSizeEv
liblldb.so.14:_ZN4lldb20SBTypeEnumMemberList7IsValidEv
liblldb.so.14:_ZN4lldb20SBTypeEnumMemberListC1ERKS0_
liblldb.so.14:_ZN4lldb20SBTypeEnumMemberListC1Ev
liblldb.so.14:_ZN4lldb20SBTypeEnumMemberListC2ERKS0_
liblldb.so.14:_ZN4lldb20SBTypeEnumMemberListC2Ev
liblldb.so.14:_ZN4lldb20SBTypeEnumMemberListD1Ev
liblldb.so.14:_ZN4lldb20SBTypeEnumMemberListD2Ev
liblldb.so.14:_ZN4lldb20SBTypeEnumMemberListaSERKS0_
liblldb.so.14:_ZN4lldb20SBTypeMemberFunction13GetReturnTypeEv
liblldb.so.14:_ZN4lldb20SBTypeMemberFunction14GetDescriptionERNS_8SBStreamENS_16DescriptionLevelE
liblldb.so.14:_ZN4lldb20SBTypeMemberFunction14GetMangledNameEv
liblldb.so.14:_ZN4lldb20SBTypeMemberFunction16GetDemangledNameEv
liblldb.so.14:_ZN4lldb20SBTypeMemberFunction20GetNumberOfArgumentsEv
liblldb.so.14:_ZN4lldb20SBTypeMemberFunction22GetArgumentTypeAtIndexEj
liblldb.so.14:_ZN4lldb20SBTypeMemberFunction3refEv
liblldb.so.14:_ZN4lldb20SBTypeMemberFunction5resetEPN12lldb_private22TypeMemberFunctionImplE
liblldb.so.14:_ZN4lldb20SBTypeMemberFunction7GetKindEv
liblldb.so.14:_ZN4lldb20SBTypeMemberFunction7GetNameEv
liblldb.so.14:_ZN4lldb20SBTypeMemberFunction7GetTypeEv
liblldb.so.14:_ZN4lldb20SBTypeMemberFunctionC1ERKS0_
liblldb.so.14:_ZN4lldb20SBTypeMemberFunctionC1Ev
liblldb.so.14:_ZN4lldb20SBTypeMemberFunctionC2ERKS0_
liblldb.so.14:_ZN4lldb20SBTypeMemberFunctionC2Ev
liblldb.so.14:_ZN4lldb20SBTypeMemberFunctionD1Ev
liblldb.so.14:_ZN4lldb20SBTypeMemberFunctionD2Ev
liblldb.so.14:_ZN4lldb20SBTypeMemberFunctionaSERKS0_
liblldb.so.14:_ZN4lldb20SBTypeSummaryOptions10GetCappingEv
liblldb.so.14:_ZN4lldb20SBTypeSummaryOptions10SetCappingENS_18TypeSummaryCappingE
liblldb.so.14:_ZN4lldb20SBTypeSummaryOptions11GetLanguageEv
liblldb.so.14:_ZN4lldb20SBTypeSummaryOptions11SetLanguageENS_12LanguageTypeE
liblldb.so.14:_ZN4lldb20SBTypeSummaryOptions3getEv
liblldb.so.14:_ZN4lldb20SBTypeSummaryOptions3refEv
liblldb.so.14:_ZN4lldb20SBTypeSummaryOptions7IsValidEv
liblldb.so.14:_ZN4lldb20SBTypeSummaryOptionsC1ERKN12lldb_private18TypeSummaryOptionsE
liblldb.so.14:_ZN4lldb20SBTypeSummaryOptionsC1ERKS0_
liblldb.so.14:_ZN4lldb20SBTypeSummaryOptionsC1Ev
liblldb.so.14:_ZN4lldb20SBTypeSummaryOptionsC2ERKN12lldb_private18TypeSummaryOptionsE
liblldb.so.14:_ZN4lldb20SBTypeSummaryOptionsC2ERKS0_
liblldb.so.14:_ZN4lldb20SBTypeSummaryOptionsC2Ev
liblldb.so.14:_ZN4lldb20SBTypeSummaryOptionsD1Ev
liblldb.so.14:_ZN4lldb20SBTypeSummaryOptionsD2Ev
liblldb.so.14:_ZN4lldb20SBTypeSummaryOptionsptEv
liblldb.so.14:_ZN4lldb21SBCommandReturnObject10PutCStringEPKci
liblldb.so.14:_ZN4lldb21SBCommandReturnObject12GetErrorSizeEv
liblldb.so.14:_ZN4lldb21SBCommandReturnObject13AppendMessageEPKc
liblldb.so.14:_ZN4lldb21SBCommandReturnObject13AppendWarningEPKc
liblldb.so.14:_ZN4lldb21SBCommandReturnObject13GetOutputSizeEv
liblldb.so.14:_ZN4lldb21SBCommandReturnObject14GetDescriptionERNS_8SBStreamE
liblldb.so.14:_ZN4lldb21SBCommandReturnObject21SetImmediateErrorFileENS_6SBFileE
liblldb.so.14:_ZN4lldb21SBCommandReturnObject21SetImmediateErrorFileEP8_IO_FILE
liblldb.so.14:_ZN4lldb21SBCommandReturnObject21SetImmediateErrorFileEP8_IO_FILEb
liblldb.so.14:_ZN4lldb21SBCommandReturnObject21SetImmediateErrorFileESt10shared_ptrIN12lldb_private4FileEE
liblldb.so.14:_ZN4lldb21SBCommandReturnObject22SetImmediateOutputFileENS_6SBFileE
liblldb.so.14:_ZN4lldb21SBCommandReturnObject22SetImmediateOutputFileEP8_IO_FILE
liblldb.so.14:_ZN4lldb21SBCommandReturnObject22SetImmediateOutputFileEP8_IO_FILEb
liblldb.so.14:_ZN4lldb21SBCommandReturnObject22SetImmediateOutputFileESt10shared_ptrIN12lldb_private4FileEE
liblldb.so.14:_ZN4lldb21SBCommandReturnObject5ClearEv
liblldb.so.14:_ZN4lldb21SBCommandReturnObject6PrintfEPKcz
liblldb.so.14:_ZN4lldb21SBCommandReturnObject8GetErrorEb
liblldb.so.14:_ZN4lldb21SBCommandReturnObject8GetErrorEv
liblldb.so.14:_ZN4lldb21SBCommandReturnObject8PutErrorENS_6SBFileE
liblldb.so.14:_ZN4lldb21SBCommandReturnObject8PutErrorEP8_IO_FILE
liblldb.so.14:_ZN4lldb21SBCommandReturnObject8PutErrorESt10shared_ptrIN12lldb_private4FileEE
liblldb.so.14:_ZN4lldb21SBCommandReturnObject8SetErrorEPKc
liblldb.so.14:_ZN4lldb21SBCommandReturnObject8SetErrorERNS_7SBErrorEPKc
liblldb.so.14:_ZN4lldb21SBCommandReturnObject9GetOutputEb
liblldb.so.14:_ZN4lldb21SBCommandReturnObject9GetOutputEv
liblldb.so.14:_ZN4lldb21SBCommandReturnObject9GetStatusEv
liblldb.so.14:_ZN4lldb21SBCommandReturnObject9HasResultEv
liblldb.so.14:_ZN4lldb21SBCommandReturnObject9PutOutputENS_6SBFileE
liblldb.so.14:_ZN4lldb21SBCommandReturnObject9PutOutputEP8_IO_FILE
liblldb.so.14:_ZN4lldb21SBCommandReturnObject9PutOutputESt10shared_ptrIN12lldb_private4FileEE
liblldb.so.14:_ZN4lldb21SBCommandReturnObject9SetStatusENS_12ReturnStatusE
liblldb.so.14:_ZN4lldb21SBCommandReturnObject9SucceededEv
liblldb.so.14:_ZN4lldb21SBCommandReturnObjectC1ERKS0_
liblldb.so.14:_ZN4lldb21SBCommandReturnObjectC1ERN12lldb_private19CommandReturnObjectE
liblldb.so.14:_ZN4lldb21SBCommandReturnObjectC1Ev
liblldb.so.14:_ZN4lldb21SBCommandReturnObjectC2ERKS0_
liblldb.so.14:_ZN4lldb21SBCommandReturnObjectC2ERN12lldb_private19CommandReturnObjectE
liblldb.so.14:_ZN4lldb21SBCommandReturnObjectC2Ev
liblldb.so.14:_ZN4lldb21SBCommandReturnObjectD1Ev
liblldb.so.14:_ZN4lldb21SBCommandReturnObjectD2Ev
liblldb.so.14:_ZN4lldb21SBCommandReturnObjectaSERKS0_
liblldb.so.14:_ZN4lldb22SBMemoryRegionInfoList22GetMemoryRegionAtIndexEjRNS_18SBMemoryRegionInfoE
liblldb.so.14:_ZN4lldb22SBMemoryRegionInfoList32GetMemoryRegionContainingAddressEmRNS_18SBMemoryRegionInfoE
liblldb.so.14:_ZN4lldb22SBMemoryRegionInfoList3refEv
liblldb.so.14:_ZN4lldb22SBMemoryRegionInfoList5ClearEv
liblldb.so.14:_ZN4lldb22SBMemoryRegionInfoList6AppendERNS_18SBMemoryRegionInfoE
liblldb.so.14:_ZN4lldb22SBMemoryRegionInfoList6AppendERS0_
liblldb.so.14:_ZN4lldb22SBMemoryRegionInfoListC1ERKS0_
liblldb.so.14:_ZN4lldb22SBMemoryRegionInfoListC1Ev
liblldb.so.14:_ZN4lldb22SBMemoryRegionInfoListC2ERKS0_
liblldb.so.14:_ZN4lldb22SBMemoryRegionInfoListC2Ev
liblldb.so.14:_ZN4lldb22SBMemoryRegionInfoListD1Ev
liblldb.so.14:_ZN4lldb22SBMemoryRegionInfoListD2Ev
liblldb.so.14:_ZN4lldb22SBMemoryRegionInfoListaSERKS0_
liblldb.so.14:_ZN4lldb22SBPlatformShellCommand10GetCommandEv
liblldb.so.14:_ZN4lldb22SBPlatformShellCommand10SetCommandEPKc
liblldb.so.14:_ZN4lldb22SBPlatformShellCommand17GetTimeoutSecondsEv
liblldb.so.14:_ZN4lldb22SBPlatformShellCommand17SetTimeoutSecondsEj
liblldb.so.14:_ZN4lldb22SBPlatformShellCommand19GetWorkingDirectoryEv
liblldb.so.14:_ZN4lldb22SBPlatformShellCommand19SetWorkingDirectoryEPKc
liblldb.so.14:_ZN4lldb22SBPlatformShellCommand5ClearEv
liblldb.so.14:_ZN4lldb22SBPlatformShellCommand8GetShellEv
liblldb.so.14:_ZN4lldb22SBPlatformShellCommand8SetShellEPKc
liblldb.so.14:_ZN4lldb22SBPlatformShellCommand9GetOutputEv
liblldb.so.14:_ZN4lldb22SBPlatformShellCommand9GetSignalEv
liblldb.so.14:_ZN4lldb22SBPlatformShellCommand9GetStatusEv
liblldb.so.14:_ZN4lldb22SBPlatformShellCommandC1EPKc
liblldb.so.14:_ZN4lldb22SBPlatformShellCommandC1EPKcS2_
liblldb.so.14:_ZN4lldb22SBPlatformShellCommandC1ERKS0_
liblldb.so.14:_ZN4lldb22SBPlatformShellCommandC2EPKc
liblldb.so.14:_ZN4lldb22SBPlatformShellCommandC2EPKcS2_
liblldb.so.14:_ZN4lldb22SBPlatformShellCommandC2ERKS0_
liblldb.so.14:_ZN4lldb22SBPlatformShellCommandD1Ev
liblldb.so.14:_ZN4lldb22SBPlatformShellCommandD2Ev
liblldb.so.14:_ZN4lldb22SBPlatformShellCommandaSERKS0_
liblldb.so.14:_ZN4lldb24SBPlatformConnectOptions11EnableRsyncEPKcS2_b
liblldb.so.14:_ZN4lldb24SBPlatformConnectOptions12DisableRsyncEv
liblldb.so.14:_ZN4lldb24SBPlatformConnectOptions15GetRsyncEnabledEv
liblldb.so.14:_ZN4lldb24SBPlatformConnectOptions22GetLocalCacheDirectoryEv
liblldb.so.14:_ZN4lldb24SBPlatformConnectOptions22SetLocalCacheDirectoryEPKc
liblldb.so.14:_ZN4lldb24SBPlatformConnectOptions6GetURLEv
liblldb.so.14:_ZN4lldb24SBPlatformConnectOptions6SetURLEPKc
liblldb.so.14:_ZN4lldb24SBPlatformConnectOptionsC1EPKc
liblldb.so.14:_ZN4lldb24SBPlatformConnectOptionsC1ERKS0_
liblldb.so.14:_ZN4lldb24SBPlatformConnectOptionsC2EPKc
liblldb.so.14:_ZN4lldb24SBPlatformConnectOptionsC2ERKS0_
liblldb.so.14:_ZN4lldb24SBPlatformConnectOptionsD1Ev
liblldb.so.14:_ZN4lldb24SBPlatformConnectOptionsD2Ev
liblldb.so.14:_ZN4lldb24SBPlatformConnectOptionsaSERKS0_
liblldb.so.14:_ZN4lldb25SBBreakpointCallbackBaton28PrivateBreakpointHitCallbackEPvPN12lldb_private24StoppointCallbackContextEmm
liblldb.so.14:_ZN4lldb25SBBreakpointCallbackBatonC1EPFbPvRNS_9SBProcessERNS_8SBThreadERNS_20SBBreakpointLocationEES1_
liblldb.so.14:_ZN4lldb25SBBreakpointCallbackBatonC2EPFbPvRNS_9SBProcessERNS_8SBThreadERNS_20SBBreakpointLocationEES1_
liblldb.so.14:_ZN4lldb25SBBreakpointCallbackBatonD0Ev
liblldb.so.14:_ZN4lldb25SBBreakpointCallbackBatonD1Ev
liblldb.so.14:_ZN4lldb25SBBreakpointCallbackBatonD2Ev
liblldb.so.14:_ZN4lldb29SBCommandInterpreterRunResultC1ERKN12lldb_private27CommandInterpreterRunResultE
liblldb.so.14:_ZN4lldb29SBCommandInterpreterRunResultC1ERKS0_
liblldb.so.14:_ZN4lldb29SBCommandInterpreterRunResultC1Ev
liblldb.so.14:_ZN4lldb29SBCommandInterpreterRunResultC2ERKN12lldb_private27CommandInterpreterRunResultE
liblldb.so.14:_ZN4lldb29SBCommandInterpreterRunResultC2ERKS0_
liblldb.so.14:_ZN4lldb29SBCommandInterpreterRunResultC2Ev
liblldb.so.14:_ZN4lldb29SBCommandInterpreterRunResultD1Ev
liblldb.so.14:_ZN4lldb29SBCommandInterpreterRunResultD2Ev
liblldb.so.14:_ZN4lldb29SBCommandInterpreterRunResultaSERKS0_
liblldb.so.14:_ZN4lldb30SBCommandInterpreterRunOptions14SetPrintErrorsEb
liblldb.so.14:_ZN4lldb30SBCommandInterpreterRunOptions14SetSpawnThreadEb
liblldb.so.14:_ZN4lldb30SBCommandInterpreterRunOptions14SetStopOnCrashEb
liblldb.so.14:_ZN4lldb30SBCommandInterpreterRunOptions14SetStopOnErrorEb
liblldb.so.14:_ZN4lldb30SBCommandInterpreterRunOptions15SetAddToHistoryEb
liblldb.so.14:_ZN4lldb30SBCommandInterpreterRunOptions15SetEchoCommandsEb
liblldb.so.14:_ZN4lldb30SBCommandInterpreterRunOptions15SetPrintResultsEb
liblldb.so.14:_ZN4lldb30SBCommandInterpreterRunOptions17SetStopOnContinueEb
liblldb.so.14:_ZN4lldb30SBCommandInterpreterRunOptions19SetAutoHandleEventsEb
liblldb.so.14:_ZN4lldb30SBCommandInterpreterRunOptions22SetEchoCommentCommandsEb
liblldb.so.14:_ZN4lldb30SBCommandInterpreterRunOptionsC1ERKS0_
liblldb.so.14:_ZN4lldb30SBCommandInterpreterRunOptionsC1Ev
liblldb.so.14:_ZN4lldb30SBCommandInterpreterRunOptionsC2ERKS0_
liblldb.so.14:_ZN4lldb30SBCommandInterpreterRunOptionsC2Ev
liblldb.so.14:_ZN4lldb30SBCommandInterpreterRunOptionsD1Ev
liblldb.so.14:_ZN4lldb30SBCommandInterpreterRunOptionsD2Ev
liblldb.so.14:_ZN4lldb30SBCommandInterpreterRunOptionsaSERKS0_
liblldb.so.14:_ZN4lldb33DumpProcessGDBRemotePacketHistoryEPvPKc
liblldb.so.14:_ZN4lldb6SBData10GetAddressERNS_7SBErrorEm
liblldb.so.14:_ZN4lldb6SBData11GetByteSizeEv
liblldb.so.14:_ZN4lldb6SBData11ReadRawDataERNS_7SBErrorEmPvm
liblldb.so.14:_ZN4lldb6SBData12GetByteOrderEv
liblldb.so.14:_ZN4lldb6SBData12SetByteOrderENS_9ByteOrderE
liblldb.so.14:_ZN4lldb6SBData13GetLongDoubleERNS_7SBErrorEm
liblldb.so.14:_ZN4lldb6SBData13GetSignedInt8ERNS_7SBErrorEm
liblldb.so.14:_ZN4lldb6SBData14GetDescriptionERNS_8SBStreamEm
liblldb.so.14:_ZN4lldb6SBData14GetSignedInt16ERNS_7SBErrorEm
liblldb.so.14:_ZN4lldb6SBData14GetSignedInt32ERNS_7SBErrorEm
liblldb.so.14:_ZN4lldb6SBData14GetSignedInt64ERNS_7SBErrorEm
liblldb.so.14:_ZN4lldb6SBData15GetUnsignedInt8ERNS_7SBErrorEm
liblldb.so.14:_ZN4lldb6SBData16GetUnsignedInt16ERNS_7SBErrorEm
liblldb.so.14:_ZN4lldb6SBData16GetUnsignedInt32ERNS_7SBErrorEm
liblldb.so.14:_ZN4lldb6SBData16GetUnsignedInt64ERNS_7SBErrorEm
liblldb.so.14:_ZN4lldb6SBData18GetAddressByteSizeEv
liblldb.so.14:_ZN4lldb6SBData18SetAddressByteSizeEh
liblldb.so.14:_ZN4lldb6SBData18SetDataFromCStringEPKc
liblldb.so.14:_ZN4lldb6SBData20SetDataWithOwnershipERNS_7SBErrorEPKvmNS_9ByteOrderEh
liblldb.so.14:_ZN4lldb6SBData21CreateDataFromCStringENS_9ByteOrderEjPKc
liblldb.so.14:_ZN4lldb6SBData22SetDataFromDoubleArrayEPdm
liblldb.so.14:_ZN4lldb6SBData22SetDataFromSInt32ArrayEPim
liblldb.so.14:_ZN4lldb6SBData22SetDataFromSInt64ArrayEPlm
liblldb.so.14:_ZN4lldb6SBData22SetDataFromUInt32ArrayEPjm
liblldb.so.14:_ZN4lldb6SBData22SetDataFromUInt64ArrayEPmm
liblldb.so.14:_ZN4lldb6SBData25CreateDataFromDoubleArrayENS_9ByteOrderEjPdm
liblldb.so.14:_ZN4lldb6SBData25CreateDataFromSInt32ArrayENS_9ByteOrderEjPim
liblldb.so.14:_ZN4lldb6SBData25CreateDataFromSInt64ArrayENS_9ByteOrderEjPlm
liblldb.so.14:_ZN4lldb6SBData25CreateDataFromUInt32ArrayENS_9ByteOrderEjPjm
liblldb.so.14:_ZN4lldb6SBData25CreateDataFromUInt64ArrayENS_9ByteOrderEjPmm
liblldb.so.14:_ZN4lldb6SBData5ClearEv
liblldb.so.14:_ZN4lldb6SBData6AppendERKS0_
liblldb.so.14:_ZN4lldb6SBData7IsValidEv
liblldb.so.14:_ZN4lldb6SBData7SetDataERNS_7SBErrorEPKvmNS_9ByteOrderEh
liblldb.so.14:_ZN4lldb6SBData8GetFloatERNS_7SBErrorEm
liblldb.so.14:_ZN4lldb6SBData9GetDoubleERNS_7SBErrorEm
liblldb.so.14:_ZN4lldb6SBData9GetStringERNS_7SBErrorEm
liblldb.so.14:_ZN4lldb6SBData9SetOpaqueERKSt10shared_ptrIN12lldb_private13DataExtractorEE
liblldb.so.14:_ZN4lldb6SBDataC1ERKS0_
liblldb.so.14:_ZN4lldb6SBDataC1ERKSt10shared_ptrIN12lldb_private13DataExtractorEE
liblldb.so.14:_ZN4lldb6SBDataC1Ev
liblldb.so.14:_ZN4lldb6SBDataC2ERKS0_
liblldb.so.14:_ZN4lldb6SBDataC2ERKSt10shared_ptrIN12lldb_private13DataExtractorEE
liblldb.so.14:_ZN4lldb6SBDataC2Ev
liblldb.so.14:_ZN4lldb6SBDataD1Ev
liblldb.so.14:_ZN4lldb6SBDataD2Ev
liblldb.so.14:_ZN4lldb6SBDataaSERKS0_
liblldb.so.14:_ZN4lldb6SBDatadeEv
liblldb.so.14:_ZN4lldb6SBFile4ReadEPhmPm
liblldb.so.14:_ZN4lldb6SBFile5CloseEv
liblldb.so.14:_ZN4lldb6SBFile5FlushEv
liblldb.so.14:_ZN4lldb6SBFile5WriteEPKhmPm
liblldb.so.14:_ZN4lldb6SBFileC1EP8_IO_FILEb
liblldb.so.14:_ZN4lldb6SBFileC1ERKS0_
liblldb.so.14:_ZN4lldb6SBFileC1ESt10shared_ptrIN12lldb_private4FileEE
liblldb.so.14:_ZN4lldb6SBFileC1EiPKcb
liblldb.so.14:_ZN4lldb6SBFileC1Ev
liblldb.so.14:_ZN4lldb6SBFileC2EP8_IO_FILEb
liblldb.so.14:_ZN4lldb6SBFileC2ERKS0_
liblldb.so.14:_ZN4lldb6SBFileC2ESt10shared_ptrIN12lldb_private4FileEE
liblldb.so.14:_ZN4lldb6SBFileC2EiPKcb
liblldb.so.14:_ZN4lldb6SBFileC2Ev
liblldb.so.14:_ZN4lldb6SBFileD1Ev
liblldb.so.14:_ZN4lldb6SBFileD2Ev
liblldb.so.14:_ZN4lldb6SBFileaSERKS0_
liblldb.so.14:_ZN4lldb6SBType11GetByteSizeEv
liblldb.so.14:_ZN4lldb6SBType11IsArrayTypeEv
liblldb.so.14:_ZN4lldb6SBType12GetArrayTypeEm
liblldb.so.14:_ZN4lldb6SBType12GetBasicTypeENS_9BasicTypeE
liblldb.so.14:_ZN4lldb6SBType12GetBasicTypeEv
liblldb.so.14:_ZN4lldb6SBType12GetTypeClassEv
liblldb.so.14:_ZN4lldb6SBType12GetTypeFlagsEv
liblldb.so.14:_ZN4lldb6SBType12IsVectorTypeEv
liblldb.so.14:_ZN4lldb6SBType13IsPointerTypeEv
liblldb.so.14:_ZN4lldb6SBType13IsTypedefTypeEv
liblldb.so.14:_ZN4lldb6SBType14GetDescriptionERNS_8SBStreamENS_16DescriptionLevelE
liblldb.so.14:_ZN4lldb6SBType14GetEnumMembersEv
liblldb.so.14:_ZN4lldb6SBType14GetPointeeTypeEv
liblldb.so.14:_ZN4lldb6SBType14GetPointerTypeEv
liblldb.so.14:_ZN4lldb6SBType14IsFunctionTypeEv
liblldb.so.14:_ZN4lldb6SBType14IsTypeCompleteEv
liblldb.so.14:_ZN4lldb6SBType15GetFieldAtIndexEj
liblldb.so.14:_ZN4lldb6SBType15IsAnonymousTypeEv
liblldb.so.14:_ZN4lldb6SBType15IsReferenceTypeEv
liblldb.so.14:_ZN4lldb6SBType16GetCanonicalTypeEv
liblldb.so.14:_ZN4lldb6SBType16GetReferenceTypeEv
liblldb.so.14:_ZN4lldb6SBType16GetTypedefedTypeEv
liblldb.so.14:_ZN4lldb6SBType17GetNumberOfFieldsEv
liblldb.so.14:_ZN4lldb6SBType18GetDisplayTypeNameEv
liblldb.so.14:_ZN4lldb6SBType18GetUnqualifiedTypeEv
liblldb.so.14:_ZN4lldb6SBType18IsPolymorphicClassEv
liblldb.so.14:_ZN4lldb6SBType19GetArrayElementTypeEv
liblldb.so.14:_ZN4lldb6SBType19GetDereferencedTypeEv
liblldb.so.14:_ZN4lldb6SBType20GetVectorElementTypeEv
liblldb.so.14:_ZN4lldb6SBType21GetFunctionReturnTypeEv
liblldb.so.14:_ZN4lldb6SBType23GetTemplateArgumentKindEj
liblldb.so.14:_ZN4lldb6SBType23GetTemplateArgumentTypeEj
liblldb.so.14:_ZN4lldb6SBType23IsScopedEnumerationTypeEv
liblldb.so.14:_ZN4lldb6SBType24GetFunctionArgumentTypesEv
liblldb.so.14:_ZN4lldb6SBType24GetMemberFunctionAtIndexEj
liblldb.so.14:_ZN4lldb6SBType25GetDirectBaseClassAtIndexEj
liblldb.so.14:_ZN4lldb6SBType25GetEnumerationIntegerTypeEv
liblldb.so.14:_ZN4lldb6SBType26GetNumberOfMemberFunctionsEv
liblldb.so.14:_ZN4lldb6SBType26GetVirtualBaseClassAtIndexEj
liblldb.so.14:_ZN4lldb6SBType28GetNumberOfDirectBaseClassesEv
liblldb.so.14:_ZN4lldb6SBType28GetNumberOfTemplateArgumentsEv
liblldb.so.14:_ZN4lldb6SBType29GetNumberOfVirtualBaseClassesEv
liblldb.so.14:_ZN4lldb6SBType3refEv
liblldb.so.14:_ZN4lldb6SBType5GetSPEv
liblldb.so.14:_ZN4lldb6SBType5SetSPERKSt10shared_ptrIN12lldb_private8TypeImplEE
liblldb.so.14:_ZN4lldb6SBType7GetNameEv
liblldb.so.14:_ZN4lldb6SBType9GetModuleEv
liblldb.so.14:_ZN4lldb6SBTypeC1ERKN12lldb_private12CompilerTypeE
liblldb.so.14:_ZN4lldb6SBTypeC1ERKS0_
liblldb.so.14:_ZN4lldb6SBTypeC1ERKSt10shared_ptrIN12lldb_private4TypeEE
liblldb.so.14:_ZN4lldb6SBTypeC1ERKSt10shared_ptrIN12lldb_private8TypeImplEE
liblldb.so.14:_ZN4lldb6SBTypeC1Ev
liblldb.so.14:_ZN4lldb6SBTypeC2ERKN12lldb_private12CompilerTypeE
liblldb.so.14:_ZN4lldb6SBTypeC2ERKS0_
liblldb.so.14:_ZN4lldb6SBTypeC2ERKSt10shared_ptrIN12lldb_private4TypeEE
liblldb.so.14:_ZN4lldb6SBTypeC2ERKSt10shared_ptrIN12lldb_private8TypeImplEE
liblldb.so.14:_ZN4lldb6SBTypeC2Ev
liblldb.so.14:_ZN4lldb6SBTypeD1Ev
liblldb.so.14:_ZN4lldb6SBTypeD2Ev
liblldb.so.14:_ZN4lldb6SBTypeaSERKS0_
liblldb.so.14:_ZN4lldb6SBTypeeqERS0_
liblldb.so.14:_ZN4lldb6SBTypeneERS0_
liblldb.so.14:_ZN4lldb7SBBlock10GetSiblingEv
liblldb.so.14:_ZN4lldb7SBBlock12GetNumRangesEv
liblldb.so.14:_ZN4lldb7SBBlock12GetVariablesERNS_7SBFrameEbbbNS_16DynamicValueTypeE
liblldb.so.14:_ZN4lldb7SBBlock12GetVariablesERNS_8SBTargetEbbb
liblldb.so.14:_ZN4lldb7SBBlock13GetFirstChildEv
liblldb.so.14:_ZN4lldb7SBBlock14GetDescriptionERNS_8SBStreamE
liblldb.so.14:_ZN4lldb7SBBlock15AppendVariablesEbbPN12lldb_private12VariableListE
liblldb.so.14:_ZN4lldb7SBBlock18GetRangeEndAddressEj
liblldb.so.14:_ZN4lldb7SBBlock20GetRangeStartAddressEj
liblldb.so.14:_ZN4lldb7SBBlock25GetContainingInlinedBlockEv
liblldb.so.14:_ZN4lldb7SBBlock28GetRangeIndexForBlockAddressENS_9SBAddressE
liblldb.so.14:_ZN4lldb7SBBlock6GetPtrEv
liblldb.so.14:_ZN4lldb7SBBlock6SetPtrEPN12lldb_private5BlockE
liblldb.so.14:_ZN4lldb7SBBlock9GetParentEv
liblldb.so.14:_ZN4lldb7SBBlockC1EPN12lldb_private5BlockE
liblldb.so.14:_ZN4lldb7SBBlockC1ERKS0_
liblldb.so.14:_ZN4lldb7SBBlockC1Ev
liblldb.so.14:_ZN4lldb7SBBlockC2EPN12lldb_private5BlockE
liblldb.so.14:_ZN4lldb7SBBlockC2ERKS0_
liblldb.so.14:_ZN4lldb7SBBlockC2Ev
liblldb.so.14:_ZN4lldb7SBBlockD1Ev
liblldb.so.14:_ZN4lldb7SBBlockD2Ev
liblldb.so.14:_ZN4lldb7SBBlockaSERKS0_
liblldb.so.14:_ZN4lldb7SBError14CreateIfNeededEv
liblldb.so.14:_ZN4lldb7SBError14GetDescriptionERNS_8SBStreamE
liblldb.so.14:_ZN4lldb7SBError14SetErrorStringEPKc
liblldb.so.14:_ZN4lldb7SBError15SetErrorToErrnoEv
liblldb.so.14:_ZN4lldb7SBError22SetErrorToGenericErrorEv
liblldb.so.14:_ZN4lldb7SBError24SetErrorStringWithFormatEPKcz
liblldb.so.14:_ZN4lldb7SBError3getEv
liblldb.so.14:_ZN4lldb7SBError3refEv
liblldb.so.14:_ZN4lldb7SBError5ClearEv
liblldb.so.14:_ZN4lldb7SBError8SetErrorERKN12lldb_private6StatusE
liblldb.so.14:_ZN4lldb7SBError8SetErrorEjNS_9ErrorTypeE
liblldb.so.14:_ZN4lldb7SBErrorC1ERKS0_
liblldb.so.14:_ZN4lldb7SBErrorC1Ev
liblldb.so.14:_ZN4lldb7SBErrorC2ERKS0_
liblldb.so.14:_ZN4lldb7SBErrorC2Ev
liblldb.so.14:_ZN4lldb7SBErrorD1Ev
liblldb.so.14:_ZN4lldb7SBErrorD2Ev
liblldb.so.14:_ZN4lldb7SBErroraSERKS0_
liblldb.so.14:_ZN4lldb7SBErrorptEv
liblldb.so.14:_ZN4lldb7SBEvent13GetDataFlavorEv
liblldb.so.14:_ZN4lldb7SBEvent14GetDescriptionERNS_8SBStreamE
liblldb.so.14:_ZN4lldb7SBEvent19GetCStringFromEventERKS0_
liblldb.so.14:_ZN4lldb7SBEvent21BroadcasterMatchesPtrEPKNS_13SBBroadcasterE
liblldb.so.14:_ZN4lldb7SBEvent21BroadcasterMatchesRefERKNS_13SBBroadcasterE
liblldb.so.14:_ZN4lldb7SBEvent5ClearEv
liblldb.so.14:_ZN4lldb7SBEvent5resetEPN12lldb_private5EventE
liblldb.so.14:_ZN4lldb7SBEvent5resetERSt10shared_ptrIN12lldb_private5EventEE
liblldb.so.14:_ZN4lldb7SBEventC1EPN12lldb_private5EventE
liblldb.so.14:_ZN4lldb7SBEventC1ERKS0_
liblldb.so.14:_ZN4lldb7SBEventC1ERSt10shared_ptrIN12lldb_private5EventEE
liblldb.so.14:_ZN4lldb7SBEventC1EjPKcj
liblldb.so.14:_ZN4lldb7SBEventC1Ev
liblldb.so.14:_ZN4lldb7SBEventC2EPN12lldb_private5EventE
liblldb.so.14:_ZN4lldb7SBEventC2ERKS0_
liblldb.so.14:_ZN4lldb7SBEventC2ERSt10shared_ptrIN12lldb_private5EventEE
liblldb.so.14:_ZN4lldb7SBEventC2EjPKcj
liblldb.so.14:_ZN4lldb7SBEventC2Ev
liblldb.so.14:_ZN4lldb7SBEventD1Ev
liblldb.so.14:_ZN4lldb7SBEventD2Ev
liblldb.so.14:_ZN4lldb7SBEventaSERKS0_
liblldb.so.14:_ZN4lldb7SBFrame10SetFrameSPERKSt10shared_ptrIN12lldb_private10StackFrameEE
liblldb.so.14:_ZN4lldb7SBFrame12FindRegisterEPKc
liblldb.so.14:_ZN4lldb7SBFrame12FindVariableEPKc
liblldb.so.14:_ZN4lldb7SBFrame12FindVariableEPKcNS_16DynamicValueTypeE
liblldb.so.14:_ZN4lldb7SBFrame12GetRegistersEv
liblldb.so.14:_ZN4lldb7SBFrame12GetVariablesERKNS_18SBVariablesOptionsE
liblldb.so.14:_ZN4lldb7SBFrame12GetVariablesEbbbb
liblldb.so.14:_ZN4lldb7SBFrame12GetVariablesEbbbbNS_16DynamicValueTypeE
liblldb.so.14:_ZN4lldb7SBFrame12IsArtificialEv
liblldb.so.14:_ZN4lldb7SBFrame14GetDescriptionERNS_8SBStreamE
liblldb.so.14:_ZN4lldb7SBFrame15GetFunctionNameEv
liblldb.so.14:_ZN4lldb7SBFrame18EvaluateExpressionEPKc
liblldb.so.14:_ZN4lldb7SBFrame18EvaluateExpressionEPKcNS_16DynamicValueTypeE
liblldb.so.14:_ZN4lldb7SBFrame18EvaluateExpressionEPKcNS_16DynamicValueTypeEb
liblldb.so.14:_ZN4lldb7SBFrame18EvaluateExpressionEPKcRKNS_19SBExpressionOptionsE
liblldb.so.14:_ZN4lldb7SBFrame22GetDisplayFunctionNameEv
liblldb.so.14:_ZN4lldb7SBFrame23GetValueForVariablePathEPKc
liblldb.so.14:_ZN4lldb7SBFrame23GetValueForVariablePathEPKcNS_16DynamicValueTypeE
liblldb.so.14:_ZN4lldb7SBFrame5ClearEv
liblldb.so.14:_ZN4lldb7SBFrame5SetPCEm
liblldb.so.14:_ZN4lldb7SBFrame9FindValueEPKcNS_9ValueTypeE
liblldb.so.14:_ZN4lldb7SBFrame9FindValueEPKcNS_9ValueTypeENS_16DynamicValueTypeE
liblldb.so.14:_ZN4lldb7SBFrame9IsInlinedEv
liblldb.so.14:_ZN4lldb7SBFrameC1ERKS0_
liblldb.so.14:_ZN4lldb7SBFrameC1ERKSt10shared_ptrIN12lldb_private10StackFrameEE
liblldb.so.14:_ZN4lldb7SBFrameC1Ev
liblldb.so.14:_ZN4lldb7SBFrameC2ERKS0_
liblldb.so.14:_ZN4lldb7SBFrameC2ERKSt10shared_ptrIN12lldb_private10StackFrameEE
liblldb.so.14:_ZN4lldb7SBFrameC2Ev
liblldb.so.14:_ZN4lldb7SBFrameD1Ev
liblldb.so.14:_ZN4lldb7SBFrameD2Ev
liblldb.so.14:_ZN4lldb7SBFrameaSERKS0_
liblldb.so.14:_ZN4lldb7SBQueue10GetProcessEv
liblldb.so.14:_ZN4lldb7SBQueue13GetNumThreadsEv
liblldb.so.14:_ZN4lldb7SBQueue16GetThreadAtIndexEj
liblldb.so.14:_ZN4lldb7SBQueue18GetNumPendingItemsEv
liblldb.so.14:_ZN4lldb7SBQueue18GetNumRunningItemsEv
liblldb.so.14:_ZN4lldb7SBQueue21GetPendingItemAtIndexEj
liblldb.so.14:_ZN4lldb7SBQueue5ClearEv
liblldb.so.14:_ZN4lldb7SBQueue7GetKindEv
liblldb.so.14:_ZN4lldb7SBQueue8SetQueueERKSt10shared_ptrIN12lldb_private5QueueEE
liblldb.so.14:_ZN4lldb7SBQueueC1ERKS0_
liblldb.so.14:_ZN4lldb7SBQueueC1ERKSt10shared_ptrIN12lldb_private5QueueEE
liblldb.so.14:_ZN4lldb7SBQueueC1Ev
liblldb.so.14:_ZN4lldb7SBQueueC2ERKS0_
liblldb.so.14:_ZN4lldb7SBQueueC2ERKSt10shared_ptrIN12lldb_private5QueueEE
liblldb.so.14:_ZN4lldb7SBQueueC2Ev
liblldb.so.14:_ZN4lldb7SBQueueD1Ev
liblldb.so.14:_ZN4lldb7SBQueueD2Ev
liblldb.so.14:_ZN4lldb7SBQueueaSERKS0_
liblldb.so.14:_ZN4lldb7SBTrace25GetStartConfigurationHelpEv
liblldb.so.14:_ZN4lldb7SBTrace4StopERKNS_8SBThreadE
liblldb.so.14:_ZN4lldb7SBTrace4StopEv
liblldb.so.14:_ZN4lldb7SBTrace5StartERKNS_16SBStructuredDataE
liblldb.so.14:_ZN4lldb7SBTrace5StartERKNS_8SBThreadERKNS_16SBStructuredDataE
liblldb.so.14:_ZN4lldb7SBTrace7IsValidEv
liblldb.so.14:_ZN4lldb7SBTraceC1ERKSt10shared_ptrIN12lldb_private5TraceEE
liblldb.so.14:_ZN4lldb7SBTraceC1Ev
liblldb.so.14:_ZN4lldb7SBTraceC2ERKSt10shared_ptrIN12lldb_private5TraceEE
liblldb.so.14:_ZN4lldb7SBTraceC2Ev
liblldb.so.14:_ZN4lldb7SBValue10GetAddressEv
liblldb.so.14:_ZN4lldb7SBValue10GetProcessEv
liblldb.so.14:_ZN4lldb7SBValue10GetSummaryERNS_8SBStreamERNS_20SBTypeSummaryOptionsE
liblldb.so.14:_ZN4lldb7SBValue10GetSummaryEv
liblldb.so.14:_ZN4lldb7SBValue11DereferenceEv
liblldb.so.14:_ZN4lldb7SBValue11GetByteSizeEv
liblldb.so.14:_ZN4lldb7SBValue11GetLocationEv
liblldb.so.14:_ZN4lldb7SBValue11GetTypeNameEv
liblldb.so.14:_ZN4lldb7SBValue11IsSyntheticEv
liblldb.so.14:_ZN4lldb7SBValue12GetValueTypeEv
liblldb.so.14:_ZN4lldb7SBValue12WatchPointeeEbbbRNS_7SBErrorE
liblldb.so.14:_ZN4lldb7SBValue13GetOpaqueTypeEv
liblldb.so.14:_ZN4lldb7SBValue13GetTypeFilterEv
liblldb.so.14:_ZN4lldb7SBValue13GetTypeFormatEv
liblldb.so.14:_ZN4lldb7SBValue14GetDeclarationEv
liblldb.so.14:_ZN4lldb7SBValue14GetDescriptionERNS_8SBStreamE
liblldb.so.14:_ZN4lldb7SBValue14GetLoadAddressEv
liblldb.so.14:_ZN4lldb7SBValue14GetNumChildrenEj
liblldb.so.14:_ZN4lldb7SBValue14GetNumChildrenEv
liblldb.so.14:_ZN4lldb7SBValue14GetPointeeDataEjj
liblldb.so.14:_ZN4lldb7SBValue14GetStaticValueEv
liblldb.so.14:_ZN4lldb7SBValue14GetTypeSummaryEv
liblldb.so.14:_ZN4lldb7SBValue15GetChildAtIndexEj
liblldb.so.14:_ZN4lldb7SBValue15GetChildAtIndexEjNS_16DynamicValueTypeEb
liblldb.so.14:_ZN4lldb7SBValue15GetDynamicValueENS_16DynamicValueTypeE
liblldb.so.14:_ZN4lldb7SBValue16GetTypeSyntheticEv
liblldb.so.14:_ZN4lldb7SBValue16GetValueAsSignedERNS_7SBErrorEl
liblldb.so.14:_ZN4lldb7SBValue16GetValueAsSignedEl
liblldb.so.14:_ZN4lldb7SBValue17GetExpressionPathERNS_8SBStreamE
liblldb.so.14:_ZN4lldb7SBValue17GetExpressionPathERNS_8SBStreamEb
liblldb.so.14:_ZN4lldb7SBValue17GetValueDidChangeEv
liblldb.so.14:_ZN4lldb7SBValue17MightHaveChildrenEv
liblldb.so.14:_ZN4lldb7SBValue17TypeIsPointerTypeEv
liblldb.so.14:_ZN4lldb7SBValue18GetDisplayTypeNameEv
liblldb.so.14:_ZN4lldb7SBValue18GetValueAsUnsignedERNS_7SBErrorEm
liblldb.so.14:_ZN4lldb7SBValue18GetValueAsUnsignedEm
liblldb.so.14:_ZN4lldb7SBValue19CreateChildAtOffsetEPKcjNS_6SBTypeE
liblldb.so.14:_ZN4lldb7SBValue19CreateValueFromDataEPKcNS_6SBDataENS_6SBTypeE
liblldb.so.14:_ZN4lldb7SBValue19SetValueFromCStringEPKc
liblldb.so.14:_ZN4lldb7SBValue19SetValueFromCStringEPKcRNS_7SBErrorE
liblldb.so.14:_ZN4lldb7SBValue20GetNonSyntheticValueEv
liblldb.so.14:_ZN4lldb7SBValue20GetObjectDescriptionEv
liblldb.so.14:_ZN4lldb7SBValue21GetPreferDynamicValueEv
liblldb.so.14:_ZN4lldb7SBValue21IsRuntimeSupportValueEv
liblldb.so.14:_ZN4lldb7SBValue21SetPreferDynamicValueENS_16DynamicValueTypeE
liblldb.so.14:_ZN4lldb7SBValue22CreateValueFromAddressEPKcmNS_6SBTypeE
liblldb.so.14:_ZN4lldb7SBValue22GetChildMemberWithNameEPKc
liblldb.so.14:_ZN4lldb7SBValue22GetChildMemberWithNameEPKcNS_16DynamicValueTypeE
liblldb.so.14:_ZN4lldb7SBValue23GetIndexOfChildWithNameEPKc
liblldb.so.14:_ZN4lldb7SBValue23GetPreferSyntheticValueEv
liblldb.so.14:_ZN4lldb7SBValue23SetPreferSyntheticValueEb
liblldb.so.14:_ZN4lldb7SBValue25CreateValueFromExpressionEPKcS2_
liblldb.so.14:_ZN4lldb7SBValue25CreateValueFromExpressionEPKcS2_RNS_19SBExpressionOptionsE
liblldb.so.14:_ZN4lldb7SBValue25GetValueForExpressionPathEPKc
liblldb.so.14:_ZN4lldb7SBValue28IsSyntheticChildrenGeneratedEv
liblldb.so.14:_ZN4lldb7SBValue29SetSyntheticChildrenGeneratedEb
liblldb.so.14:_ZN4lldb7SBValue4CastENS_6SBTypeE
liblldb.so.14:_ZN4lldb7SBValue5ClearEv
liblldb.so.14:_ZN4lldb7SBValue5CloneEPKc
liblldb.so.14:_ZN4lldb7SBValue5GetIDEv
liblldb.so.14:_ZN4lldb7SBValue5SetSPERKSt10shared_ptrIN12lldb_private11ValueObjectEE
liblldb.so.14:_ZN4lldb7SBValue5SetSPERKSt10shared_ptrIN12lldb_private11ValueObjectEENS_16DynamicValueTypeE
liblldb.so.14:_ZN4lldb7SBValue5SetSPERKSt10shared_ptrIN12lldb_private11ValueObjectEENS_16DynamicValueTypeEb
liblldb.so.14:_ZN4lldb7SBValue5SetSPERKSt10shared_ptrIN12lldb_private11ValueObjectEENS_16DynamicValueTypeEbPKc
liblldb.so.14:_ZN4lldb7SBValue5SetSPERKSt10shared_ptrIN12lldb_private11ValueObjectEEb
liblldb.so.14:_ZN4lldb7SBValue5SetSPESt10shared_ptrI9ValueImplE
liblldb.so.14:_ZN4lldb7SBValue5WatchEbbb
liblldb.so.14:_ZN4lldb7SBValue5WatchEbbbRNS_7SBErrorE
liblldb.so.14:_ZN4lldb7SBValue7GetDataEv
liblldb.so.14:_ZN4lldb7SBValue7GetNameEv
liblldb.so.14:_ZN4lldb7SBValue7GetTypeEv
liblldb.so.14:_ZN4lldb7SBValue7IsValidEv
liblldb.so.14:_ZN4lldb7SBValue7PersistEv
liblldb.so.14:_ZN4lldb7SBValue7SetDataERNS_6SBDataERNS_7SBErrorE
liblldb.so.14:_ZN4lldb7SBValue8GetErrorEv
liblldb.so.14:_ZN4lldb7SBValue8GetFrameEv
liblldb.so.14:_ZN4lldb7SBValue8GetValueEv
liblldb.so.14:_ZN4lldb7SBValue9AddressOfEv
liblldb.so.14:_ZN4lldb7SBValue9GetFormatEv
liblldb.so.14:_ZN4lldb7SBValue9GetTargetEv
liblldb.so.14:_ZN4lldb7SBValue9GetThreadEv
liblldb.so.14:_ZN4lldb7SBValue9IsDynamicEv
liblldb.so.14:_ZN4lldb7SBValue9IsInScopeEv
liblldb.so.14:_ZN4lldb7SBValue9SetFormatENS_6FormatE
liblldb.so.14:_ZN4lldb7SBValueC1ERKS0_
liblldb.so.14:_ZN4lldb7SBValueC1ERKSt10shared_ptrIN12lldb_private11ValueObjectEE
liblldb.so.14:_ZN4lldb7SBValueC1Ev
liblldb.so.14:_ZN4lldb7SBValueC2ERKS0_
liblldb.so.14:_ZN4lldb7SBValueC2ERKSt10shared_ptrIN12lldb_private11ValueObjectEE
liblldb.so.14:_ZN4lldb7SBValueC2Ev
liblldb.so.14:_ZN4lldb7SBValueD1Ev
liblldb.so.14:_ZN4lldb7SBValueD2Ev
liblldb.so.14:_ZN4lldb7SBValueaSERKS0_
liblldb.so.14:_ZN4lldb8SBHostOS10ThreadJoinEmPPvPNS_7SBErrorE
liblldb.so.14:_ZN4lldb8SBHostOS11GetLLDBPathENS_8PathTypeE
liblldb.so.14:_ZN4lldb8SBHostOS12ThreadCancelEmPNS_7SBErrorE
liblldb.so.14:_ZN4lldb8SBHostOS12ThreadCreateEPKcPFPvS3_ES3_PNS_7SBErrorE
liblldb.so.14:_ZN4lldb8SBHostOS12ThreadDetachEmPNS_7SBErrorE
liblldb.so.14:_ZN4lldb8SBHostOS13ThreadCreatedEPKc
liblldb.so.14:_ZN4lldb8SBHostOS17GetLLDBPythonPathEv
liblldb.so.14:_ZN4lldb8SBHostOS18GetProgramFileSpecEv
liblldb.so.14:_ZN4lldb8SBHostOS20GetUserHomeDirectoryEv
liblldb.so.14:_ZN4lldb8SBModule10FindSymbolEPKcNS_10SymbolTypeE
liblldb.so.14:_ZN4lldb8SBModule10GetVersionEPjj
liblldb.so.14:_ZN4lldb8SBModule11FindSectionEPKc
liblldb.so.14:_ZN4lldb8SBModule11FindSymbolsEPKcNS_10SymbolTypeE
liblldb.so.14:_ZN4lldb8SBModule11GetTypeByIDEm
liblldb.so.14:_ZN4lldb8SBModule12GetBasicTypeENS_9BasicTypeE
liblldb.so.14:_ZN4lldb8SBModule12GetByteOrderEv
liblldb.so.14:_ZN4lldb8SBModule13FindFirstTypeEPKc
liblldb.so.14:_ZN4lldb8SBModule13FindFunctionsEPKcj
liblldb.so.14:_ZN4lldb8SBModule13GetNumSymbolsEv
liblldb.so.14:_ZN4lldb8SBModule14GetDescriptionERNS_8SBStreamE
liblldb.so.14:_ZN4lldb8SBModule14GetNumSectionsEv
liblldb.so.14:_ZN4lldb8SBModule16FindCompileUnitsERKNS_10SBFileSpecE
liblldb.so.14:_ZN4lldb8SBModule16GetSymbolAtIndexEm
liblldb.so.14:_ZN4lldb8SBModule17GetSectionAtIndexEm
liblldb.so.14:_ZN4lldb8SBModule18GetAddressByteSizeEv
liblldb.so.14:_ZN4lldb8SBModule18GetNumCompileUnitsEv
liblldb.so.14:_ZN4lldb8SBModule18ResolveFileAddressEm
liblldb.so.14:_ZN4lldb8SBModule19FindGlobalVariablesERNS_8SBTargetEPKcj
liblldb.so.14:_ZN4lldb8SBModule19SetPlatformFileSpecERKNS_10SBFileSpecE
liblldb.so.14:_ZN4lldb8SBModule21GetCompileUnitAtIndexEj
liblldb.so.14:_ZN4lldb8SBModule23FindFirstGlobalVariableERNS_8SBTargetEPKc
liblldb.so.14:_ZN4lldb8SBModule24GetRemoteInstallFileSpecEv
liblldb.so.14:_ZN4lldb8SBModule24SetRemoteInstallFileSpecERNS_10SBFileSpecE
liblldb.so.14:_ZN4lldb8SBModule25GetNumberAllocatedModulesEv
liblldb.so.14:_ZN4lldb8SBModule30GarbageCollectAllocatedModulesEv
liblldb.so.14:_ZN4lldb8SBModule30ResolveSymbolContextForAddressERKNS_9SBAddressEj
liblldb.so.14:_ZN4lldb8SBModule5ClearEv
liblldb.so.14:_ZN4lldb8SBModule5SetSPERKSt10shared_ptrIN12lldb_private6ModuleEE
liblldb.so.14:_ZN4lldb8SBModule8GetTypesEj
liblldb.so.14:_ZN4lldb8SBModule9FindTypesEPKc
liblldb.so.14:_ZN4lldb8SBModule9GetTripleEv
liblldb.so.14:_ZN4lldb8SBModuleC1ERKNS_12SBModuleSpecE
liblldb.so.14:_ZN4lldb8SBModuleC1ERKS0_
liblldb.so.14:_ZN4lldb8SBModuleC1ERKSt10shared_ptrIN12lldb_private6ModuleEE
liblldb.so.14:_ZN4lldb8SBModuleC1ERNS_9SBProcessEm
liblldb.so.14:_ZN4lldb8SBModuleC1Ev
liblldb.so.14:_ZN4lldb8SBModuleC2ERKNS_12SBModuleSpecE
liblldb.so.14:_ZN4lldb8SBModuleC2ERKS0_
liblldb.so.14:_ZN4lldb8SBModuleC2ERKSt10shared_ptrIN12lldb_private6ModuleEE
liblldb.so.14:_ZN4lldb8SBModuleC2ERNS_9SBProcessEm
liblldb.so.14:_ZN4lldb8SBModuleC2Ev
liblldb.so.14:_ZN4lldb8SBModuleD1Ev
liblldb.so.14:_ZN4lldb8SBModuleD2Ev
liblldb.so.14:_ZN4lldb8SBModuleaSERKS0_
liblldb.so.14:_ZN4lldb8SBStream14RedirectToFileENS_6SBFileE
liblldb.so.14:_ZN4lldb8SBStream14RedirectToFileEPKcb
liblldb.so.14:_ZN4lldb8SBStream14RedirectToFileESt10shared_ptrIN12lldb_private4FileEE
liblldb.so.14:_ZN4lldb8SBStream20RedirectToFileHandleEP8_IO_FILEb
liblldb.so.14:_ZN4lldb8SBStream24RedirectToFileDescriptorEib
liblldb.so.14:_ZN4lldb8SBStream3getEv
liblldb.so.14:_ZN4lldb8SBStream3refEv
liblldb.so.14:_ZN4lldb8SBStream5ClearEv
liblldb.so.14:_ZN4lldb8SBStream5PrintEPKc
liblldb.so.14:_ZN4lldb8SBStream6PrintfEPKcz
liblldb.so.14:_ZN4lldb8SBStream7GetDataEv
liblldb.so.14:_ZN4lldb8SBStream7GetSizeEv
liblldb.so.14:_ZN4lldb8SBStreamC1EOS0_
liblldb.so.14:_ZN4lldb8SBStreamC1Ev
liblldb.so.14:_ZN4lldb8SBStreamC2EOS0_
liblldb.so.14:_ZN4lldb8SBStreamC2Ev
liblldb.so.14:_ZN4lldb8SBStreamD1Ev
liblldb.so.14:_ZN4lldb8SBStreamD2Ev
liblldb.so.14:_ZN4lldb8SBStreamptEv
liblldb.so.14:_ZN4lldb8SBSymbol10IsExternalEv
liblldb.so.14:_ZN4lldb8SBSymbol11IsSyntheticEv
liblldb.so.14:_ZN4lldb8SBSymbol13GetEndAddressEv
liblldb.so.14:_ZN4lldb8SBSymbol14GetDescriptionERNS_8SBStreamE
liblldb.so.14:_ZN4lldb8SBSymbol15GetInstructionsENS_8SBTargetE
liblldb.so.14:_ZN4lldb8SBSymbol15GetInstructionsENS_8SBTargetEPKc
liblldb.so.14:_ZN4lldb8SBSymbol15GetStartAddressEv
liblldb.so.14:_ZN4lldb8SBSymbol19GetPrologueByteSizeEv
liblldb.so.14:_ZN4lldb8SBSymbol3getEv
liblldb.so.14:_ZN4lldb8SBSymbol5resetEPN12lldb_private6SymbolE
liblldb.so.14:_ZN4lldb8SBSymbol7GetTypeEv
liblldb.so.14:_ZN4lldb8SBSymbol9SetSymbolEPN12lldb_private6SymbolE
liblldb.so.14:_ZN4lldb8SBSymbolC1EPN12lldb_private6SymbolE
liblldb.so.14:_ZN4lldb8SBSymbolC1ERKS0_
liblldb.so.14:_ZN4lldb8SBSymbolC1Ev
liblldb.so.14:_ZN4lldb8SBSymbolC2EPN12lldb_private6SymbolE
liblldb.so.14:_ZN4lldb8SBSymbolC2ERKS0_
liblldb.so.14:_ZN4lldb8SBSymbolC2Ev
liblldb.so.14:_ZN4lldb8SBSymbolD1Ev
liblldb.so.14:_ZN4lldb8SBSymbolD2Ev
liblldb.so.14:_ZN4lldb8SBSymbolaSERKS0_
liblldb.so.14:_ZN4lldb8SBTarget10FindModuleERKNS_10SBFileSpecE
liblldb.so.14:_ZN4lldb8SBTarget10GetProcessEv
liblldb.so.14:_ZN4lldb8SBTarget10ReadMemoryENS_9SBAddressEPvmRNS_7SBErrorE
liblldb.so.14:_ZN4lldb8SBTarget11CreateTraceERNS_7SBErrorE
liblldb.so.14:_ZN4lldb8SBTarget11FindSymbolsEPKcNS_10SymbolTypeE
liblldb.so.14:_ZN4lldb8SBTarget11GetPlatformEv
liblldb.so.14:_ZN4lldb8SBTarget12GetBasicTypeENS_9BasicTypeE
liblldb.so.14:_ZN4lldb8SBTarget12GetByteOrderEv
liblldb.so.14:_ZN4lldb8SBTarget12LaunchSimpleEPPKcS3_S2_
liblldb.so.14:_ZN4lldb8SBTarget12RemoveModuleENS_8SBModuleE
liblldb.so.14:_ZN4lldb8SBTarget12WatchAddressEmmbbRNS_7SBErrorE
liblldb.so.14:_ZN4lldb8SBTarget13ConnectRemoteERNS_10SBListenerEPKcS4_RNS_7SBErrorE
liblldb.so.14:_ZN4lldb8SBTarget13FindFirstTypeEPKc
liblldb.so.14:_ZN4lldb8SBTarget13FindFunctionsEPKcj
liblldb.so.14:_ZN4lldb8SBTarget13GetExecutableEv
liblldb.so.14:_ZN4lldb8SBTarget13GetStatisticsEv
liblldb.so.14:_ZN4lldb8SBTarget13SetLaunchInfoERKNS_12SBLaunchInfoE
liblldb.so.14:_ZN4lldb8SBTarget14GetDescriptionERNS_8SBStreamENS_16DescriptionLevelE
liblldb.so.14:_ZN4lldb8SBTarget14GetEnvironmentEv
liblldb.so.14:_ZN4lldb8SBTarget15GetCodeByteSizeEv
liblldb.so.14:_ZN4lldb8SBTarget15GetDataByteSizeEv
liblldb.so.14:_ZN4lldb8SBTarget15GetInstructionsENS_9SBAddressEPKvm
liblldb.so.14:_ZN4lldb8SBTarget15GetInstructionsEmPKvm
liblldb.so.14:_ZN4lldb8SBTarget16BreakpointDeleteEi
liblldb.so.14:_ZN4lldb8SBTarget16DeleteWatchpointEi
liblldb.so.14:_ZN4lldb8SBTarget16FindCompileUnitsERKNS_10SBFileSpecE
liblldb.so.14:_ZN4lldb8SBTarget16GetModuleAtIndexEj
liblldb.so.14:_ZN4lldb8SBTarget16GetSourceManagerEv
liblldb.so.14:_ZN4lldb8SBTarget16ReadInstructionsENS_9SBAddressEj
liblldb.so.14:_ZN4lldb8SBTarget16ReadInstructionsENS_9SBAddressEjPKc
liblldb.so.14:_ZN4lldb8SBTarget18EvaluateExpressionEPKc
liblldb.so.14:_ZN4lldb8SBTarget18EvaluateExpressionEPKcRKNS_19SBExpressionOptionsE
liblldb.so.14:_ZN4lldb8SBTarget18EventIsTargetEventERKNS_7SBEventE
liblldb.so.14:_ZN4lldb8SBTarget18FindBreakpointByIDEi
liblldb.so.14:_ZN4lldb8SBTarget18FindWatchpointByIDEi
liblldb.so.14:_ZN4lldb8SBTarget18GetAddressByteSizeEv
liblldb.so.14:_ZN4lldb8SBTarget18GetBreakpointNamesERNS_12SBStringListE
liblldb.so.14:_ZN4lldb8SBTarget18GetCollectingStatsEv
liblldb.so.14:_ZN4lldb8SBTarget18GetTargetFromEventERKNS_7SBEventE
liblldb.so.14:_ZN4lldb8SBTarget18ResolveFileAddressEm
liblldb.so.14:_ZN4lldb8SBTarget18ResolveLoadAddressEm
liblldb.so.14:_ZN4lldb8SBTarget18SetCollectingStatsEb
liblldb.so.14:_ZN4lldb8SBTarget19CreateValueFromDataEPKcNS_6SBDataENS_6SBTypeE
liblldb.so.14:_ZN4lldb8SBTarget19FindGlobalFunctionsEPKcjNS_9MatchTypeE
liblldb.so.14:_ZN4lldb8SBTarget19FindGlobalVariablesEPKcj
liblldb.so.14:_ZN4lldb8SBTarget19FindGlobalVariablesEPKcjNS_9MatchTypeE
liblldb.so.14:_ZN4lldb8SBTarget19GetStackRedZoneSizeEv
liblldb.so.14:_ZN4lldb8SBTarget20DeleteAllBreakpointsEv
liblldb.so.14:_ZN4lldb8SBTarget20DeleteAllWatchpointsEv
liblldb.so.14:_ZN4lldb8SBTarget20DeleteBreakpointNameEPKc
liblldb.so.14:_ZN4lldb8SBTarget20EnableAllBreakpointsEv
liblldb.so.14:_ZN4lldb8SBTarget20EnableAllWatchpointsEv
liblldb.so.14:_ZN4lldb8SBTarget20SetModuleLoadAddressENS_8SBModuleEl
liblldb.so.14:_ZN4lldb8SBTarget21AppendImageSearchPathEPKcS2_RNS_7SBErrorE
liblldb.so.14:_ZN4lldb8SBTarget21AttachToProcessWithIDERNS_10SBListenerEmRNS_7SBErrorE
liblldb.so.14:_ZN4lldb8SBTarget21DisableAllBreakpointsEv
liblldb.so.14:_ZN4lldb8SBTarget21DisableAllWatchpointsEv
liblldb.so.14:_ZN4lldb8SBTarget21FindBreakpointsByNameEPKcRNS_16SBBreakpointListE
liblldb.so.14:_ZN4lldb8SBTarget21SetSectionLoadAddressENS_9SBSectionEm
liblldb.so.14:_ZN4lldb8SBTarget22BreakpointCreateByNameEPKcRKNS_14SBFileSpecListES5_
liblldb.so.14:_ZN4lldb8SBTarget22BreakpointCreateByNameEPKcS2_
liblldb.so.14:_ZN4lldb8SBTarget22BreakpointCreateByNameEPKcjNS_12LanguageTypeERKNS_14SBFileSpecListES6_
liblldb.so.14:_ZN4lldb8SBTarget22BreakpointCreateByNameEPKcjRKNS_14SBFileSpecListES5_
liblldb.so.14:_ZN4lldb8SBTarget22BreakpointsWriteToFileERNS_10SBFileSpecE
liblldb.so.14:_ZN4lldb8SBTarget22BreakpointsWriteToFileERNS_10SBFileSpecERNS_16SBBreakpointListEb
liblldb.so.14:_ZN4lldb8SBTarget22ClearModuleLoadAddressENS_8SBModuleE
liblldb.so.14:_ZN4lldb8SBTarget22CreateValueFromAddressEPKcNS_9SBAddressENS_6SBTypeE
liblldb.so.14:_ZN4lldb8SBTarget22GetNumModulesFromEventERKNS_7SBEventE
liblldb.so.14:_ZN4lldb8SBTarget22ResolvePastLoadAddressEjm
liblldb.so.14:_ZN4lldb8SBTarget23AttachToProcessWithNameERNS_10SBListenerEPKcbRNS_7SBErrorE
liblldb.so.14:_ZN4lldb8SBTarget23BreakpointCreateByNamesEPPKcjjNS_12LanguageTypeERKNS_14SBFileSpecListES7_
liblldb.so.14:_ZN4lldb8SBTarget23BreakpointCreateByNamesEPPKcjjNS_12LanguageTypeEmRKNS_14SBFileSpecListES7_
liblldb.so.14:_ZN4lldb8SBTarget23BreakpointCreateByNamesEPPKcjjRKNS_14SBFileSpecListES6_
liblldb.so.14:_ZN4lldb8SBTarget23BreakpointCreateByRegexEPKcNS_12LanguageTypeERKNS_14SBFileSpecListES6_
liblldb.so.14:_ZN4lldb8SBTarget23BreakpointCreateByRegexEPKcRKNS_14SBFileSpecListES5_
liblldb.so.14:_ZN4lldb8SBTarget23BreakpointCreateByRegexEPKcS2_
liblldb.so.14:_ZN4lldb8SBTarget23ClearSectionLoadAddressENS_9SBSectionE
liblldb.so.14:_ZN4lldb8SBTarget23FindFirstGlobalVariableEPKc
liblldb.so.14:_ZN4lldb8SBTarget23GetBroadcasterClassNameEv
liblldb.so.14:_ZN4lldb8SBTarget25BreakpointCreateByAddressEm
liblldb.so.14:_ZN4lldb8SBTarget25BreakpointsCreateFromFileERNS_10SBFileSpecERNS_12SBStringListERNS_16SBBreakpointListE
liblldb.so.14:_ZN4lldb8SBTarget25BreakpointsCreateFromFileERNS_10SBFileSpecERNS_16SBBreakpointListE
liblldb.so.14:_ZN4lldb8SBTarget25CreateValueFromExpressionEPKcS2_
liblldb.so.14:_ZN4lldb8SBTarget25GetInstructionsWithFlavorENS_9SBAddressEPKcPKvm
liblldb.so.14:_ZN4lldb8SBTarget25GetInstructionsWithFlavorEmPKcPKvm
liblldb.so.14:_ZN4lldb8SBTarget25GetModuleAtIndexFromEventEjRKNS_7SBEventE
liblldb.so.14:_ZN4lldb8SBTarget26BreakpointCreateByLocationEPKcj
liblldb.so.14:_ZN4lldb8SBTarget26BreakpointCreateByLocationERKNS_10SBFileSpecEj
liblldb.so.14:_ZN4lldb8SBTarget26BreakpointCreateByLocationERKNS_10SBFileSpecEjjmRNS_14SBFileSpecListE
liblldb.so.14:_ZN4lldb8SBTarget26BreakpointCreateByLocationERKNS_10SBFileSpecEjjmRNS_14SBFileSpecListEb
liblldb.so.14:_ZN4lldb8SBTarget26BreakpointCreateByLocationERKNS_10SBFileSpecEjm
liblldb.so.14:_ZN4lldb8SBTarget26BreakpointCreateByLocationERKNS_10SBFileSpecEjmRNS_14SBFileSpecListE
liblldb.so.14:_ZN4lldb8SBTarget26BreakpointCreateFromScriptEPKcRNS_16SBStructuredDataERKNS_14SBFileSpecListES7_b
liblldb.so.14:_ZN4lldb8SBTarget27BreakpointCreateBySBAddressERNS_9SBAddressE
liblldb.so.14:_ZN4lldb8SBTarget28BreakpointCreateForExceptionENS_12LanguageTypeEbb
liblldb.so.14:_ZN4lldb8SBTarget29BreakpointCreateBySourceRegexEPKcRKNS_10SBFileSpecES2_
liblldb.so.14:_ZN4lldb8SBTarget29BreakpointCreateBySourceRegexEPKcRKNS_14SBFileSpecListES5_
liblldb.so.14:_ZN4lldb8SBTarget29BreakpointCreateBySourceRegexEPKcRKNS_14SBFileSpecListES5_RKNS_12SBStringListE
liblldb.so.14:_ZN4lldb8SBTarget30ResolveSymbolContextForAddressERKNS_9SBAddressEj
liblldb.so.14:_ZN4lldb8SBTarget5ClearEv
liblldb.so.14:_ZN4lldb8SBTarget5SetSPERKSt10shared_ptrIN12lldb_private6TargetEE
liblldb.so.14:_ZN4lldb8SBTarget6AttachERNS_12SBAttachInfoERNS_7SBErrorE
liblldb.so.14:_ZN4lldb8SBTarget6LaunchERNS_10SBListenerEPPKcS5_S4_S4_S4_S4_jbRNS_7SBErrorE
liblldb.so.14:_ZN4lldb8SBTarget6LaunchERNS_12SBLaunchInfoERNS_7SBErrorE
liblldb.so.14:_ZN4lldb8SBTarget7InstallEv
liblldb.so.14:_ZN4lldb8SBTarget8GetTraceEv
liblldb.so.14:_ZN4lldb8SBTarget8LoadCoreEPKc
liblldb.so.14:_ZN4lldb8SBTarget8LoadCoreEPKcRNS_7SBErrorE
liblldb.so.14:_ZN4lldb8SBTarget9AddModuleEPKcS2_S2_
liblldb.so.14:_ZN4lldb8SBTarget9AddModuleEPKcS2_S2_S2_
liblldb.so.14:_ZN4lldb8SBTarget9AddModuleERKNS_12SBModuleSpecE
liblldb.so.14:_ZN4lldb8SBTarget9AddModuleERNS_8SBModuleE
liblldb.so.14:_ZN4lldb8SBTarget9FindTypesEPKc
liblldb.so.14:_ZN4lldb8SBTarget9GetTripleEv
liblldb.so.14:_ZN4lldb8SBTargetC1ERKS0_
liblldb.so.14:_ZN4lldb8SBTargetC1ERKSt10shared_ptrIN12lldb_private6TargetEE
liblldb.so.14:_ZN4lldb8SBTargetC1Ev
liblldb.so.14:_ZN4lldb8SBTargetC2ERKS0_
liblldb.so.14:_ZN4lldb8SBTargetC2ERKSt10shared_ptrIN12lldb_private6TargetEE
liblldb.so.14:_ZN4lldb8SBTargetC2Ev
liblldb.so.14:_ZN4lldb8SBTargetD1Ev
liblldb.so.14:_ZN4lldb8SBTargetD2Ev
liblldb.so.14:_ZN4lldb8SBTargetaSERKS0_
liblldb.so.14:_ZN4lldb8SBThread10GetProcessEv
liblldb.so.14:_ZN4lldb8SBThread10GetSiginfoEv
liblldb.so.14:_ZN4lldb8SBThread10JumpToLineERNS_10SBFileSpecEj
liblldb.so.14:_ZN4lldb8SBThread11IsSuspendedEv
liblldb.so.14:_ZN4lldb8SBThread12GetNumFramesEv
liblldb.so.14:_ZN4lldb8SBThread12RunToAddressEm
liblldb.so.14:_ZN4lldb8SBThread12RunToAddressEmRNS_7SBErrorE
liblldb.so.14:_ZN4lldb8SBThread13GetStopReasonEv
liblldb.so.14:_ZN4lldb8SBThread13ResumeNewPlanERN12lldb_private16ExecutionContextEPNS1_10ThreadPlanE
liblldb.so.14:_ZN4lldb8SBThread13StepOverUntilERNS_7SBFrameERNS_10SBFileSpecEj
liblldb.so.14:_ZN4lldb8SBThread14StepOutOfFrameERNS_7SBFrameE
liblldb.so.14:_ZN4lldb8SBThread14StepOutOfFrameERNS_7SBFrameERNS_7SBErrorE
liblldb.so.14:_ZN4lldb8SBThread15GetFrameAtIndexEj
liblldb.so.14:_ZN4lldb8SBThread15ReturnFromFrameERNS_7SBFrameERNS_7SBValueE
liblldb.so.14:_ZN4lldb8SBThread15StepInstructionEb
liblldb.so.14:_ZN4lldb8SBThread15StepInstructionEbRNS_7SBErrorE
liblldb.so.14:_ZN4lldb8SBThread16GetSelectedFrameEv
liblldb.so.14:_ZN4lldb8SBThread16SetSelectedFrameEj
liblldb.so.14:_ZN4lldb8SBThread18EventIsThreadEventERKNS_7SBEventE
liblldb.so.14:_ZN4lldb8SBThread18GetStopDescriptionEPcm
liblldb.so.14:_ZN4lldb8SBThread18GetStopReturnValueEv
liblldb.so.14:_ZN4lldb8SBThread18GetThreadFromEventERKNS_7SBEventE
liblldb.so.14:_ZN4lldb8SBThread19GetCurrentExceptionEv
liblldb.so.14:_ZN4lldb8SBThread19SafeToCallFunctionsEv
liblldb.so.14:_ZN4lldb8SBThread22GetStackFrameFromEventERKNS_7SBEventE
liblldb.so.14:_ZN4lldb8SBThread22GetStopReasonDataCountEv
liblldb.so.14:_ZN4lldb8SBThread23GetBroadcasterClassNameEv
liblldb.so.14:_ZN4lldb8SBThread24GetStopReasonDataAtIndexEj
liblldb.so.14:_ZN4lldb8SBThread25GetInfoItemByPathAsStringEPKcRNS_8SBStreamE
liblldb.so.14:_ZN4lldb8SBThread25UnwindInnermostExpressionEv
liblldb.so.14:_ZN4lldb8SBThread26GetExtendedBacktraceThreadEPKc
liblldb.so.14:_ZN4lldb8SBThread27StepUsingScriptedThreadPlanEPKc
liblldb.so.14:_ZN4lldb8SBThread27StepUsingScriptedThreadPlanEPKcRNS_16SBStructuredDataEb
liblldb.so.14:_ZN4lldb8SBThread27StepUsingScriptedThreadPlanEPKcb
liblldb.so.14:_ZN4lldb8SBThread28GetCurrentExceptionBacktraceEv
liblldb.so.14:_ZN4lldb8SBThread31GetStopReasonExtendedBacktracesENS_26InstrumentationRuntimeTypeE
liblldb.so.14:_ZN4lldb8SBThread31GetStopReasonExtendedInfoAsJSONERNS_8SBStreamE
liblldb.so.14:_ZN4lldb8SBThread38GetExtendedBacktraceOriginatingIndexIDEv
liblldb.so.14:_ZN4lldb8SBThread3getEv
liblldb.so.14:_ZN4lldb8SBThread5ClearEv
liblldb.so.14:_ZN4lldb8SBThread6ResumeERNS_7SBErrorE
liblldb.so.14:_ZN4lldb8SBThread6ResumeEv
liblldb.so.14:_ZN4lldb8SBThread7StepOutERNS_7SBErrorE
liblldb.so.14:_ZN4lldb8SBThread7StepOutEv
liblldb.so.14:_ZN4lldb8SBThread7SuspendERNS_7SBErrorE
liblldb.so.14:_ZN4lldb8SBThread7SuspendEv
liblldb.so.14:_ZN4lldb8SBThread8StepIntoENS_7RunModeE
liblldb.so.14:_ZN4lldb8SBThread8StepIntoEPKcNS_7RunModeE
liblldb.so.14:_ZN4lldb8SBThread8StepIntoEPKcjRNS_7SBErrorENS_7RunModeE
liblldb.so.14:_ZN4lldb8SBThread8StepOverENS_7RunModeE
liblldb.so.14:_ZN4lldb8SBThread8StepOverENS_7RunModeERNS_7SBErrorE
liblldb.so.14:_ZN4lldb8SBThread9IsStoppedEv
liblldb.so.14:_ZN4lldb8SBThread9SetThreadERKSt10shared_ptrIN12lldb_private6ThreadEE
liblldb.so.14:_ZN4lldb8SBThreadC1ERKS0_
liblldb.so.14:_ZN4lldb8SBThreadC1ERKSt10shared_ptrIN12lldb_private6ThreadEE
liblldb.so.14:_ZN4lldb8SBThreadC1Ev
liblldb.so.14:_ZN4lldb8SBThreadC2ERKS0_
liblldb.so.14:_ZN4lldb8SBThreadC2ERKSt10shared_ptrIN12lldb_private6ThreadEE
liblldb.so.14:_ZN4lldb8SBThreadC2Ev
liblldb.so.14:_ZN4lldb8SBThreadD1Ev
liblldb.so.14:_ZN4lldb8SBThreadD2Ev
liblldb.so.14:_ZN4lldb8SBThreadaSERKS0_
liblldb.so.14:_ZN4lldb8SBThreadptEv
liblldb.so.14:_ZN4lldb9SBAddress10GetSectionEv
liblldb.so.14:_ZN4lldb9SBAddress10SetAddressENS_9SBSectionEm
liblldb.so.14:_ZN4lldb9SBAddress10SetAddressERKN12lldb_private7AddressE
liblldb.so.14:_ZN4lldb9SBAddress11GetFunctionEv
liblldb.so.14:_ZN4lldb9SBAddress12GetLineEntryEv
liblldb.so.14:_ZN4lldb9SBAddress13OffsetAddressEm
liblldb.so.14:_ZN4lldb9SBAddress14GetCompileUnitEv
liblldb.so.14:_ZN4lldb9SBAddress14GetDescriptionERNS_8SBStreamE
liblldb.so.14:_ZN4lldb9SBAddress14SetLoadAddressEmRNS_8SBTargetE
liblldb.so.14:_ZN4lldb9SBAddress16GetSymbolContextEj
liblldb.so.14:_ZN4lldb9SBAddress3getEv
liblldb.so.14:_ZN4lldb9SBAddress3refEv
liblldb.so.14:_ZN4lldb9SBAddress5ClearEv
liblldb.so.14:_ZN4lldb9SBAddress8GetBlockEv
liblldb.so.14:_ZN4lldb9SBAddress9GetModuleEv
liblldb.so.14:_ZN4lldb9SBAddress9GetOffsetEv
liblldb.so.14:_ZN4lldb9SBAddress9GetSymbolEv
liblldb.so.14:_ZN4lldb9SBAddressC1ENS_9SBSectionEm
liblldb.so.14:_ZN4lldb9SBAddressC1ERKN12lldb_private7AddressE
liblldb.so.14:_ZN4lldb9SBAddressC1ERKS0_
liblldb.so.14:_ZN4lldb9SBAddressC1EmRNS_8SBTargetE
liblldb.so.14:_ZN4lldb9SBAddressC1Ev
liblldb.so.14:_ZN4lldb9SBAddressC2ENS_9SBSectionEm
liblldb.so.14:_ZN4lldb9SBAddressC2ERKN12lldb_private7AddressE
liblldb.so.14:_ZN4lldb9SBAddressC2ERKS0_
liblldb.so.14:_ZN4lldb9SBAddressC2EmRNS_8SBTargetE
liblldb.so.14:_ZN4lldb9SBAddressC2Ev
liblldb.so.14:_ZN4lldb9SBAddressD1Ev
liblldb.so.14:_ZN4lldb9SBAddressD2Ev
liblldb.so.14:_ZN4lldb9SBAddressaSERKS0_
liblldb.so.14:_ZN4lldb9SBAddressptEv
liblldb.so.14:_ZN4lldb9SBCommand10AddCommandEPKcPNS_24SBCommandPluginInterfaceES2_
liblldb.so.14:_ZN4lldb9SBCommand10AddCommandEPKcPNS_24SBCommandPluginInterfaceES2_S2_
liblldb.so.14:_ZN4lldb9SBCommand10AddCommandEPKcPNS_24SBCommandPluginInterfaceES2_S2_S2_
liblldb.so.14:_ZN4lldb9SBCommand11GetHelpLongEv
liblldb.so.14:_ZN4lldb9SBCommand11SetHelpLongEPKc
liblldb.so.14:_ZN4lldb9SBCommand19AddMultiwordCommandEPKcS2_
liblldb.so.14:_ZN4lldb9SBCommand7GetHelpEv
liblldb.so.14:_ZN4lldb9SBCommand7GetNameEv
liblldb.so.14:_ZN4lldb9SBCommand7IsValidEv
liblldb.so.14:_ZN4lldb9SBCommand7SetHelpEPKc
liblldb.so.14:_ZN4lldb9SBCommand8GetFlagsEv
liblldb.so.14:_ZN4lldb9SBCommand8SetFlagsEj
liblldb.so.14:_ZN4lldb9SBCommandC1ESt10shared_ptrIN12lldb_private13CommandObjectEE
liblldb.so.14:_ZN4lldb9SBCommandC1Ev
liblldb.so.14:_ZN4lldb9SBCommandC2ESt10shared_ptrIN12lldb_private13CommandObjectEE
liblldb.so.14:_ZN4lldb9SBCommandC2Ev
liblldb.so.14:_ZN4lldb9SBProcess10ReadMemoryEmPvmRNS_7SBErrorE
liblldb.so.14:_ZN4lldb9SBProcess11GetUniqueIDEv
liblldb.so.14:_ZN4lldb9SBProcess11UnloadImageEj
liblldb.so.14:_ZN4lldb9SBProcess11WriteMemoryEmPKvmRNS_7SBErrorE
liblldb.so.14:_ZN4lldb9SBProcess12GetNumQueuesEv
liblldb.so.14:_ZN4lldb9SBProcess12GetProcessIDEv
liblldb.so.14:_ZN4lldb9SBProcess12RemoteLaunchEPPKcS3_S2_S2_S2_S2_jbRNS_7SBErrorE
liblldb.so.14:_ZN4lldb9SBProcess13GetExitStatusEv
liblldb.so.14:_ZN4lldb9SBProcess13GetNumThreadsEv
liblldb.so.14:_ZN4lldb9SBProcess13GetPluginNameEv
liblldb.so.14:_ZN4lldb9SBProcess13GetThreadByIDEm
liblldb.so.14:_ZN4lldb9SBProcess13SendEventDataEPKc
liblldb.so.14:_ZN4lldb9SBProcess14AllocateMemoryEmjRNS_7SBErrorE
liblldb.so.14:_ZN4lldb9SBProcess14GetDescriptionERNS_8SBStreamE
liblldb.so.14:_ZN4lldb9SBProcess14GetProcessInfoEv
liblldb.so.14:_ZN4lldb9SBProcess14GetUnixSignalsEv
liblldb.so.14:_ZN4lldb9SBProcess15GetQueueAtIndexEm
liblldb.so.14:_ZN4lldb9SBProcess16DeallocateMemoryEm
liblldb.so.14:_ZN4lldb9SBProcess16GetMemoryRegionsEv
liblldb.so.14:_ZN4lldb9SBProcess16GetThreadAtIndexEm
liblldb.so.14:_ZN4lldb9SBProcess17GetHistoryThreadsEm
liblldb.so.14:_ZN4lldb9SBProcess17GetStateFromEventERKNS_7SBEventE
liblldb.so.14:_ZN4lldb9SBProcess17SetSelectedThreadERKNS_8SBThreadE
liblldb.so.14:_ZN4lldb9SBProcess18GetExitDescriptionEv
liblldb.so.14:_ZN4lldb9SBProcess18GetShortPluginNameEv
liblldb.so.14:_ZN4lldb9SBProcess18GetThreadByIndexIDEj
liblldb.so.14:_ZN4lldb9SBProcess18SendAsyncInterruptEv
liblldb.so.14:_ZN4lldb9SBProcess19EventIsProcessEventERKNS_7SBEventE
liblldb.so.14:_ZN4lldb9SBProcess19GetBroadcasterClassEv
liblldb.so.14:_ZN4lldb9SBProcess19GetMemoryRegionInfoEmRNS_18SBMemoryRegionInfoE
liblldb.so.14:_ZN4lldb9SBProcess19GetProcessFromEventERKNS_7SBEventE
liblldb.so.14:_ZN4lldb9SBProcess19LoadImageUsingPathsERKNS_10SBFileSpecERNS_12SBStringListERS1_RNS_7SBErrorE
liblldb.so.14:_ZN4lldb9SBProcess20CreateOSPluginThreadEmm
liblldb.so.14:_ZN4lldb9SBProcess21GetRestartedFromEventERKNS_7SBEventE
liblldb.so.14:_ZN4lldb9SBProcess21GetStopEventForStopIDEj
liblldb.so.14:_ZN4lldb9SBProcess21ReadCStringFromMemoryEmPvmRNS_7SBErrorE
liblldb.so.14:_ZN4lldb9SBProcess21ReadPointerFromMemoryEmRNS_7SBErrorE
liblldb.so.14:_ZN4lldb9SBProcess21SetSelectedThreadByIDEm
liblldb.so.14:_ZN4lldb9SBProcess22AppendEventStateReportERKNS_7SBEventERNS_21SBCommandReturnObjectE
liblldb.so.14:_ZN4lldb9SBProcess22ReadUnsignedFromMemoryEmjRNS_7SBErrorE
liblldb.so.14:_ZN4lldb9SBProcess23GetBroadcasterClassNameEv
liblldb.so.14:_ZN4lldb9SBProcess23GetInterruptedFromEventERKNS_7SBEventE
liblldb.so.14:_ZN4lldb9SBProcess26EventIsStructuredDataEventERKNS_7SBEventE
liblldb.so.14:_ZN4lldb9SBProcess26GetStructuredDataFromEventERKNS_7SBEventE
liblldb.so.14:_ZN4lldb9SBProcess26SetSelectedThreadByIndexIDEj
liblldb.so.14:_ZN4lldb9SBProcess27GetExtendedCrashInformationEv
liblldb.so.14:_ZN4lldb9SBProcess27RemoteAttachToProcessWithIDEmRNS_7SBErrorE
liblldb.so.14:_ZN4lldb9SBProcess28GetNumExtendedBacktraceTypesEv
liblldb.so.14:_ZN4lldb9SBProcess31GetExtendedBacktraceTypeAtIndexEj
liblldb.so.14:_ZN4lldb9SBProcess31GetNumRestartedReasonsFromEventERKNS_7SBEventE
liblldb.so.14:_ZN4lldb9SBProcess31IsInstrumentationRuntimePresentENS_26InstrumentationRuntimeTypeE
liblldb.so.14:_ZN4lldb9SBProcess34GetRestartedReasonAtIndexFromEventERKNS_7SBEventEm
liblldb.so.14:_ZN4lldb9SBProcess4KillEv
liblldb.so.14:_ZN4lldb9SBProcess4StopEv
liblldb.so.14:_ZN4lldb9SBProcess5ClearEv
liblldb.so.14:_ZN4lldb9SBProcess5SetSPERKSt10shared_ptrIN12lldb_private7ProcessEE
liblldb.so.14:_ZN4lldb9SBProcess6DetachEb
liblldb.so.14:_ZN4lldb9SBProcess6DetachEv
liblldb.so.14:_ZN4lldb9SBProcess6SignalEi
liblldb.so.14:_ZN4lldb9SBProcess7DestroyEv
liblldb.so.14:_ZN4lldb9SBProcess8ContinueEv
liblldb.so.14:_ZN4lldb9SBProcess8GetStateEv
liblldb.so.14:_ZN4lldb9SBProcess8PutSTDINEPKcm
liblldb.so.14:_ZN4lldb9SBProcess8SaveCoreEPKc
liblldb.so.14:_ZN4lldb9SBProcess9GetStopIDEb
liblldb.so.14:_ZN4lldb9SBProcess9LoadImageERKNS_10SBFileSpecES3_RNS_7SBErrorE
liblldb.so.14:_ZN4lldb9SBProcess9LoadImageERNS_10SBFileSpecERNS_7SBErrorE
liblldb.so.14:_ZN4lldb9SBProcessC1ERKS0_
liblldb.so.14:_ZN4lldb9SBProcessC1ERKSt10shared_ptrIN12lldb_private7ProcessEE
liblldb.so.14:_ZN4lldb9SBProcessC1Ev
liblldb.so.14:_ZN4lldb9SBProcessC2ERKS0_
liblldb.so.14:_ZN4lldb9SBProcessC2ERKSt10shared_ptrIN12lldb_private7ProcessEE
liblldb.so.14:_ZN4lldb9SBProcessC2Ev
liblldb.so.14:_ZN4lldb9SBProcessD1Ev
liblldb.so.14:_ZN4lldb9SBProcessD2Ev
liblldb.so.14:_ZN4lldb9SBProcessaSERKS0_
liblldb.so.14:_ZN4lldb9SBSection11GetByteSizeEv
liblldb.so.14:_ZN4lldb9SBSection13GetFileOffsetEv
liblldb.so.14:_ZN4lldb9SBSection14FindSubSectionEPKc
liblldb.so.14:_ZN4lldb9SBSection14GetDescriptionERNS_8SBStreamE
liblldb.so.14:_ZN4lldb9SBSection14GetFileAddressEv
liblldb.so.14:_ZN4lldb9SBSection14GetLoadAddressERNS_8SBTargetE
liblldb.so.14:_ZN4lldb9SBSection14GetSectionDataEmm
liblldb.so.14:_ZN4lldb9SBSection14GetSectionDataEv
liblldb.so.14:_ZN4lldb9SBSection14GetSectionTypeEv
liblldb.so.14:_ZN4lldb9SBSection15GetFileByteSizeEv
liblldb.so.14:_ZN4lldb9SBSection17GetNumSubSectionsEv
liblldb.so.14:_ZN4lldb9SBSection17GetTargetByteSizeEv
liblldb.so.14:_ZN4lldb9SBSection20GetSubSectionAtIndexEm
liblldb.so.14:_ZN4lldb9SBSection5SetSPERKSt10shared_ptrIN12lldb_private7SectionEE
liblldb.so.14:_ZN4lldb9SBSection7GetNameEv
liblldb.so.14:_ZN4lldb9SBSection9GetParentEv
liblldb.so.14:_ZN4lldb9SBSectionC1ERKS0_
liblldb.so.14:_ZN4lldb9SBSectionC1ERKSt10shared_ptrIN12lldb_private7SectionEE
liblldb.so.14:_ZN4lldb9SBSectionC1Ev
liblldb.so.14:_ZN4lldb9SBSectionC2ERKS0_
liblldb.so.14:_ZN4lldb9SBSectionC2ERKSt10shared_ptrIN12lldb_private7SectionEE
liblldb.so.14:_ZN4lldb9SBSectionC2Ev
liblldb.so.14:_ZN4lldb9SBSectionD1Ev
liblldb.so.14:_ZN4lldb9SBSectionD2Ev
liblldb.so.14:_ZN4lldb9SBSectionaSERKS0_
liblldb.so.14:_ZN4lldb9SBSectioneqERKS0_
liblldb.so.14:_ZN4lldb9SBSectionneERKS0_
liblldb.so.14:_ZN4lldbeqERKNS_9SBAddressES2_
liblldb.so.14:_ZNK4lldb10SBDebugger11GetUseColorEv
liblldb.so.14:_ZNK4lldb10SBDebugger15GetREPLLanguageEv
liblldb.so.14:_ZNK4lldb10SBDebugger16GetTerminalWidthEv
liblldb.so.14:_ZNK4lldb10SBDebugger17GetReproducerPathEv
liblldb.so.14:_ZNK4lldb10SBDebugger17GetScriptLanguageEv
liblldb.so.14:_ZNK4lldb10SBDebugger17GetUseSourceCacheEv
liblldb.so.14:_ZNK4lldb10SBDebugger18GetCloseInputOnEOFEv
liblldb.so.14:_ZNK4lldb10SBDebugger3getEv
liblldb.so.14:_ZNK4lldb10SBDebugger3refEv
liblldb.so.14:_ZNK4lldb10SBDebugger6get_spEv
liblldb.so.14:_ZNK4lldb10SBDebugger7IsValidEv
liblldb.so.14:_ZNK4lldb10SBDebugger9GetPromptEv
liblldb.so.14:_ZNK4lldb10SBDebuggercvbEv
liblldb.so.14:_ZNK4lldb10SBFileSpec11GetFilenameEv
liblldb.so.14:_ZNK4lldb10SBFileSpec12GetDirectoryEv
liblldb.so.14:_ZNK4lldb10SBFileSpec14GetDescriptionERNS_8SBStreamE
liblldb.so.14:_ZNK4lldb10SBFileSpec3getEv
liblldb.so.14:_ZNK4lldb10SBFileSpec3refEv
liblldb.so.14:_ZNK4lldb10SBFileSpec6ExistsEv
liblldb.so.14:_ZNK4lldb10SBFileSpec7GetPathEPcm
liblldb.so.14:_ZNK4lldb10SBFileSpec7IsValidEv
liblldb.so.14:_ZNK4lldb10SBFileSpeccvbEv
liblldb.so.14:_ZNK4lldb10SBFileSpecdeEv
liblldb.so.14:_ZNK4lldb10SBFileSpeceqERKS0_
liblldb.so.14:_ZNK4lldb10SBFileSpecneERKS0_
liblldb.so.14:_ZNK4lldb10SBFileSpecptEv
liblldb.so.14:_ZNK4lldb10SBFunction14GetDisplayNameEv
liblldb.so.14:_ZNK4lldb10SBFunction14GetMangledNameEv
liblldb.so.14:_ZNK4lldb10SBFunction7GetNameEv
liblldb.so.14:_ZNK4lldb10SBFunction7IsValidEv
liblldb.so.14:_ZNK4lldb10SBFunctioncvbEv
liblldb.so.14:_ZNK4lldb10SBFunctioneqERKS0_
liblldb.so.14:_ZNK4lldb10SBFunctionneERKS0_
liblldb.so.14:_ZNK4lldb10SBListener3getEv
liblldb.so.14:_ZNK4lldb10SBListener7IsValidEv
liblldb.so.14:_ZNK4lldb10SBListenercvbEv
liblldb.so.14:_ZNK4lldb10SBListenerptEv
liblldb.so.14:_ZNK4lldb10SBPlatform14GetUnixSignalsEv
liblldb.so.14:_ZNK4lldb10SBPlatform5GetSPEv
liblldb.so.14:_ZNK4lldb10SBPlatform7IsValidEv
liblldb.so.14:_ZNK4lldb10SBPlatformcvbEv
liblldb.so.14:_ZNK4lldb10SBTypeListcvbEv
liblldb.so.14:_ZNK4lldb11SBLineEntry11GetFileSpecEv
liblldb.so.14:_ZNK4lldb11SBLineEntry13GetEndAddressEv
liblldb.so.14:_ZNK4lldb11SBLineEntry15GetStartAddressEv
liblldb.so.14:_ZNK4lldb11SBLineEntry3refEv
liblldb.so.14:_ZNK4lldb11SBLineEntry7GetLineEv
liblldb.so.14:_ZNK4lldb11SBLineEntry7IsValidEv
liblldb.so.14:_ZNK4lldb11SBLineEntry9GetColumnEv
liblldb.so.14:_ZNK4lldb11SBLineEntrycvbEv
liblldb.so.14:_ZNK4lldb11SBLineEntryeqERKS0_
liblldb.so.14:_ZNK4lldb11SBLineEntryneERKS0_
liblldb.so.14:_ZNK4lldb11SBLineEntryptEv
liblldb.so.14:_ZNK4lldb11SBQueueItem10GetAddressEv
liblldb.so.14:_ZNK4lldb11SBQueueItem7GetKindEv
liblldb.so.14:_ZNK4lldb11SBQueueItem7IsValidEv
liblldb.so.14:_ZNK4lldb11SBQueueItemcvbEv
liblldb.so.14:_ZNK4lldb11SBValueList15GetValueAtIndexEj
liblldb.so.14:_ZNK4lldb11SBValueList19GetFirstValueByNameEPKc
liblldb.so.14:_ZNK4lldb11SBValueList7GetSizeEv
liblldb.so.14:_ZNK4lldb11SBValueList7IsValidEv
liblldb.so.14:_ZNK4lldb11SBValueListcvbEv
liblldb.so.14:_ZNK4lldb11SBValueListdeEv
liblldb.so.14:_ZNK4lldb11SBValueListptEv
liblldb.so.14:_ZNK4lldb12SBBreakpoint10IsHardwareEv
liblldb.so.14:_ZNK4lldb12SBBreakpoint11GetHitCountEv
liblldb.so.14:_ZNK4lldb12SBBreakpoint12GetQueueNameEv
liblldb.so.14:_ZNK4lldb12SBBreakpoint13GetThreadNameEv
liblldb.so.14:_ZNK4lldb12SBBreakpoint14GetIgnoreCountEv
liblldb.so.14:_ZNK4lldb12SBBreakpoint14GetThreadIndexEv
liblldb.so.14:_ZNK4lldb12SBBreakpoint15GetNumLocationsEv
liblldb.so.14:_ZNK4lldb12SBBreakpoint23GetNumResolvedLocationsEv
liblldb.so.14:_ZNK4lldb12SBBreakpoint5GetIDEv
liblldb.so.14:_ZNK4lldb12SBBreakpoint5GetSPEv
liblldb.so.14:_ZNK4lldb12SBBreakpoint7IsValidEv
liblldb.so.14:_ZNK4lldb12SBBreakpoint9GetTargetEv
liblldb.so.14:_ZNK4lldb12SBBreakpoint9IsOneShotEv
liblldb.so.14:_ZNK4lldb12SBBreakpointcvbEv
liblldb.so.14:_ZNK4lldb12SBLaunchInfo16GetDetachOnErrorEv
liblldb.so.14:_ZNK4lldb12SBLaunchInfo18GetLaunchEventDataEv
liblldb.so.14:_ZNK4lldb12SBLaunchInfo19GetWorkingDirectoryEv
liblldb.so.14:_ZNK4lldb12SBLaunchInfo27GetScriptedProcessClassNameEv
liblldb.so.14:_ZNK4lldb12SBLaunchInfo28GetScriptedProcessDictionaryEv
liblldb.so.14:_ZNK4lldb12SBLaunchInfo3refEv
liblldb.so.14:_ZNK4lldb12SBModuleSpec7IsValidEv
liblldb.so.14:_ZNK4lldb12SBModuleSpeccvbEv
liblldb.so.14:_ZNK4lldb12SBStringList16GetStringAtIndexEm
liblldb.so.14:_ZNK4lldb12SBStringList7GetSizeEv
liblldb.so.14:_ZNK4lldb12SBStringList7IsValidEv
liblldb.so.14:_ZNK4lldb12SBStringListcvbEv
liblldb.so.14:_ZNK4lldb12SBStringListdeEv
liblldb.so.14:_ZNK4lldb12SBStringListptEv
liblldb.so.14:_ZNK4lldb12SBThreadPlan14GetDescriptionERNS_8SBStreamE
liblldb.so.14:_ZNK4lldb12SBThreadPlan7IsValidEv
liblldb.so.14:_ZNK4lldb12SBThreadPlan9GetThreadEv
liblldb.so.14:_ZNK4lldb12SBThreadPlancvbEv
liblldb.so.14:_ZNK4lldb12SBTypeFilter7IsValidEv
liblldb.so.14:_ZNK4lldb12SBTypeFiltercvbEv
liblldb.so.14:_ZNK4lldb12SBTypeFormat7IsValidEv
liblldb.so.14:_ZNK4lldb12SBTypeFormatcvbEv
liblldb.so.14:_ZNK4lldb12SBTypeMember3refEv
liblldb.so.14:_ZNK4lldb12SBTypeMember7IsValidEv
liblldb.so.14:_ZNK4lldb12SBTypeMembercvbEv
liblldb.so.14:_ZNK4lldb12SBWatchpoint5GetSPEv
liblldb.so.14:_ZNK4lldb12SBWatchpoint7IsValidEv
liblldb.so.14:_ZNK4lldb12SBWatchpointcvbEv
liblldb.so.14:_ZNK4lldb12SBWatchpointeqERKS0_
liblldb.so.14:_ZNK4lldb12SBWatchpointneERKS0_
liblldb.so.14:_ZNK4lldb13SBBroadcaster3getEv
liblldb.so.14:_ZNK4lldb13SBBroadcaster7GetNameEv
liblldb.so.14:_ZNK4lldb13SBBroadcaster7IsValidEv
liblldb.so.14:_ZNK4lldb13SBBroadcastercvbEv
liblldb.so.14:_ZNK4lldb13SBBroadcastereqERKS0_
liblldb.so.14:_ZNK4lldb13SBBroadcasterltERKS0_
liblldb.so.14:_ZNK4lldb13SBBroadcasterneERKS0_
liblldb.so.14:_ZNK4lldb13SBCompileUnit11GetFileSpecEv
liblldb.so.14:_ZNK4lldb13SBCompileUnit17GetNumLineEntriesEv
liblldb.so.14:_ZNK4lldb13SBCompileUnit18FindLineEntryIndexEjjPNS_10SBFileSpecE
liblldb.so.14:_ZNK4lldb13SBCompileUnit18FindLineEntryIndexEjjPNS_10SBFileSpecEb
liblldb.so.14:_ZNK4lldb13SBCompileUnit18GetNumSupportFilesEv
liblldb.so.14:_ZNK4lldb13SBCompileUnit19GetLineEntryAtIndexEj
liblldb.so.14:_ZNK4lldb13SBCompileUnit21GetSupportFileAtIndexEj
liblldb.so.14:_ZNK4lldb13SBCompileUnit7IsValidEv
liblldb.so.14:_ZNK4lldb13SBCompileUnitcvbEv
liblldb.so.14:_ZNK4lldb13SBCompileUnitdeEv
liblldb.so.14:_ZNK4lldb13SBCompileUniteqERKS0_
liblldb.so.14:_ZNK4lldb13SBCompileUnitneERKS0_
liblldb.so.14:_ZNK4lldb13SBCompileUnitptEv
liblldb.so.14:_ZNK4lldb13SBDeclaration11GetFileSpecEv
liblldb.so.14:_ZNK4lldb13SBDeclaration3refEv
liblldb.so.14:_ZNK4lldb13SBDeclaration7GetLineEv
liblldb.so.14:_ZNK4lldb13SBDeclaration7IsValidEv
liblldb.so.14:_ZNK4lldb13SBDeclaration9GetColumnEv
liblldb.so.14:_ZNK4lldb13SBDeclarationcvbEv
liblldb.so.14:_ZNK4lldb13SBDeclarationeqERKS0_
liblldb.so.14:_ZNK4lldb13SBDeclarationneERKS0_
liblldb.so.14:_ZNK4lldb13SBDeclarationptEv
liblldb.so.14:_ZNK4lldb13SBEnvironment3refEv
liblldb.so.14:_ZNK4lldb13SBInputReader8IsActiveEv
liblldb.so.14:_ZNK4lldb13SBInstructioncvbEv
liblldb.so.14:_ZNK4lldb13SBProcessInfo7IsValidEv
liblldb.so.14:_ZNK4lldb13SBProcessInfocvbEv
liblldb.so.14:_ZNK4lldb13SBTypeSummary7IsValidEv
liblldb.so.14:_ZNK4lldb13SBTypeSummarycvbEv
liblldb.so.14:_ZNK4lldb13SBUnixSignals13GetNumSignalsEv
liblldb.so.14:_ZNK4lldb13SBUnixSignals13GetShouldStopEi
liblldb.so.14:_ZNK4lldb13SBUnixSignals15GetShouldNotifyEi
liblldb.so.14:_ZNK4lldb13SBUnixSignals16GetSignalAtIndexEi
liblldb.so.14:_ZNK4lldb13SBUnixSignals17GetShouldSuppressEi
liblldb.so.14:_ZNK4lldb13SBUnixSignals18GetSignalAsCStringEi
liblldb.so.14:_ZNK4lldb13SBUnixSignals23GetSignalNumberFromNameEPKc
liblldb.so.14:_ZNK4lldb13SBUnixSignals5GetSPEv
liblldb.so.14:_ZNK4lldb13SBUnixSignals7IsValidEv
liblldb.so.14:_ZNK4lldb13SBUnixSignalscvbEv
liblldb.so.14:_ZNK4lldb14SBFileSpecList14GetDescriptionERNS_8SBStreamE
liblldb.so.14:_ZNK4lldb14SBFileSpecList18GetFileSpecAtIndexEj
liblldb.so.14:_ZNK4lldb14SBFileSpecList3getEv
liblldb.so.14:_ZNK4lldb14SBFileSpecList3refEv
liblldb.so.14:_ZNK4lldb14SBFileSpecList7GetSizeEv
liblldb.so.14:_ZNK4lldb14SBFileSpecListdeEv
liblldb.so.14:_ZNK4lldb14SBFileSpecListptEv
liblldb.so.14:_ZNK4lldb14SBTypeCategory7IsValidEv
liblldb.so.14:_ZNK4lldb14SBTypeCategorycvbEv
liblldb.so.14:_ZNK4lldb15SBCommunication11IsConnectedEv
liblldb.so.14:_ZNK4lldb15SBCommunication7IsValidEv
liblldb.so.14:_ZNK4lldb15SBCommunicationcvbEv
liblldb.so.14:_ZNK4lldb15SBReplayOptions15GetCheckVersionEv
liblldb.so.14:_ZNK4lldb15SBReplayOptions9GetVerifyEv
liblldb.so.14:_ZNK4lldb15SBSymbolContext23GetParentOfInlinedScopeERKNS_9SBAddressERS1_
liblldb.so.14:_ZNK4lldb15SBSymbolContext3getEv
liblldb.so.14:_ZNK4lldb15SBSymbolContext7IsValidEv
liblldb.so.14:_ZNK4lldb15SBSymbolContextcvbEv
liblldb.so.14:_ZNK4lldb15SBSymbolContextdeEv
liblldb.so.14:_ZNK4lldb15SBSymbolContextptEv
liblldb.so.14:_ZNK4lldb15SBTypeSynthetic7IsValidEv
liblldb.so.14:_ZNK4lldb15SBTypeSyntheticcvbEv
liblldb.so.14:_ZNK4lldb16SBBreakpointList7GetSizeEv
liblldb.so.14:_ZNK4lldb16SBBreakpointName12GetAllowListEv
liblldb.so.14:_ZNK4lldb16SBBreakpointName12GetQueueNameEv
liblldb.so.14:_ZNK4lldb16SBBreakpointName13GetHelpStringEv
liblldb.so.14:_ZNK4lldb16SBBreakpointName13GetThreadNameEv
liblldb.so.14:_ZNK4lldb16SBBreakpointName14GetIgnoreCountEv
liblldb.so.14:_ZNK4lldb16SBBreakpointName14GetThreadIndexEv
liblldb.so.14:_ZNK4lldb16SBBreakpointName17GetBreakpointNameEv
liblldb.so.14:_ZNK4lldb16SBBreakpointName7GetNameEv
liblldb.so.14:_ZNK4lldb16SBBreakpointName7IsValidEv
liblldb.so.14:_ZNK4lldb16SBBreakpointName9IsOneShotEv
liblldb.so.14:_ZNK4lldb16SBBreakpointNamecvbEv
liblldb.so.14:_ZNK4lldb16SBStructuredData13GetFloatValueEd
liblldb.so.14:_ZNK4lldb16SBStructuredData14GetDescriptionERNS_8SBStreamE
liblldb.so.14:_ZNK4lldb16SBStructuredData14GetItemAtIndexEm
liblldb.so.14:_ZNK4lldb16SBStructuredData14GetStringValueEPcm
liblldb.so.14:_ZNK4lldb16SBStructuredData14GetValueForKeyEPKc
liblldb.so.14:_ZNK4lldb16SBStructuredData15GetBooleanValueEb
liblldb.so.14:_ZNK4lldb16SBStructuredData15GetIntegerValueEm
liblldb.so.14:_ZNK4lldb16SBStructuredData7GetKeysERNS_12SBStringListE
liblldb.so.14:_ZNK4lldb16SBStructuredData7GetSizeEv
liblldb.so.14:_ZNK4lldb16SBStructuredData7GetTypeEv
liblldb.so.14:_ZNK4lldb16SBStructuredData7IsValidEv
liblldb.so.14:_ZNK4lldb16SBStructuredData9GetAsJSONERNS_8SBStreamE
liblldb.so.14:_ZNK4lldb16SBStructuredDatacvbEv
liblldb.so.14:_ZNK4lldb16SBTypeEnumMember3refEv
liblldb.so.14:_ZNK4lldb16SBTypeEnumMember7IsValidEv
liblldb.so.14:_ZNK4lldb16SBTypeEnumMembercvbEv
liblldb.so.14:_ZNK4lldb17SBInstructionList7IsValidEv
liblldb.so.14:_ZNK4lldb17SBInstructionListcvbEv
liblldb.so.14:_ZNK4lldb18SBExecutionContext10GetProcessEv
liblldb.so.14:_ZNK4lldb18SBExecutionContext3getEv
liblldb.so.14:_ZNK4lldb18SBExecutionContext8GetFrameEv
liblldb.so.14:_ZNK4lldb18SBExecutionContext9GetTargetEv
liblldb.so.14:_ZNK4lldb18SBExecutionContext9GetThreadEv
liblldb.so.14:_ZNK4lldb18SBMemoryRegionInfo3refEv
liblldb.so.14:_ZNK4lldb18SBMemoryRegionInfoeqERKS0_
liblldb.so.14:_ZNK4lldb18SBMemoryRegionInfoneERKS0_
liblldb.so.14:_ZNK4lldb18SBThreadCollection3getEv
liblldb.so.14:_ZNK4lldb18SBThreadCollection7IsValidEv
liblldb.so.14:_ZNK4lldb18SBThreadCollectioncvbEv
liblldb.so.14:_ZNK4lldb18SBThreadCollectiondeEv
liblldb.so.14:_ZNK4lldb18SBThreadCollectionptEv
liblldb.so.14:_ZNK4lldb18SBVariablesOptions13GetUseDynamicEv
liblldb.so.14:_ZNK4lldb18SBVariablesOptions14GetInScopeOnlyEv
liblldb.so.14:_ZNK4lldb18SBVariablesOptions16GetIncludeLocalsEv
liblldb.so.14:_ZNK4lldb18SBVariablesOptions17GetIncludeStaticsEv
liblldb.so.14:_ZNK4lldb18SBVariablesOptions19GetIncludeArgumentsEv
liblldb.so.14:_ZNK4lldb18SBVariablesOptions29GetIncludeRecognizedArgumentsERKNS_8SBTargetE
liblldb.so.14:_ZNK4lldb18SBVariablesOptions30GetIncludeRuntimeSupportValuesEv
liblldb.so.14:_ZNK4lldb18SBVariablesOptions3refEv
liblldb.so.14:_ZNK4lldb18SBVariablesOptions7IsValidEv
liblldb.so.14:_ZNK4lldb18SBVariablesOptionscvbEv
liblldb.so.14:_ZNK4lldb18SBVariablesOptionsptEv
liblldb.so.14:_ZNK4lldb19SBExpressionOptions13GetStopOthersEv
liblldb.so.14:_ZNK4lldb19SBExpressionOptions16GetTryAllThreadsEv
liblldb.so.14:_ZNK4lldb19SBExpressionOptions16GetUnwindOnErrorEv
liblldb.so.14:_ZNK4lldb19SBExpressionOptions17GetTrapExceptionsEv
liblldb.so.14:_ZNK4lldb19SBExpressionOptions19GetCoerceResultToIdEv
liblldb.so.14:_ZNK4lldb19SBExpressionOptions20GetFetchDynamicValueEv
liblldb.so.14:_ZNK4lldb19SBExpressionOptions20GetIgnoreBreakpointsEv
liblldb.so.14:_ZNK4lldb19SBExpressionOptions24GetTimeoutInMicroSecondsEv
liblldb.so.14:_ZNK4lldb19SBExpressionOptions33GetOneThreadTimeoutInMicroSecondsEv
liblldb.so.14:_ZNK4lldb19SBExpressionOptions3getEv
liblldb.so.14:_ZNK4lldb19SBExpressionOptions3refEv
liblldb.so.14:_ZNK4lldb19SBExpressionOptions9GetPrefixEv
liblldb.so.14:_ZNK4lldb19SBSymbolContextList7GetSizeEv
liblldb.so.14:_ZNK4lldb19SBSymbolContextList7IsValidEv
liblldb.so.14:_ZNK4lldb19SBSymbolContextListcvbEv
liblldb.so.14:_ZNK4lldb19SBSymbolContextListdeEv
liblldb.so.14:_ZNK4lldb19SBSymbolContextListptEv
liblldb.so.14:_ZNK4lldb19SBTypeNameSpecifier7IsValidEv
liblldb.so.14:_ZNK4lldb19SBTypeNameSpecifiercvbEv
liblldb.so.14:_ZNK4lldb20SBBreakpointLocation12GetQueueNameEv
liblldb.so.14:_ZNK4lldb20SBBreakpointLocation13GetThreadNameEv
liblldb.so.14:_ZNK4lldb20SBBreakpointLocation14GetThreadIndexEv
liblldb.so.14:_ZNK4lldb20SBBreakpointLocation5GetSPEv
liblldb.so.14:_ZNK4lldb20SBBreakpointLocation7IsValidEv
liblldb.so.14:_ZNK4lldb20SBBreakpointLocationcvbEv
liblldb.so.14:_ZNK4lldb20SBBreakpointNameImpl17GetBreakpointNameEv
liblldb.so.14:_ZNK4lldb20SBCommandInterpreter14WasInterruptedEv
liblldb.so.14:_ZNK4lldb20SBCommandInterpreter7IsValidEv
liblldb.so.14:_ZNK4lldb20SBCommandInterpretercvbEv
liblldb.so.14:_ZNK4lldb20SBTypeEnumMemberListcvbEv
liblldb.so.14:_ZNK4lldb20SBTypeMemberFunction3refEv
liblldb.so.14:_ZNK4lldb20SBTypeMemberFunction7IsValidEv
liblldb.so.14:_ZNK4lldb20SBTypeMemberFunctioncvbEv
liblldb.so.14:_ZNK4lldb20SBTypeSummaryOptions3refEv
liblldb.so.14:_ZNK4lldb20SBTypeSummaryOptionscvbEv
liblldb.so.14:_ZNK4lldb20SBTypeSummaryOptionsptEv
liblldb.so.14:_ZNK4lldb21SBCommandReturnObject3getEv
liblldb.so.14:_ZNK4lldb21SBCommandReturnObject3refEv
liblldb.so.14:_ZNK4lldb21SBCommandReturnObject7IsValidEv
liblldb.so.14:_ZNK4lldb21SBCommandReturnObjectcvbEv
liblldb.so.14:_ZNK4lldb21SBCommandReturnObjectdeEv
liblldb.so.14:_ZNK4lldb21SBCommandReturnObjectptEv
liblldb.so.14:_ZNK4lldb22SBMemoryRegionInfoList3refEv
liblldb.so.14:_ZNK4lldb22SBMemoryRegionInfoList7GetSizeEv
liblldb.so.14:_ZNK4lldb22SBMemoryRegionInfoListdeEv
liblldb.so.14:_ZNK4lldb22SBMemoryRegionInfoListptEv
liblldb.so.14:_ZNK4lldb29SBCommandInterpreterRunResult17GetNumberOfErrorsEv
liblldb.so.14:_ZNK4lldb29SBCommandInterpreterRunResult9GetResultEv
liblldb.so.14:_ZNK4lldb30SBCommandInterpreterRunOptions14GetPrintErrorsEv
liblldb.so.14:_ZNK4lldb30SBCommandInterpreterRunOptions14GetSpawnThreadEv
liblldb.so.14:_ZNK4lldb30SBCommandInterpreterRunOptions14GetStopOnCrashEv
liblldb.so.14:_ZNK4lldb30SBCommandInterpreterRunOptions14GetStopOnErrorEv
liblldb.so.14:_ZNK4lldb30SBCommandInterpreterRunOptions15GetAddToHistoryEv
liblldb.so.14:_ZNK4lldb30SBCommandInterpreterRunOptions15GetEchoCommandsEv
liblldb.so.14:_ZNK4lldb30SBCommandInterpreterRunOptions15GetPrintResultsEv
liblldb.so.14:_ZNK4lldb30SBCommandInterpreterRunOptions17GetStopOnContinueEv
liblldb.so.14:_ZNK4lldb30SBCommandInterpreterRunOptions19GetAutoHandleEventsEv
liblldb.so.14:_ZNK4lldb30SBCommandInterpreterRunOptions22GetEchoCommentCommandsEv
liblldb.so.14:_ZNK4lldb30SBCommandInterpreterRunOptions3getEv
liblldb.so.14:_ZNK4lldb30SBCommandInterpreterRunOptions3refEv
liblldb.so.14:_ZNK4lldb6SBData3getEv
liblldb.so.14:_ZNK4lldb6SBDatacvbEv
liblldb.so.14:_ZNK4lldb6SBDatadeEv
liblldb.so.14:_ZNK4lldb6SBDataptEv
liblldb.so.14:_ZNK4lldb6SBFile7GetFileEv
liblldb.so.14:_ZNK4lldb6SBFile7IsValidEv
liblldb.so.14:_ZNK4lldb6SBFilecvbEv
liblldb.so.14:_ZNK4lldb6SBFilentEv
liblldb.so.14:_ZNK4lldb6SBType3refEv
liblldb.so.14:_ZNK4lldb6SBType7IsValidEv
liblldb.so.14:_ZNK4lldb6SBTypecvbEv
liblldb.so.14:_ZNK4lldb7SBBlock14GetInlinedNameEv
liblldb.so.14:_ZNK4lldb7SBBlock22GetInlinedCallSiteFileEv
liblldb.so.14:_ZNK4lldb7SBBlock22GetInlinedCallSiteLineEv
liblldb.so.14:_ZNK4lldb7SBBlock24GetInlinedCallSiteColumnEv
liblldb.so.14:_ZNK4lldb7SBBlock7IsValidEv
liblldb.so.14:_ZNK4lldb7SBBlock9IsInlinedEv
liblldb.so.14:_ZNK4lldb7SBBlockcvbEv
liblldb.so.14:_ZNK4lldb7SBError10GetCStringEv
liblldb.so.14:_ZNK4lldb7SBError4FailEv
liblldb.so.14:_ZNK4lldb7SBError7GetTypeEv
liblldb.so.14:_ZNK4lldb7SBError7IsValidEv
liblldb.so.14:_ZNK4lldb7SBError7SuccessEv
liblldb.so.14:_ZNK4lldb7SBError8GetErrorEv
liblldb.so.14:_ZNK4lldb7SBErrorcvbEv
liblldb.so.14:_ZNK4lldb7SBErrordeEv
liblldb.so.14:_ZNK4lldb7SBEvent14GetBroadcasterEv
liblldb.so.14:_ZNK4lldb7SBEvent14GetDescriptionERNS_8SBStreamE
liblldb.so.14:_ZNK4lldb7SBEvent19GetBroadcasterClassEv
liblldb.so.14:_ZNK4lldb7SBEvent3getEv
liblldb.so.14:_ZNK4lldb7SBEvent5GetSPEv
liblldb.so.14:_ZNK4lldb7SBEvent7GetTypeEv
liblldb.so.14:_ZNK4lldb7SBEvent7IsValidEv
liblldb.so.14:_ZNK4lldb7SBEventcvbEv
liblldb.so.14:_ZNK4lldb7SBFrame10GetFrameIDEv
liblldb.so.14:_ZNK4lldb7SBFrame10GetFrameSPEv
liblldb.so.14:_ZNK4lldb7SBFrame11DisassembleEv
liblldb.so.14:_ZNK4lldb7SBFrame11GetFunctionEv
liblldb.so.14:_ZNK4lldb7SBFrame12GetLineEntryEv
liblldb.so.14:_ZNK4lldb7SBFrame12GetPCAddressEv
liblldb.so.14:_ZNK4lldb7SBFrame12IsArtificialEv
liblldb.so.14:_ZNK4lldb7SBFrame13GetFrameBlockEv
liblldb.so.14:_ZNK4lldb7SBFrame13GuessLanguageEv
liblldb.so.14:_ZNK4lldb7SBFrame14GetCompileUnitEv
liblldb.so.14:_ZNK4lldb7SBFrame15GetFunctionNameEv
liblldb.so.14:_ZNK4lldb7SBFrame16GetSymbolContextEj
liblldb.so.14:_ZNK4lldb7SBFrame5GetFPEv
liblldb.so.14:_ZNK4lldb7SBFrame5GetPCEv
liblldb.so.14:_ZNK4lldb7SBFrame5GetSPEv
liblldb.so.14:_ZNK4lldb7SBFrame6GetCFAEv
liblldb.so.14:_ZNK4lldb7SBFrame7IsEqualERKS0_
liblldb.so.14:_ZNK4lldb7SBFrame7IsValidEv
liblldb.so.14:_ZNK4lldb7SBFrame8GetBlockEv
liblldb.so.14:_ZNK4lldb7SBFrame9GetModuleEv
liblldb.so.14:_ZNK4lldb7SBFrame9GetSymbolEv
liblldb.so.14:_ZNK4lldb7SBFrame9GetThreadEv
liblldb.so.14:_ZNK4lldb7SBFrame9IsInlinedEv
liblldb.so.14:_ZNK4lldb7SBFramecvbEv
liblldb.so.14:_ZNK4lldb7SBFrameeqERKS0_
liblldb.so.14:_ZNK4lldb7SBFrameneERKS0_
liblldb.so.14:_ZNK4lldb7SBQueue10GetIndexIDEv
liblldb.so.14:_ZNK4lldb7SBQueue10GetQueueIDEv
liblldb.so.14:_ZNK4lldb7SBQueue7GetNameEv
liblldb.so.14:_ZNK4lldb7SBQueue7IsValidEv
liblldb.so.14:_ZNK4lldb7SBQueuecvbEv
liblldb.so.14:_ZNK4lldb7SBTracecvbEv
liblldb.so.14:_ZNK4lldb7SBValue18EvaluateExpressionEPKc
liblldb.so.14:_ZNK4lldb7SBValue18EvaluateExpressionEPKcRKNS_19SBExpressionOptionsE
liblldb.so.14:_ZNK4lldb7SBValue18EvaluateExpressionEPKcRKNS_19SBExpressionOptionsES2_
liblldb.so.14:_ZNK4lldb7SBValue5GetSPER11ValueLocker
liblldb.so.14:_ZNK4lldb7SBValue5GetSPEv
liblldb.so.14:_ZNK4lldb7SBValuecvbEv
liblldb.so.14:_ZNK4lldb8SBModule11GetFileSpecEv
liblldb.so.14:_ZNK4lldb8SBModule12GetUUIDBytesEv
liblldb.so.14:_ZNK4lldb8SBModule12IsFileBackedEv
liblldb.so.14:_ZNK4lldb8SBModule13GetUUIDStringEv
liblldb.so.14:_ZNK4lldb8SBModule17GetSymbolFileSpecEv
liblldb.so.14:_ZNK4lldb8SBModule19GetPlatformFileSpecEv
liblldb.so.14:_ZNK4lldb8SBModule26GetObjectFileHeaderAddressEv
liblldb.so.14:_ZNK4lldb8SBModule30GetObjectFileEntryPointAddressEv
liblldb.so.14:_ZNK4lldb8SBModule5GetSPEv
liblldb.so.14:_ZNK4lldb8SBModule7IsValidEv
liblldb.so.14:_ZNK4lldb8SBModulecvbEv
liblldb.so.14:_ZNK4lldb8SBModuleeqERKS0_
liblldb.so.14:_ZNK4lldb8SBModuleneERKS0_
liblldb.so.14:_ZNK4lldb8SBStream7IsValidEv
liblldb.so.14:_ZNK4lldb8SBStreamcvbEv
liblldb.so.14:_ZNK4lldb8SBSymbol14GetDisplayNameEv
liblldb.so.14:_ZNK4lldb8SBSymbol14GetMangledNameEv
liblldb.so.14:_ZNK4lldb8SBSymbol7GetNameEv
liblldb.so.14:_ZNK4lldb8SBSymbol7IsValidEv
liblldb.so.14:_ZNK4lldb8SBSymbolcvbEv
liblldb.so.14:_ZNK4lldb8SBSymboleqERKS0_
liblldb.so.14:_ZNK4lldb8SBSymbolneERKS0_
liblldb.so.14:_ZNK4lldb8SBTarget11GetDebuggerEv
liblldb.so.14:_ZNK4lldb8SBTarget13GetLaunchInfoEv
liblldb.so.14:_ZNK4lldb8SBTarget13GetNumModulesEv
liblldb.so.14:_ZNK4lldb8SBTarget14GetBroadcasterEv
liblldb.so.14:_ZNK4lldb8SBTarget17GetNumBreakpointsEv
liblldb.so.14:_ZNK4lldb8SBTarget17GetNumWatchpointsEv
liblldb.so.14:_ZNK4lldb8SBTarget20GetBreakpointAtIndexEj
liblldb.so.14:_ZNK4lldb8SBTarget20GetWatchpointAtIndexEj
liblldb.so.14:_ZNK4lldb8SBTarget35GetMaximumNumberOfChildrenToDisplayEv
liblldb.so.14:_ZNK4lldb8SBTarget5GetSPEv
liblldb.so.14:_ZNK4lldb8SBTarget7IsValidEv
liblldb.so.14:_ZNK4lldb8SBTarget8IsLoadedERKNS_8SBModuleE
liblldb.so.14:_ZNK4lldb8SBTargetcvbEv
liblldb.so.14:_ZNK4lldb8SBTargeteqERKS0_
liblldb.so.14:_ZNK4lldb8SBTargetneERKS0_
liblldb.so.14:_ZNK4lldb8SBThread10GetIndexIDEv
liblldb.so.14:_ZNK4lldb8SBThread10GetQueueIDEv
liblldb.so.14:_ZNK4lldb8SBThread11GetThreadIDEv
liblldb.so.14:_ZNK4lldb8SBThread12GetQueueNameEv
liblldb.so.14:_ZNK4lldb8SBThread14GetDescriptionERNS_8SBStreamE
liblldb.so.14:_ZNK4lldb8SBThread14GetDescriptionERNS_8SBStreamEb
liblldb.so.14:_ZNK4lldb8SBThread7GetNameEv
liblldb.so.14:_ZNK4lldb8SBThread7IsValidEv
liblldb.so.14:_ZNK4lldb8SBThread8GetQueueEv
liblldb.so.14:_ZNK4lldb8SBThread9GetStatusERNS_8SBStreamE
liblldb.so.14:_ZNK4lldb8SBThreadcvbEv
liblldb.so.14:_ZNK4lldb8SBThreadeqERKS0_
liblldb.so.14:_ZNK4lldb8SBThreadneERKS0_
liblldb.so.14:_ZNK4lldb9SBAddress14GetFileAddressEv
liblldb.so.14:_ZNK4lldb9SBAddress14GetLoadAddressERKNS_8SBTargetE
liblldb.so.14:_ZNK4lldb9SBAddress3refEv
liblldb.so.14:_ZNK4lldb9SBAddress7IsValidEv
liblldb.so.14:_ZNK4lldb9SBAddresscvbEv
liblldb.so.14:_ZNK4lldb9SBAddressneERKS0_
liblldb.so.14:_ZNK4lldb9SBAddressptEv
liblldb.so.14:_ZNK4lldb9SBCommandcvbEv
liblldb.so.14:_ZNK4lldb9SBProcess12GetByteOrderEv
liblldb.so.14:_ZNK4lldb9SBProcess14GetBroadcasterEv
liblldb.so.14:_ZNK4lldb9SBProcess16ReportEventStateERKNS_7SBEventENS_6SBFileE
liblldb.so.14:_ZNK4lldb9SBProcess16ReportEventStateERKNS_7SBEventEP8_IO_FILE
liblldb.so.14:_ZNK4lldb9SBProcess16ReportEventStateERKNS_7SBEventESt10shared_ptrIN12lldb_private4FileEE
liblldb.so.14:_ZNK4lldb9SBProcess17GetSelectedThreadEv
liblldb.so.14:_ZNK4lldb9SBProcess18GetAddressByteSizeEv
liblldb.so.14:_ZNK4lldb9SBProcess19GetAsyncProfileDataEPcm
liblldb.so.14:_ZNK4lldb9SBProcess34GetNumSupportedHardwareWatchpointsERNS_7SBErrorE
liblldb.so.14:_ZNK4lldb9SBProcess5GetSPEv
liblldb.so.14:_ZNK4lldb9SBProcess7IsValidEv
liblldb.so.14:_ZNK4lldb9SBProcess9GetSTDERREPcm
liblldb.so.14:_ZNK4lldb9SBProcess9GetSTDOUTEPcm
liblldb.so.14:_ZNK4lldb9SBProcess9GetTargetEv
liblldb.so.14:_ZNK4lldb9SBProcesscvbEv
liblldb.so.14:_ZNK4lldb9SBSection14GetPermissionsEv
liblldb.so.14:_ZNK4lldb9SBSection5GetSPEv
liblldb.so.14:_ZNK4lldb9SBSection7IsValidEv
liblldb.so.14:_ZNK4lldb9SBSectioncvbEv
liblldbIntelFeatures.so.14:_Z19MPXPluginInitializeRN4lldb10SBDebuggerE
liblldbIntelFeatures.so.14:_ZN4lldb16PluginInitializeENS_10SBDebuggerE
libomp.so:GOMP_1.0
libomp.so:GOMP_2.0
libomp.so:GOMP_3.0
libomp.so:GOMP_4.0
libomp.so:GOMP_4.5
libomp.so:GOMP_5.0
libomp.so:GOMP_5.0.1
libomp.so:GOMP_alloc
libomp.so:GOMP_atomic_end
libomp.so:GOMP_atomic_start
libomp.so:GOMP_barrier
libomp.so:GOMP_barrier_cancel
libomp.so:GOMP_cancel
libomp.so:GOMP_cancellation_point
libomp.so:GOMP_critical_end
libomp.so:GOMP_critical_name_end
libomp.so:GOMP_critical_name_start
libomp.so:GOMP_critical_start
libomp.so:GOMP_doacross_post
libomp.so:GOMP_doacross_ull_post
libomp.so:GOMP_doacross_ull_wait
libomp.so:GOMP_doacross_wait
libomp.so:GOMP_free
libomp.so:GOMP_loop_doacross_dynamic_start
libomp.so:GOMP_loop_doacross_guided_start
libomp.so:GOMP_loop_doacross_runtime_start
libomp.so:GOMP_loop_doacross_start
libomp.so:GOMP_loop_doacross_static_start
libomp.so:GOMP_loop_dynamic_next
libomp.so:GOMP_loop_dynamic_start
libomp.so:GOMP_loop_end
libomp.so:GOMP_loop_end_cancel
libomp.so:GOMP_loop_end_nowait
libomp.so:GOMP_loop_guided_next
libomp.so:GOMP_loop_guided_start
libomp.so:GOMP_loop_maybe_nonmonotonic_runtime_next
libomp.so:GOMP_loop_maybe_nonmonotonic_runtime_start
libomp.so:GOMP_loop_nonmonotonic_dynamic_next
libomp.so:GOMP_loop_nonmonotonic_dynamic_start
libomp.so:GOMP_loop_nonmonotonic_guided_next
libomp.so:GOMP_loop_nonmonotonic_guided_start
libomp.so:GOMP_loop_nonmonotonic_runtime_next
libomp.so:GOMP_loop_nonmonotonic_runtime_start
libomp.so:GOMP_loop_ordered_dynamic_next
libomp.so:GOMP_loop_ordered_dynamic_start
libomp.so:GOMP_loop_ordered_guided_next
libomp.so:GOMP_loop_ordered_guided_start
libomp.so:GOMP_loop_ordered_runtime_next
libomp.so:GOMP_loop_ordered_runtime_start
libomp.so:GOMP_loop_ordered_start
libomp.so:GOMP_loop_ordered_static_next
libomp.so:GOMP_loop_ordered_static_start
libomp.so:GOMP_loop_runtime_next
libomp.so:GOMP_loop_runtime_start
libomp.so:GOMP_loop_start
libomp.so:GOMP_loop_static_next
libomp.so:GOMP_loop_static_start
libomp.so:GOMP_loop_ull_doacross_dynamic_start
libomp.so:GOMP_loop_ull_doacross_guided_start
libomp.so:GOMP_loop_ull_doacross_runtime_start
libomp.so:GOMP_loop_ull_doacross_start
libomp.so:GOMP_loop_ull_doacross_static_start
libomp.so:GOMP_loop_ull_dynamic_next
libomp.so:GOMP_loop_ull_dynamic_start
libomp.so:GOMP_loop_ull_guided_next
libomp.so:GOMP_loop_ull_guided_start
libomp.so:GOMP_loop_ull_maybe_nonmonotonic_runtime_next
libomp.so:GOMP_loop_ull_maybe_nonmonotonic_runtime_start
libomp.so:GOMP_loop_ull_nonmonotonic_dynamic_next
libomp.so:GOMP_loop_ull_nonmonotonic_dynamic_start
libomp.so:GOMP_loop_ull_nonmonotonic_guided_next
libomp.so:GOMP_loop_ull_nonmonotonic_guided_start
libomp.so:GOMP_loop_ull_nonmonotonic_runtime_next
libomp.so:GOMP_loop_ull_nonmonotonic_runtime_start
libomp.so:GOMP_loop_ull_ordered_dynamic_next
libomp.so:GOMP_loop_ull_ordered_dynamic_start
libomp.so:GOMP_loop_ull_ordered_guided_next
libomp.so:GOMP_loop_ull_ordered_guided_start
libomp.so:GOMP_loop_ull_ordered_runtime_next
libomp.so:GOMP_loop_ull_ordered_runtime_start
libomp.so:GOMP_loop_ull_ordered_start
libomp.so:GOMP_loop_ull_ordered_static_next
libomp.so:GOMP_loop_ull_ordered_static_start
libomp.so:GOMP_loop_ull_runtime_next
libomp.so:GOMP_loop_ull_runtime_start
libomp.so:GOMP_loop_ull_start
libomp.so:GOMP_loop_ull_static_next
libomp.so:GOMP_loop_ull_static_start
libomp.so:GOMP_ordered_end
libomp.so:GOMP_ordered_start
libomp.so:GOMP_parallel
libomp.so:GOMP_parallel_end
libomp.so:GOMP_parallel_loop_dynamic
libomp.so:GOMP_parallel_loop_dynamic_start
libomp.so:GOMP_parallel_loop_guided
libomp.so:GOMP_parallel_loop_guided_start
libomp.so:GOMP_parallel_loop_maybe_nonmonotonic_runtime
libomp.so:GOMP_parallel_loop_nonmonotonic_dynamic
libomp.so:GOMP_parallel_loop_nonmonotonic_guided
libomp.so:GOMP_parallel_loop_nonmonotonic_runtime
libomp.so:GOMP_parallel_loop_runtime
libomp.so:GOMP_parallel_loop_runtime_start
libomp.so:GOMP_parallel_loop_static
libomp.so:GOMP_parallel_loop_static_start
libomp.so:GOMP_parallel_reductions
libomp.so:GOMP_parallel_sections
libomp.so:GOMP_parallel_sections_start
libomp.so:GOMP_parallel_start
libomp.so:GOMP_sections2_start
libomp.so:GOMP_sections_end
libomp.so:GOMP_sections_end_cancel
libomp.so:GOMP_sections_end_nowait
libomp.so:GOMP_sections_next
libomp.so:GOMP_sections_start
libomp.so:GOMP_single_copy_end
libomp.so:GOMP_single_copy_start
libomp.so:GOMP_single_start
libomp.so:GOMP_target
libomp.so:GOMP_target_data
libomp.so:GOMP_target_end_data
libomp.so:GOMP_target_update
libomp.so:GOMP_task
libomp.so:GOMP_task_reduction_remap
libomp.so:GOMP_taskgroup_end
libomp.so:GOMP_taskgroup_reduction_register
libomp.so:GOMP_taskgroup_reduction_unregister
libomp.so:GOMP_taskgroup_start
libomp.so:GOMP_taskloop
libomp.so:GOMP_taskloop_ull
libomp.so:GOMP_taskwait
libomp.so:GOMP_taskwait_depend
libomp.so:GOMP_taskyield
libomp.so:GOMP_teams
libomp.so:GOMP_teams_reg
libomp.so:GOMP_workshare_task_reduction_unregister
libomp.so:OMP_1.0
libomp.so:OMP_2.0
libomp.so:OMP_3.0
libomp.so:OMP_3.1
libomp.so:OMP_4.0
libomp.so:OMP_4.5
libomp.so:OMP_5.0
libomp.so:VERSION
libomp.so:___kmp_allocate
libomp.so:___kmp_free
libomp.so:__kmp_acquire_drdpa_lock
libomp.so:__kmp_acquire_nested_drdpa_lock
libomp.so:__kmp_acquire_nested_queuing_lock
libomp.so:__kmp_acquire_nested_tas_lock
libomp.so:__kmp_acquire_nested_ticket_lock
libomp.so:__kmp_acquire_queuing_lock
libomp.so:__kmp_acquire_tas_lock
libomp.so:__kmp_acquire_ticket_lock
libomp.so:__kmp_fork_call
libomp.so:__kmp_get_reduce_method
libomp.so:__kmp_invoke_microtask
libomp.so:__kmp_itt_fini_ittlib
libomp.so:__kmp_itt_init_ittlib
libomp.so:__kmp_reap_worker
libomp.so:__kmp_release_64
libomp.so:__kmp_wait_4
libomp.so:__kmp_wait_64
libomp.so:__kmpc_aligned_alloc
libomp.so:__kmpc_alloc
libomp.so:__kmpc_atomic_1
libomp.so:__kmpc_atomic_10
libomp.so:__kmpc_atomic_16
libomp.so:__kmpc_atomic_2
libomp.so:__kmpc_atomic_20
libomp.so:__kmpc_atomic_32
libomp.so:__kmpc_atomic_4
libomp.so:__kmpc_atomic_8
libomp.so:__kmpc_atomic_bool_1_cas
libomp.so:__kmpc_atomic_bool_1_cas_cpt
libomp.so:__kmpc_atomic_bool_2_cas
libomp.so:__kmpc_atomic_bool_2_cas_cpt
libomp.so:__kmpc_atomic_bool_4_cas
libomp.so:__kmpc_atomic_bool_4_cas_cpt
libomp.so:__kmpc_atomic_bool_8_cas
libomp.so:__kmpc_atomic_bool_8_cas_cpt
libomp.so:__kmpc_atomic_cmplx10_add
libomp.so:__kmpc_atomic_cmplx10_add_cpt
libomp.so:__kmpc_atomic_cmplx10_div
libomp.so:__kmpc_atomic_cmplx10_div_cpt
libomp.so:__kmpc_atomic_cmplx10_div_cpt_rev
libomp.so:__kmpc_atomic_cmplx10_div_rev
libomp.so:__kmpc_atomic_cmplx10_mul
libomp.so:__kmpc_atomic_cmplx10_mul_cpt
libomp.so:__kmpc_atomic_cmplx10_rd
libomp.so:__kmpc_atomic_cmplx10_sub
libomp.so:__kmpc_atomic_cmplx10_sub_cpt
libomp.so:__kmpc_atomic_cmplx10_sub_cpt_rev
libomp.so:__kmpc_atomic_cmplx10_sub_rev
libomp.so:__kmpc_atomic_cmplx10_swp
libomp.so:__kmpc_atomic_cmplx10_wr
libomp.so:__kmpc_atomic_cmplx4_add
libomp.so:__kmpc_atomic_cmplx4_add_cmplx8
libomp.so:__kmpc_atomic_cmplx4_add_cpt
libomp.so:__kmpc_atomic_cmplx4_div
libomp.so:__kmpc_atomic_cmplx4_div_cmplx8
libomp.so:__kmpc_atomic_cmplx4_div_cpt
libomp.so:__kmpc_atomic_cmplx4_div_cpt_rev
libomp.so:__kmpc_atomic_cmplx4_div_rev
libomp.so:__kmpc_atomic_cmplx4_mul
libomp.so:__kmpc_atomic_cmplx4_mul_cmplx8
libomp.so:__kmpc_atomic_cmplx4_mul_cpt
libomp.so:__kmpc_atomic_cmplx4_rd
libomp.so:__kmpc_atomic_cmplx4_sub
libomp.so:__kmpc_atomic_cmplx4_sub_cmplx8
libomp.so:__kmpc_atomic_cmplx4_sub_cpt
libomp.so:__kmpc_atomic_cmplx4_sub_cpt_rev
libomp.so:__kmpc_atomic_cmplx4_sub_rev
libomp.so:__kmpc_atomic_cmplx4_swp
libomp.so:__kmpc_atomic_cmplx4_wr
libomp.so:__kmpc_atomic_cmplx8_add
libomp.so:__kmpc_atomic_cmplx8_add_cpt
libomp.so:__kmpc_atomic_cmplx8_div
libomp.so:__kmpc_atomic_cmplx8_div_cpt
libomp.so:__kmpc_atomic_cmplx8_div_cpt_rev
libomp.so:__kmpc_atomic_cmplx8_div_rev
libomp.so:__kmpc_atomic_cmplx8_mul
libomp.so:__kmpc_atomic_cmplx8_mul_cpt
libomp.so:__kmpc_atomic_cmplx8_rd
libomp.so:__kmpc_atomic_cmplx8_sub
libomp.so:__kmpc_atomic_cmplx8_sub_cpt
libomp.so:__kmpc_atomic_cmplx8_sub_cpt_rev
libomp.so:__kmpc_atomic_cmplx8_sub_rev
libomp.so:__kmpc_atomic_cmplx8_swp
libomp.so:__kmpc_atomic_cmplx8_wr
libomp.so:__kmpc_atomic_end
libomp.so:__kmpc_atomic_fixed1_add
libomp.so:__kmpc_atomic_fixed1_add_cpt
libomp.so:__kmpc_atomic_fixed1_andb
libomp.so:__kmpc_atomic_fixed1_andb_cpt
libomp.so:__kmpc_atomic_fixed1_andl
libomp.so:__kmpc_atomic_fixed1_andl_cpt
libomp.so:__kmpc_atomic_fixed1_div
libomp.so:__kmpc_atomic_fixed1_div_cpt
libomp.so:__kmpc_atomic_fixed1_div_cpt_rev
libomp.so:__kmpc_atomic_fixed1_div_float8
libomp.so:__kmpc_atomic_fixed1_div_rev
libomp.so:__kmpc_atomic_fixed1_eqv
libomp.so:__kmpc_atomic_fixed1_eqv_cpt
libomp.so:__kmpc_atomic_fixed1_max
libomp.so:__kmpc_atomic_fixed1_max_cpt
libomp.so:__kmpc_atomic_fixed1_min
libomp.so:__kmpc_atomic_fixed1_min_cpt
libomp.so:__kmpc_atomic_fixed1_mul
libomp.so:__kmpc_atomic_fixed1_mul_cpt
libomp.so:__kmpc_atomic_fixed1_mul_float8
libomp.so:__kmpc_atomic_fixed1_neqv
libomp.so:__kmpc_atomic_fixed1_neqv_cpt
libomp.so:__kmpc_atomic_fixed1_orb
libomp.so:__kmpc_atomic_fixed1_orb_cpt
libomp.so:__kmpc_atomic_fixed1_orl
libomp.so:__kmpc_atomic_fixed1_orl_cpt
libomp.so:__kmpc_atomic_fixed1_rd
libomp.so:__kmpc_atomic_fixed1_shl
libomp.so:__kmpc_atomic_fixed1_shl_cpt
libomp.so:__kmpc_atomic_fixed1_shl_cpt_rev
libomp.so:__kmpc_atomic_fixed1_shl_rev
libomp.so:__kmpc_atomic_fixed1_shr
libomp.so:__kmpc_atomic_fixed1_shr_cpt
libomp.so:__kmpc_atomic_fixed1_shr_cpt_rev
libomp.so:__kmpc_atomic_fixed1_shr_rev
libomp.so:__kmpc_atomic_fixed1_sub
libomp.so:__kmpc_atomic_fixed1_sub_cpt
libomp.so:__kmpc_atomic_fixed1_sub_cpt_rev
libomp.so:__kmpc_atomic_fixed1_sub_rev
libomp.so:__kmpc_atomic_fixed1_swp
libomp.so:__kmpc_atomic_fixed1_wr
libomp.so:__kmpc_atomic_fixed1_xor
libomp.so:__kmpc_atomic_fixed1_xor_cpt
libomp.so:__kmpc_atomic_fixed1u_div
libomp.so:__kmpc_atomic_fixed1u_div_cpt
libomp.so:__kmpc_atomic_fixed1u_div_cpt_rev
libomp.so:__kmpc_atomic_fixed1u_div_rev
libomp.so:__kmpc_atomic_fixed1u_shr
libomp.so:__kmpc_atomic_fixed1u_shr_cpt
libomp.so:__kmpc_atomic_fixed1u_shr_cpt_rev
libomp.so:__kmpc_atomic_fixed1u_shr_rev
libomp.so:__kmpc_atomic_fixed2_add
libomp.so:__kmpc_atomic_fixed2_add_cpt
libomp.so:__kmpc_atomic_fixed2_andb
libomp.so:__kmpc_atomic_fixed2_andb_cpt
libomp.so:__kmpc_atomic_fixed2_andl
libomp.so:__kmpc_atomic_fixed2_andl_cpt
libomp.so:__kmpc_atomic_fixed2_div
libomp.so:__kmpc_atomic_fixed2_div_cpt
libomp.so:__kmpc_atomic_fixed2_div_cpt_rev
libomp.so:__kmpc_atomic_fixed2_div_float8
libomp.so:__kmpc_atomic_fixed2_div_rev
libomp.so:__kmpc_atomic_fixed2_eqv
libomp.so:__kmpc_atomic_fixed2_eqv_cpt
libomp.so:__kmpc_atomic_fixed2_max
libomp.so:__kmpc_atomic_fixed2_max_cpt
libomp.so:__kmpc_atomic_fixed2_min
libomp.so:__kmpc_atomic_fixed2_min_cpt
libomp.so:__kmpc_atomic_fixed2_mul
libomp.so:__kmpc_atomic_fixed2_mul_cpt
libomp.so:__kmpc_atomic_fixed2_mul_float8
libomp.so:__kmpc_atomic_fixed2_neqv
libomp.so:__kmpc_atomic_fixed2_neqv_cpt
libomp.so:__kmpc_atomic_fixed2_orb
libomp.so:__kmpc_atomic_fixed2_orb_cpt
libomp.so:__kmpc_atomic_fixed2_orl
libomp.so:__kmpc_atomic_fixed2_orl_cpt
libomp.so:__kmpc_atomic_fixed2_rd
libomp.so:__kmpc_atomic_fixed2_shl
libomp.so:__kmpc_atomic_fixed2_shl_cpt
libomp.so:__kmpc_atomic_fixed2_shl_cpt_rev
libomp.so:__kmpc_atomic_fixed2_shl_rev
libomp.so:__kmpc_atomic_fixed2_shr
libomp.so:__kmpc_atomic_fixed2_shr_cpt
libomp.so:__kmpc_atomic_fixed2_shr_cpt_rev
libomp.so:__kmpc_atomic_fixed2_shr_rev
libomp.so:__kmpc_atomic_fixed2_sub
libomp.so:__kmpc_atomic_fixed2_sub_cpt
libomp.so:__kmpc_atomic_fixed2_sub_cpt_rev
libomp.so:__kmpc_atomic_fixed2_sub_rev
libomp.so:__kmpc_atomic_fixed2_swp
libomp.so:__kmpc_atomic_fixed2_wr
libomp.so:__kmpc_atomic_fixed2_xor
libomp.so:__kmpc_atomic_fixed2_xor_cpt
libomp.so:__kmpc_atomic_fixed2u_div
libomp.so:__kmpc_atomic_fixed2u_div_cpt
libomp.so:__kmpc_atomic_fixed2u_div_cpt_rev
libomp.so:__kmpc_atomic_fixed2u_div_rev
libomp.so:__kmpc_atomic_fixed2u_shr
libomp.so:__kmpc_atomic_fixed2u_shr_cpt
libomp.so:__kmpc_atomic_fixed2u_shr_cpt_rev
libomp.so:__kmpc_atomic_fixed2u_shr_rev
libomp.so:__kmpc_atomic_fixed4_add
libomp.so:__kmpc_atomic_fixed4_add_cpt
libomp.so:__kmpc_atomic_fixed4_andb
libomp.so:__kmpc_atomic_fixed4_andb_cpt
libomp.so:__kmpc_atomic_fixed4_andl
libomp.so:__kmpc_atomic_fixed4_andl_cpt
libomp.so:__kmpc_atomic_fixed4_div
libomp.so:__kmpc_atomic_fixed4_div_cpt
libomp.so:__kmpc_atomic_fixed4_div_cpt_rev
libomp.so:__kmpc_atomic_fixed4_div_float8
libomp.so:__kmpc_atomic_fixed4_div_rev
libomp.so:__kmpc_atomic_fixed4_eqv
libomp.so:__kmpc_atomic_fixed4_eqv_cpt
libomp.so:__kmpc_atomic_fixed4_max
libomp.so:__kmpc_atomic_fixed4_max_cpt
libomp.so:__kmpc_atomic_fixed4_min
libomp.so:__kmpc_atomic_fixed4_min_cpt
libomp.so:__kmpc_atomic_fixed4_mul
libomp.so:__kmpc_atomic_fixed4_mul_cpt
libomp.so:__kmpc_atomic_fixed4_mul_float8
libomp.so:__kmpc_atomic_fixed4_neqv
libomp.so:__kmpc_atomic_fixed4_neqv_cpt
libomp.so:__kmpc_atomic_fixed4_orb
libomp.so:__kmpc_atomic_fixed4_orb_cpt
libomp.so:__kmpc_atomic_fixed4_orl
libomp.so:__kmpc_atomic_fixed4_orl_cpt
libomp.so:__kmpc_atomic_fixed4_rd
libomp.so:__kmpc_atomic_fixed4_shl
libomp.so:__kmpc_atomic_fixed4_shl_cpt
libomp.so:__kmpc_atomic_fixed4_shl_cpt_rev
libomp.so:__kmpc_atomic_fixed4_shl_rev
libomp.so:__kmpc_atomic_fixed4_shr
libomp.so:__kmpc_atomic_fixed4_shr_cpt
libomp.so:__kmpc_atomic_fixed4_shr_cpt_rev
libomp.so:__kmpc_atomic_fixed4_shr_rev
libomp.so:__kmpc_atomic_fixed4_sub
libomp.so:__kmpc_atomic_fixed4_sub_cpt
libomp.so:__kmpc_atomic_fixed4_sub_cpt_rev
libomp.so:__kmpc_atomic_fixed4_sub_rev
libomp.so:__kmpc_atomic_fixed4_swp
libomp.so:__kmpc_atomic_fixed4_wr
libomp.so:__kmpc_atomic_fixed4_xor
libomp.so:__kmpc_atomic_fixed4_xor_cpt
libomp.so:__kmpc_atomic_fixed4u_div
libomp.so:__kmpc_atomic_fixed4u_div_cpt
libomp.so:__kmpc_atomic_fixed4u_div_cpt_rev
libomp.so:__kmpc_atomic_fixed4u_div_rev
libomp.so:__kmpc_atomic_fixed4u_shr
libomp.so:__kmpc_atomic_fixed4u_shr_cpt
libomp.so:__kmpc_atomic_fixed4u_shr_cpt_rev
libomp.so:__kmpc_atomic_fixed4u_shr_rev
libomp.so:__kmpc_atomic_fixed8_add
libomp.so:__kmpc_atomic_fixed8_add_cpt
libomp.so:__kmpc_atomic_fixed8_andb
libomp.so:__kmpc_atomic_fixed8_andb_cpt
libomp.so:__kmpc_atomic_fixed8_andl
libomp.so:__kmpc_atomic_fixed8_andl_cpt
libomp.so:__kmpc_atomic_fixed8_div
libomp.so:__kmpc_atomic_fixed8_div_cpt
libomp.so:__kmpc_atomic_fixed8_div_cpt_rev
libomp.so:__kmpc_atomic_fixed8_div_float8
libomp.so:__kmpc_atomic_fixed8_div_rev
libomp.so:__kmpc_atomic_fixed8_eqv
libomp.so:__kmpc_atomic_fixed8_eqv_cpt
libomp.so:__kmpc_atomic_fixed8_max
libomp.so:__kmpc_atomic_fixed8_max_cpt
libomp.so:__kmpc_atomic_fixed8_min
libomp.so:__kmpc_atomic_fixed8_min_cpt
libomp.so:__kmpc_atomic_fixed8_mul
libomp.so:__kmpc_atomic_fixed8_mul_cpt
libomp.so:__kmpc_atomic_fixed8_mul_float8
libomp.so:__kmpc_atomic_fixed8_neqv
libomp.so:__kmpc_atomic_fixed8_neqv_cpt
libomp.so:__kmpc_atomic_fixed8_orb
libomp.so:__kmpc_atomic_fixed8_orb_cpt
libomp.so:__kmpc_atomic_fixed8_orl
libomp.so:__kmpc_atomic_fixed8_orl_cpt
libomp.so:__kmpc_atomic_fixed8_rd
libomp.so:__kmpc_atomic_fixed8_shl
libomp.so:__kmpc_atomic_fixed8_shl_cpt
libomp.so:__kmpc_atomic_fixed8_shl_cpt_rev
libomp.so:__kmpc_atomic_fixed8_shl_rev
libomp.so:__kmpc_atomic_fixed8_shr
libomp.so:__kmpc_atomic_fixed8_shr_cpt
libomp.so:__kmpc_atomic_fixed8_shr_cpt_rev
libomp.so:__kmpc_atomic_fixed8_shr_rev
libomp.so:__kmpc_atomic_fixed8_sub
libomp.so:__kmpc_atomic_fixed8_sub_cpt
libomp.so:__kmpc_atomic_fixed8_sub_cpt_rev
libomp.so:__kmpc_atomic_fixed8_sub_rev
libomp.so:__kmpc_atomic_fixed8_swp
libomp.so:__kmpc_atomic_fixed8_wr
libomp.so:__kmpc_atomic_fixed8_xor
libomp.so:__kmpc_atomic_fixed8_xor_cpt
libomp.so:__kmpc_atomic_fixed8u_div
libomp.so:__kmpc_atomic_fixed8u_div_cpt
libomp.so:__kmpc_atomic_fixed8u_div_cpt_rev
libomp.so:__kmpc_atomic_fixed8u_div_rev
libomp.so:__kmpc_atomic_fixed8u_shr
libomp.so:__kmpc_atomic_fixed8u_shr_cpt
libomp.so:__kmpc_atomic_fixed8u_shr_cpt_rev
libomp.so:__kmpc_atomic_fixed8u_shr_rev
libomp.so:__kmpc_atomic_float10_add
libomp.so:__kmpc_atomic_float10_add_cpt
libomp.so:__kmpc_atomic_float10_div
libomp.so:__kmpc_atomic_float10_div_cpt
libomp.so:__kmpc_atomic_float10_div_cpt_rev
libomp.so:__kmpc_atomic_float10_div_rev
libomp.so:__kmpc_atomic_float10_max
libomp.so:__kmpc_atomic_float10_max_cpt
libomp.so:__kmpc_atomic_float10_min
libomp.so:__kmpc_atomic_float10_min_cpt
libomp.so:__kmpc_atomic_float10_mul
libomp.so:__kmpc_atomic_float10_mul_cpt
libomp.so:__kmpc_atomic_float10_rd
libomp.so:__kmpc_atomic_float10_sub
libomp.so:__kmpc_atomic_float10_sub_cpt
libomp.so:__kmpc_atomic_float10_sub_cpt_rev
libomp.so:__kmpc_atomic_float10_sub_rev
libomp.so:__kmpc_atomic_float10_swp
libomp.so:__kmpc_atomic_float10_wr
libomp.so:__kmpc_atomic_float4_add
libomp.so:__kmpc_atomic_float4_add_cpt
libomp.so:__kmpc_atomic_float4_add_float8
libomp.so:__kmpc_atomic_float4_div
libomp.so:__kmpc_atomic_float4_div_cpt
libomp.so:__kmpc_atomic_float4_div_cpt_rev
libomp.so:__kmpc_atomic_float4_div_float8
libomp.so:__kmpc_atomic_float4_div_rev
libomp.so:__kmpc_atomic_float4_max
libomp.so:__kmpc_atomic_float4_max_cpt
libomp.so:__kmpc_atomic_float4_min
libomp.so:__kmpc_atomic_float4_min_cpt
libomp.so:__kmpc_atomic_float4_mul
libomp.so:__kmpc_atomic_float4_mul_cpt
libomp.so:__kmpc_atomic_float4_mul_float8
libomp.so:__kmpc_atomic_float4_rd
libomp.so:__kmpc_atomic_float4_sub
libomp.so:__kmpc_atomic_float4_sub_cpt
libomp.so:__kmpc_atomic_float4_sub_cpt_rev
libomp.so:__kmpc_atomic_float4_sub_float8
libomp.so:__kmpc_atomic_float4_sub_rev
libomp.so:__kmpc_atomic_float4_swp
libomp.so:__kmpc_atomic_float4_wr
libomp.so:__kmpc_atomic_float8_add
libomp.so:__kmpc_atomic_float8_add_cpt
libomp.so:__kmpc_atomic_float8_div
libomp.so:__kmpc_atomic_float8_div_cpt
libomp.so:__kmpc_atomic_float8_div_cpt_rev
libomp.so:__kmpc_atomic_float8_div_rev
libomp.so:__kmpc_atomic_float8_max
libomp.so:__kmpc_atomic_float8_max_cpt
libomp.so:__kmpc_atomic_float8_min
libomp.so:__kmpc_atomic_float8_min_cpt
libomp.so:__kmpc_atomic_float8_mul
libomp.so:__kmpc_atomic_float8_mul_cpt
libomp.so:__kmpc_atomic_float8_rd
libomp.so:__kmpc_atomic_float8_sub
libomp.so:__kmpc_atomic_float8_sub_cpt
libomp.so:__kmpc_atomic_float8_sub_cpt_rev
libomp.so:__kmpc_atomic_float8_sub_rev
libomp.so:__kmpc_atomic_float8_swp
libomp.so:__kmpc_atomic_float8_wr
libomp.so:__kmpc_atomic_start
libomp.so:__kmpc_atomic_val_1_cas
libomp.so:__kmpc_atomic_val_1_cas_cpt
libomp.so:__kmpc_atomic_val_2_cas
libomp.so:__kmpc_atomic_val_2_cas_cpt
libomp.so:__kmpc_atomic_val_4_cas
libomp.so:__kmpc_atomic_val_4_cas_cpt
libomp.so:__kmpc_atomic_val_8_cas
libomp.so:__kmpc_atomic_val_8_cas_cpt
libomp.so:__kmpc_barrier
libomp.so:__kmpc_barrier_master
libomp.so:__kmpc_barrier_master_nowait
libomp.so:__kmpc_begin
libomp.so:__kmpc_bound_num_threads
libomp.so:__kmpc_bound_thread_num
libomp.so:__kmpc_calloc
libomp.so:__kmpc_cancel
libomp.so:__kmpc_cancel_barrier
libomp.so:__kmpc_cancellationpoint
libomp.so:__kmpc_copyprivate
libomp.so:__kmpc_critical
libomp.so:__kmpc_critical_with_hint
libomp.so:__kmpc_destroy_allocator
libomp.so:__kmpc_destroy_lock
libomp.so:__kmpc_destroy_nest_lock
libomp.so:__kmpc_dispatch_fini_4
libomp.so:__kmpc_dispatch_fini_4u
libomp.so:__kmpc_dispatch_fini_8
libomp.so:__kmpc_dispatch_fini_8u
libomp.so:__kmpc_dispatch_init_4
libomp.so:__kmpc_dispatch_init_4u
libomp.so:__kmpc_dispatch_init_8
libomp.so:__kmpc_dispatch_init_8u
libomp.so:__kmpc_dispatch_next_4
libomp.so:__kmpc_dispatch_next_4u
libomp.so:__kmpc_dispatch_next_8
libomp.so:__kmpc_dispatch_next_8u
libomp.so:__kmpc_dist_dispatch_init_4
libomp.so:__kmpc_dist_dispatch_init_4u
libomp.so:__kmpc_dist_dispatch_init_8
libomp.so:__kmpc_dist_dispatch_init_8u
libomp.so:__kmpc_dist_for_static_init_4
libomp.so:__kmpc_dist_for_static_init_4u
libomp.so:__kmpc_dist_for_static_init_8
libomp.so:__kmpc_dist_for_static_init_8u
libomp.so:__kmpc_doacross_fini
libomp.so:__kmpc_doacross_init
libomp.so:__kmpc_doacross_post
libomp.so:__kmpc_doacross_wait
libomp.so:__kmpc_end
libomp.so:__kmpc_end_barrier_master
libomp.so:__kmpc_end_critical
libomp.so:__kmpc_end_masked
libomp.so:__kmpc_end_master
libomp.so:__kmpc_end_ordered
libomp.so:__kmpc_end_reduce
libomp.so:__kmpc_end_reduce_nowait
libomp.so:__kmpc_end_scope
libomp.so:__kmpc_end_serialized_parallel
libomp.so:__kmpc_end_single
libomp.so:__kmpc_end_taskgroup
libomp.so:__kmpc_error
libomp.so:__kmpc_flush
libomp.so:__kmpc_for_static_fini
libomp.so:__kmpc_for_static_init_4
libomp.so:__kmpc_for_static_init_4u
libomp.so:__kmpc_for_static_init_8
libomp.so:__kmpc_for_static_init_8u
libomp.so:__kmpc_fork_call
libomp.so:__kmpc_fork_teams
libomp.so:__kmpc_free
libomp.so:__kmpc_get_default_allocator
libomp.so:__kmpc_get_parent_taskid
libomp.so:__kmpc_get_target_offload
libomp.so:__kmpc_get_taskid
libomp.so:__kmpc_global_num_threads
libomp.so:__kmpc_global_thread_num
libomp.so:__kmpc_in_parallel
libomp.so:__kmpc_init_allocator
libomp.so:__kmpc_init_lock
libomp.so:__kmpc_init_lock_with_hint
libomp.so:__kmpc_init_nest_lock
libomp.so:__kmpc_init_nest_lock_with_hint
libomp.so:__kmpc_invoke_task_func
libomp.so:__kmpc_masked
libomp.so:__kmpc_master
libomp.so:__kmpc_ok_to_fork
libomp.so:__kmpc_omp_reg_task_with_affinity
libomp.so:__kmpc_omp_target_task_alloc
libomp.so:__kmpc_omp_task
libomp.so:__kmpc_omp_task_alloc
libomp.so:__kmpc_omp_task_begin_if0
libomp.so:__kmpc_omp_task_complete_if0
libomp.so:__kmpc_omp_task_parts
libomp.so:__kmpc_omp_task_with_deps
libomp.so:__kmpc_omp_taskwait
libomp.so:__kmpc_omp_taskyield
libomp.so:__kmpc_omp_wait_deps
libomp.so:__kmpc_ordered
libomp.so:__kmpc_pause_resource
libomp.so:__kmpc_pop_num_threads
libomp.so:__kmpc_proxy_task_completed
libomp.so:__kmpc_proxy_task_completed_ooo
libomp.so:__kmpc_push_num_teams
libomp.so:__kmpc_push_num_teams_51
libomp.so:__kmpc_push_num_threads
libomp.so:__kmpc_push_proc_bind
libomp.so:__kmpc_realloc
libomp.so:__kmpc_reduce
libomp.so:__kmpc_reduce_nowait
libomp.so:__kmpc_scope
libomp.so:__kmpc_serialized_parallel
libomp.so:__kmpc_set_default_allocator
libomp.so:__kmpc_set_lock
libomp.so:__kmpc_set_nest_lock
libomp.so:__kmpc_single
libomp.so:__kmpc_task_allow_completion_event
libomp.so:__kmpc_task_reduction_get_th_data
libomp.so:__kmpc_task_reduction_init
libomp.so:__kmpc_task_reduction_modifier_fini
libomp.so:__kmpc_task_reduction_modifier_init
libomp.so:__kmpc_taskgroup
libomp.so:__kmpc_taskloop
libomp.so:__kmpc_taskloop_5
libomp.so:__kmpc_taskred_init
libomp.so:__kmpc_taskred_modifier_init
libomp.so:__kmpc_team_static_init_4
libomp.so:__kmpc_team_static_init_4u
libomp.so:__kmpc_team_static_init_8
libomp.so:__kmpc_team_static_init_8u
libomp.so:__kmpc_test_lock
libomp.so:__kmpc_test_nest_lock
libomp.so:__kmpc_threadprivate
libomp.so:__kmpc_threadprivate_cached
libomp.so:__kmpc_threadprivate_register
libomp.so:__kmpc_threadprivate_register_vec
libomp.so:__kmpc_unset_lock
libomp.so:__kmpc_unset_nest_lock
libomp.so:kmp_aligned_malloc
libomp.so:kmp_aligned_malloc_
libomp.so:kmp_calloc
libomp.so:kmp_calloc_
libomp.so:kmp_create_affinity_mask
libomp.so:kmp_create_affinity_mask_
libomp.so:kmp_destroy_affinity_mask
libomp.so:kmp_destroy_affinity_mask_
libomp.so:kmp_free
libomp.so:kmp_free_
libomp.so:kmp_get_affinity
libomp.so:kmp_get_affinity_
libomp.so:kmp_get_affinity_mask_proc
libomp.so:kmp_get_affinity_mask_proc_
libomp.so:kmp_get_affinity_max_proc
libomp.so:kmp_get_affinity_max_proc_
libomp.so:kmp_get_blocktime
libomp.so:kmp_get_blocktime_
libomp.so:kmp_get_cancellation_status
libomp.so:kmp_get_cancellation_status_
libomp.so:kmp_get_library
libomp.so:kmp_get_library_
libomp.so:kmp_get_num_known_threads
libomp.so:kmp_get_num_known_threads_
libomp.so:kmp_get_stacksize
libomp.so:kmp_get_stacksize_
libomp.so:kmp_get_stacksize_s
libomp.so:kmp_get_stacksize_s_
libomp.so:kmp_malloc
libomp.so:kmp_malloc_
libomp.so:kmp_realloc
libomp.so:kmp_realloc_
libomp.so:kmp_set_affinity
libomp.so:kmp_set_affinity_
libomp.so:kmp_set_affinity_mask_proc
libomp.so:kmp_set_affinity_mask_proc_
libomp.so:kmp_set_blocktime
libomp.so:kmp_set_blocktime_
libomp.so:kmp_set_defaults
libomp.so:kmp_set_defaults_
libomp.so:kmp_set_disp_num_buffers
libomp.so:kmp_set_disp_num_buffers_
libomp.so:kmp_set_library
libomp.so:kmp_set_library_
libomp.so:kmp_set_library_serial
libomp.so:kmp_set_library_serial_
libomp.so:kmp_set_library_throughput
libomp.so:kmp_set_library_throughput_
libomp.so:kmp_set_library_turnaround
libomp.so:kmp_set_library_turnaround_
libomp.so:kmp_set_stacksize
libomp.so:kmp_set_stacksize_
libomp.so:kmp_set_stacksize_s
libomp.so:kmp_set_stacksize_s_
libomp.so:kmp_set_thread_affinity_mask_initial
libomp.so:kmp_set_warnings_off
libomp.so:kmp_set_warnings_off_
libomp.so:kmp_set_warnings_on
libomp.so:kmp_set_warnings_on_
libomp.so:kmp_threadprivate_insert
libomp.so:kmp_threadprivate_insert_private_data
libomp.so:kmp_unset_affinity_mask_proc
libomp.so:kmp_unset_affinity_mask_proc_
libomp.so:kmpc_aligned_malloc
libomp.so:kmpc_calloc
libomp.so:kmpc_free
libomp.so:kmpc_get_affinity_mask_proc
libomp.so:kmpc_malloc
libomp.so:kmpc_realloc
libomp.so:kmpc_set_affinity_mask_proc
libomp.so:kmpc_set_blocktime
libomp.so:kmpc_set_defaults
libomp.so:kmpc_set_disp_num_buffers
libomp.so:kmpc_set_library
libomp.so:kmpc_set_stacksize
libomp.so:kmpc_set_stacksize_s
libomp.so:kmpc_unset_affinity_mask_proc
libomp.so:omp_aligned_alloc
libomp.so:omp_aligned_calloc
libomp.so:omp_alloc
libomp.so:omp_calloc
libomp.so:omp_capture_affinity
libomp.so:omp_capture_affinity_
libomp.so:omp_control_tool
libomp.so:omp_control_tool_
libomp.so:omp_destroy_allocator
libomp.so:omp_destroy_allocator_
libomp.so:omp_destroy_lock
libomp.so:omp_destroy_lock_
libomp.so:omp_destroy_nest_lock
libomp.so:omp_destroy_nest_lock_
libomp.so:omp_display_affinity
libomp.so:omp_display_affinity_
libomp.so:omp_display_env
libomp.so:omp_display_env_
libomp.so:omp_free
libomp.so:omp_fulfill_event
libomp.so:omp_fulfill_event_
libomp.so:omp_get_active_level
libomp.so:omp_get_active_level_
libomp.so:omp_get_affinity_format
libomp.so:omp_get_affinity_format_
libomp.so:omp_get_ancestor_thread_num
libomp.so:omp_get_ancestor_thread_num_
libomp.so:omp_get_cancellation
libomp.so:omp_get_cancellation_
libomp.so:omp_get_default_allocator
libomp.so:omp_get_default_allocator_
libomp.so:omp_get_default_device
libomp.so:omp_get_default_device_
libomp.so:omp_get_device_num
libomp.so:omp_get_device_num_
libomp.so:omp_get_dynamic
libomp.so:omp_get_dynamic_
libomp.so:omp_get_initial_device
libomp.so:omp_get_initial_device_
libomp.so:omp_get_interop_int
libomp.so:omp_get_interop_int_
libomp.so:omp_get_interop_name
libomp.so:omp_get_interop_name_
libomp.so:omp_get_interop_ptr
libomp.so:omp_get_interop_ptr_
libomp.so:omp_get_interop_rc_desc
libomp.so:omp_get_interop_rc_desc_
libomp.so:omp_get_interop_str
libomp.so:omp_get_interop_str_
libomp.so:omp_get_interop_type_desc
libomp.so:omp_get_interop_type_desc_
libomp.so:omp_get_level
libomp.so:omp_get_level_
libomp.so:omp_get_max_active_levels
libomp.so:omp_get_max_active_levels_
libomp.so:omp_get_max_task_priority
libomp.so:omp_get_max_task_priority_
libomp.so:omp_get_max_teams
libomp.so:omp_get_max_teams_
libomp.so:omp_get_max_threads
libomp.so:omp_get_max_threads_
libomp.so:omp_get_nested
libomp.so:omp_get_nested_
libomp.so:omp_get_num_devices
libomp.so:omp_get_num_devices_
libomp.so:omp_get_num_interop_properties
libomp.so:omp_get_num_interop_properties_
libomp.so:omp_get_num_places
libomp.so:omp_get_num_places_
libomp.so:omp_get_num_procs
libomp.so:omp_get_num_procs_
libomp.so:omp_get_num_teams
libomp.so:omp_get_num_teams_
libomp.so:omp_get_num_threads
libomp.so:omp_get_num_threads_
libomp.so:omp_get_partition_num_places
libomp.so:omp_get_partition_num_places_
libomp.so:omp_get_partition_place_nums
libomp.so:omp_get_partition_place_nums_
libomp.so:omp_get_place_num
libomp.so:omp_get_place_num_
libomp.so:omp_get_place_num_procs
libomp.so:omp_get_place_num_procs_
libomp.so:omp_get_place_proc_ids
libomp.so:omp_get_place_proc_ids_
libomp.so:omp_get_proc_bind
libomp.so:omp_get_proc_bind_
libomp.so:omp_get_schedule
libomp.so:omp_get_schedule_
libomp.so:omp_get_supported_active_levels
libomp.so:omp_get_supported_active_levels_
libomp.so:omp_get_team_num
libomp.so:omp_get_team_num_
libomp.so:omp_get_team_size
libomp.so:omp_get_team_size_
libomp.so:omp_get_teams_thread_limit
libomp.so:omp_get_teams_thread_limit_
libomp.so:omp_get_thread_limit
libomp.so:omp_get_thread_limit_
libomp.so:omp_get_thread_num
libomp.so:omp_get_thread_num_
libomp.so:omp_get_wtick
libomp.so:omp_get_wtick_
libomp.so:omp_get_wtime
libomp.so:omp_get_wtime_
libomp.so:omp_in_final
libomp.so:omp_in_final_
libomp.so:omp_in_parallel
libomp.so:omp_in_parallel_
libomp.so:omp_init_allocator
libomp.so:omp_init_allocator_
libomp.so:omp_init_lock
libomp.so:omp_init_lock_
libomp.so:omp_init_lock_with_hint
libomp.so:omp_init_lock_with_hint_
libomp.so:omp_init_nest_lock
libomp.so:omp_init_nest_lock_
libomp.so:omp_init_nest_lock_with_hint
libomp.so:omp_init_nest_lock_with_hint_
libomp.so:omp_is_initial_device
libomp.so:omp_is_initial_device_
libomp.so:omp_pause_resource
libomp.so:omp_pause_resource_
libomp.so:omp_pause_resource_all
libomp.so:omp_pause_resource_all_
libomp.so:omp_realloc
libomp.so:omp_set_affinity_format
libomp.so:omp_set_affinity_format_
libomp.so:omp_set_default_allocator
libomp.so:omp_set_default_allocator_
libomp.so:omp_set_default_device
libomp.so:omp_set_default_device_
libomp.so:omp_set_dynamic
libomp.so:omp_set_dynamic_
libomp.so:omp_set_lock
libomp.so:omp_set_lock_
libomp.so:omp_set_max_active_levels
libomp.so:omp_set_max_active_levels_
libomp.so:omp_set_nest_lock
libomp.so:omp_set_nest_lock_
libomp.so:omp_set_nested
libomp.so:omp_set_nested_
libomp.so:omp_set_num_teams
libomp.so:omp_set_num_teams_
libomp.so:omp_set_num_threads
libomp.so:omp_set_num_threads_
libomp.so:omp_set_schedule
libomp.so:omp_set_schedule_
libomp.so:omp_set_teams_thread_limit
libomp.so:omp_set_teams_thread_limit_
libomp.so:omp_test_lock
libomp.so:omp_test_lock_
libomp.so:omp_test_nest_lock
libomp.so:omp_test_nest_lock_
libomp.so:omp_unset_lock
libomp.so:omp_unset_lock_
libomp.so:omp_unset_nest_lock
libomp.so:omp_unset_nest_lock_
libomp.so:ompc_capture_affinity
libomp.so:ompc_display_affinity
libomp.so:ompc_get_affinity_format
libomp.so:ompc_get_ancestor_thread_num
libomp.so:ompc_get_team_size
libomp.so:ompc_set_affinity_format
libomp.so:ompc_set_dynamic
libomp.so:ompc_set_max_active_levels
libomp.so:ompc_set_nested
libomp.so:ompc_set_num_threads
libomp.so:ompc_set_schedule
libompd.so:_Z13initTypeSizesP17_ompd_aspace_cont
libompd.so:_Z16__ompd_init_icvsPK16ompd_callbacks_t
libompd.so:_Z18__ompd_init_statesPK16ompd_callbacks_t
libompd.so:_Z18ompd_get_task_dataP17_ompd_task_handlePlP14ompd_address_t
libompd.so:_Z20ompd_get_num_threadsP21_ompd_parallel_handlePl
libompd.so:_Z20ompd_get_thread_dataP19_ompd_thread_handlePlP14ompd_address_t
libompd.so:_Z22ompd_get_parallel_dataP21_ompd_parallel_handlePlP14ompd_address_t
libompd.so:_ZN10TBaseValue8getValueEPvi
libompd.so:_ZN10TBaseValueC1ERK6TValue24ompd_target_prim_types_t
libompd.so:_ZN10TBaseValueC1ERK6TValuem
libompd.so:_ZN10TBaseValueC2ERK6TValue24ompd_target_prim_types_t
libompd.so:_ZN10TBaseValueC2ERK6TValuem
libompd.so:_ZN12TTypeFactory7getTypeEP17_ompd_aspace_contPKcm
libompd.so:_ZN5TType14getElementSizeEPKcPm
libompd.so:_ZN5TType15getBitfieldMaskEPKcPm
libompd.so:_ZN5TType16getElementOffsetEPKcPm
libompd.so:_ZN5TType7getSizeEPm
libompd.so:_ZN5TTypeC1EP17_ompd_aspace_contPKcm
libompd.so:_ZN5TTypeC2EP17_ompd_aspace_contPKcm
libompd.so:_ZN6TValue11getRawValueEPvi
libompd.so:_ZN6TValue4castEPKc
libompd.so:_ZN6TValue4castEPKcim
libompd.so:_ZN6TValue8castBaseEPKc
libompd.so:_ZN6TValue9getStringEPPKc
libompd.so:_ZN6TValueC1EP17_ompd_aspace_contP17_ompd_thread_cont14ompd_address_t
libompd.so:_ZN6TValueC1EP17_ompd_aspace_contP17_ompd_thread_contPKcm
libompd.so:_ZN6TValueC2EP17_ompd_aspace_contP17_ompd_thread_cont14ompd_address_t
libompd.so:_ZN6TValueC2EP17_ompd_aspace_contP17_ompd_thread_contPKcm
libompd.so:_ZNK6TValue10getAddressEP14ompd_address_t
libompd.so:_ZNK6TValue11dereferenceEv
libompd.so:_ZNK6TValue15getArrayElementEi
libompd.so:_ZNK6TValue18getPtrArrayElementEi
libompd.so:_ZNK6TValue5checkEPKcPl
libompd.so:_ZNK6TValue6accessEPKc
libompd.so:_ZNK6TValue8castBaseE24ompd_target_prim_types_t
libompd.so:_ZNK6TValue8castBaseEv
libompd.so:ompd_device_initialize
libompd.so:ompd_enumerate_icvs
libompd.so:ompd_enumerate_states
libompd.so:ompd_finalize
libompd.so:ompd_get_api_version
libompd.so:ompd_get_curr_parallel_handle
libompd.so:ompd_get_curr_task_handle
libompd.so:ompd_get_display_control_vars
libompd.so:ompd_get_enclosing_parallel_handle
libompd.so:ompd_get_generating_task_handle
libompd.so:ompd_get_icv_from_scope
libompd.so:ompd_get_icv_string_from_scope
libompd.so:ompd_get_omp_version
libompd.so:ompd_get_omp_version_string
libompd.so:ompd_get_scheduling_task_handle
libompd.so:ompd_get_state
libompd.so:ompd_get_task_frame
libompd.so:ompd_get_task_function
libompd.so:ompd_get_task_in_parallel
libompd.so:ompd_get_task_parallel_handle
libompd.so:ompd_get_thread_handle
libompd.so:ompd_get_thread_id
libompd.so:ompd_get_thread_in_parallel
libompd.so:ompd_get_tool_data
libompd.so:ompd_get_version_string
libompd.so:ompd_initialize
libompd.so:ompd_parallel_handle_compare
libompd.so:ompd_process_initialize
libompd.so:ompd_rel_address_space_handle
libompd.so:ompd_rel_display_control_vars
libompd.so:ompd_rel_parallel_handle
libompd.so:ompd_rel_task_handle
libompd.so:ompd_rel_thread_handle
libompd.so:ompd_task_handle_compare
libompd.so:ompd_thread_handle_compare
libomptarget.rtl.cuda.so:VERS1.0
libomptarget.rtl.cuda.so:__tgt_rtl_create_event
libomptarget.rtl.cuda.so:__tgt_rtl_data_alloc
libomptarget.rtl.cuda.so:__tgt_rtl_data_delete
libomptarget.rtl.cuda.so:__tgt_rtl_data_exchange
libomptarget.rtl.cuda.so:__tgt_rtl_data_exchange_async
libomptarget.rtl.cuda.so:__tgt_rtl_data_retrieve
libomptarget.rtl.cuda.so:__tgt_rtl_data_retrieve_async
libomptarget.rtl.cuda.so:__tgt_rtl_data_submit
libomptarget.rtl.cuda.so:__tgt_rtl_data_submit_async
libomptarget.rtl.cuda.so:__tgt_rtl_destroy_event
libomptarget.rtl.cuda.so:__tgt_rtl_init_async_info
libomptarget.rtl.cuda.so:__tgt_rtl_init_device
libomptarget.rtl.cuda.so:__tgt_rtl_init_device_info
libomptarget.rtl.cuda.so:__tgt_rtl_init_requires
libomptarget.rtl.cuda.so:__tgt_rtl_is_data_exchangable
libomptarget.rtl.cuda.so:__tgt_rtl_is_valid_binary
libomptarget.rtl.cuda.so:__tgt_rtl_load_binary
libomptarget.rtl.cuda.so:__tgt_rtl_number_of_devices
libomptarget.rtl.cuda.so:__tgt_rtl_print_device_info
libomptarget.rtl.cuda.so:__tgt_rtl_record_event
libomptarget.rtl.cuda.so:__tgt_rtl_run_target_region
libomptarget.rtl.cuda.so:__tgt_rtl_run_target_region_async
libomptarget.rtl.cuda.so:__tgt_rtl_run_target_team_region
libomptarget.rtl.cuda.so:__tgt_rtl_run_target_team_region_async
libomptarget.rtl.cuda.so:__tgt_rtl_set_info_flag
libomptarget.rtl.cuda.so:__tgt_rtl_sync_event
libomptarget.rtl.cuda.so:__tgt_rtl_synchronize
libomptarget.rtl.cuda.so:__tgt_rtl_wait_event
libomptarget.rtl.x86_64.so:VERS1.0
libomptarget.rtl.x86_64.so:__tgt_rtl_data_alloc
libomptarget.rtl.x86_64.so:__tgt_rtl_data_delete
libomptarget.rtl.x86_64.so:__tgt_rtl_data_retrieve
libomptarget.rtl.x86_64.so:__tgt_rtl_data_submit
libomptarget.rtl.x86_64.so:__tgt_rtl_init_device
libomptarget.rtl.x86_64.so:__tgt_rtl_is_valid_binary
libomptarget.rtl.x86_64.so:__tgt_rtl_load_binary
libomptarget.rtl.x86_64.so:__tgt_rtl_number_of_devices
libomptarget.rtl.x86_64.so:__tgt_rtl_run_target_region
libomptarget.rtl.x86_64.so:__tgt_rtl_run_target_team_region
libomptarget.so:VERS1.0
libomptarget.so:__kmpc_push_target_tripcount
libomptarget.so:__kmpc_push_target_tripcount_mapper
libomptarget.so:__tgt_init_all_rtls
libomptarget.so:__tgt_interop_destroy
libomptarget.so:__tgt_interop_init
libomptarget.so:__tgt_interop_use
libomptarget.so:__tgt_mapper_num_components
libomptarget.so:__tgt_print_device_info
libomptarget.so:__tgt_push_mapper_component
libomptarget.so:__tgt_register_lib
libomptarget.so:__tgt_register_requires
libomptarget.so:__tgt_set_info_flag
libomptarget.so:__tgt_target
libomptarget.so:__tgt_target_data_begin
libomptarget.so:__tgt_target_data_begin_mapper
libomptarget.so:__tgt_target_data_begin_nowait
libomptarget.so:__tgt_target_data_begin_nowait_mapper
libomptarget.so:__tgt_target_data_end
libomptarget.so:__tgt_target_data_end_mapper
libomptarget.so:__tgt_target_data_end_nowait
libomptarget.so:__tgt_target_data_end_nowait_mapper
libomptarget.so:__tgt_target_data_update
libomptarget.so:__tgt_target_data_update_mapper
libomptarget.so:__tgt_target_data_update_nowait
libomptarget.so:__tgt_target_data_update_nowait_mapper
libomptarget.so:__tgt_target_mapper
libomptarget.so:__tgt_target_nowait
libomptarget.so:__tgt_target_nowait_mapper
libomptarget.so:__tgt_target_teams
libomptarget.so:__tgt_target_teams_mapper
libomptarget.so:__tgt_target_teams_nowait
libomptarget.so:__tgt_target_teams_nowait_mapper
libomptarget.so:__tgt_unregister_lib
libomptarget.so:llvm_omp_get_dynamic_shared
libomptarget.so:llvm_omp_target_alloc_device
libomptarget.so:llvm_omp_target_alloc_host
libomptarget.so:llvm_omp_target_alloc_shared
libomptarget.so:omp_get_initial_device
libomptarget.so:omp_get_interop_int
libomptarget.so:omp_get_interop_name
libomptarget.so:omp_get_interop_ptr
libomptarget.so:omp_get_interop_str
libomptarget.so:omp_get_interop_type_desc
libomptarget.so:omp_get_num_devices
libomptarget.so:omp_target_alloc
libomptarget.so:omp_target_associate_ptr
libomptarget.so:omp_target_disassociate_ptr
libomptarget.so:omp_target_free
libomptarget.so:omp_target_is_present
libomptarget.so:omp_target_memcpy
libomptarget.so:omp_target_memcpy_rect
